csympy.core.mul
Mul
p0
(csympy.core.numbers
Integer
p1
(I-2
tp2
Rp3
(dp4
bcsympy.core.power
Pow
p5
(csympy.core.numbers
Pi
p6
(tRp7
(dp8
bg1
(I2
tp9
Rp10
(dp11
btp12
Rp13
(dp14
bg5
(csympy.core.symbol
Symbol
p15
(S'\\alpha'
p16
tp17
Rp18
(dp19
S'_assumptions'
p20
ccopy_reg
_reconstructor
p21
(csympy.core.assumptions
StdFactKB
p22
c__builtin__
dict
p23
(dp24
S'real'
p25
I01
sS'polar'
p26
NsS'irrational'
p27
NsS'antihermitian'
p28
NsS'composite'
p29
NsS'extended_nonnegative'
p30
NsS'even'
p31
NsS'algebraic'
p32
NsS'hermitian'
p33
I01
sS'infinite'
p34
I00
sS'integer'
p35
NsS'imaginary'
p36
I00
sS'odd'
p37
NsS'nonzero'
p38
I01
sS'extended_real'
p39
I01
sS'commutative'
p40
I01
sS'zero'
p41
I00
sS'extended_nonzero'
p42
I01
sS'positive'
p43
NsS'negative'
p44
NsS'extended_negative'
p45
NsS'nonnegative'
p46
NsS'prime'
p47
NsS'complex'
p48
I01
sS'rational'
p49
NsS'extended_positive'
p50
NsS'finite'
p51
I01
sS'extended_nonpositive'
p52
Nstp53
Rp54
(dp55
S'rules'
p56
g21
(csympy.core.facts
FactRules
p57
c__builtin__
object
p58
Ntp59
Rp60
(dp61
S'beta_rules'
p62
(lp63
(c__builtin__
set
p64
((lp65
(S'algebraic'
p66
I00
tp67
a(S'complex'
p68
I01
tp69
atp70
Rp71
(S'transcendental'
p72
I01
tp73
tp74
a(g64
((lp75
(g31
I00
tp76
a(S'integer'
p77
I01
tp78
atp79
Rp80
(S'odd'
p81
I01
tp82
tp83
a(g64
((lp84
(S'integer'
p85
I01
tp86
a(g37
I00
tp87
atp88
Rp89
(S'even'
p90
I01
tp91
tp92
a(g64
((lp93
(S'infinite'
p94
I00
tp95
a(S'real'
p96
I00
tp97
atp98
Rp99
(S'extended_real'
p100
I00
tp101
tp102
a(g64
((lp103
(g100
I01
tp104
a(g96
I00
tp105
atp106
Rp107
(g94
I01
tp108
tp109
a(g64
((lp110
(g100
I01
tp111
a(g94
I00
tp112
atp113
Rp114
(g96
I01
tp115
tp116
a(g64
((lp117
(S'extended_real'
p118
I01
tp119
a(S'finite'
p120
I01
tp121
atp122
Rp123
(S'real'
p124
I01
tp125
tp126
a(g64
((lp127
(S'zero'
p128
I00
tp129
a(S'extended_negative'
p130
I00
tp131
a(g50
I00
tp132
atp133
Rp134
(S'extended_real'
p135
I00
tp136
tp137
a(g64
((lp138
(g128
I00
tp139
a(g135
I01
tp140
a(g50
I00
tp141
atp142
Rp143
(g130
I01
tp144
tp145
a(g64
((lp146
(g50
I00
tp147
a(g135
I01
tp148
a(g130
I00
tp149
atp150
Rp151
(g128
I01
tp152
tp153
a(g64
((lp154
(g128
I00
tp155
a(g135
I01
tp156
a(g130
I00
tp157
atp158
Rp159
(g50
I01
tp160
tp161
a(g64
((lp162
(S'extended_nonzero'
p163
I01
tp164
a(S'extended_nonpositive'
p165
I01
tp166
atp167
Rp168
(S'extended_negative'
p169
I01
tp170
tp171
a(g64
((lp172
(S'extended_nonzero'
p173
I01
tp174
a(g30
I01
tp175
atp176
Rp177
(S'extended_positive'
p178
I01
tp179
tp180
a(g64
((lp181
(S'extended_positive'
p182
I00
tp183
a(S'extended_real'
p184
I01
tp185
atp186
Rp187
(S'extended_nonpositive'
p188
I01
tp189
tp190
a(g64
((lp191
(S'extended_real'
p192
I01
tp193
a(S'extended_negative'
p194
I00
tp195
atp196
Rp197
(S'extended_nonnegative'
p198
I01
tp199
tp200
a(g64
((lp201
(S'zero'
p202
I00
tp203
a(S'positive'
p204
I00
tp205
a(S'negative'
p206
I00
tp207
atp208
Rp209
(S'real'
p210
I00
tp211
tp212
a(g64
((lp213
(g210
I01
tp214
a(g202
I00
tp215
a(g204
I00
tp216
atp217
Rp218
(g206
I01
tp219
tp220
a(g64
((lp221
(g210
I01
tp222
a(g204
I00
tp223
a(g206
I00
tp224
atp225
Rp226
(g202
I01
tp227
tp228
a(g64
((lp229
(g210
I01
tp230
a(g202
I00
tp231
a(g206
I00
tp232
atp233
Rp234
(g204
I01
tp235
tp236
a(g64
((lp237
(S'nonzero'
p238
I01
tp239
a(S'nonpositive'
p240
I01
tp241
atp242
Rp243
(g44
I01
tp244
tp245
a(g64
((lp246
(S'nonzero'
p247
I01
tp248
a(g46
I01
tp249
atp250
Rp251
(S'positive'
p252
I01
tp253
tp254
a(g64
((lp255
(S'real'
p256
I01
tp257
a(S'positive'
p258
I00
tp259
atp260
Rp261
(S'nonpositive'
p262
I01
tp263
tp264
a(g64
((lp265
(S'real'
p266
I01
tp267
a(S'negative'
p268
I00
tp269
atp270
Rp271
(S'nonnegative'
p272
I01
tp273
tp274
a(g64
((lp275
(S'finite'
p276
I01
tp277
a(S'extended_positive'
p278
I01
tp279
atp280
Rp281
(g43
I01
tp282
tp283
a(g64
((lp284
(g45
I01
tp285
a(S'finite'
p286
I01
tp287
atp288
Rp289
(S'negative'
p290
I01
tp291
tp292
a(g64
((lp293
(S'finite'
p294
I01
tp295
a(g52
I01
tp296
atp297
Rp298
(S'nonpositive'
p299
I01
tp300
tp301
a(g64
((lp302
(S'finite'
p303
I01
tp304
a(S'extended_nonnegative'
p305
I01
tp306
atp307
Rp308
(S'nonnegative'
p309
I01
tp310
tp311
a(g64
((lp312
(g51
I01
tp313
a(g42
I01
tp314
atp315
Rp316
(S'nonzero'
p317
I01
tp318
tp319
a(g64
((lp320
(S'extended_nonnegative'
p321
I01
tp322
a(S'extended_nonpositive'
p323
I01
tp324
atp325
Rp326
(S'zero'
p327
I01
tp328
tp329
a(g64
((lp330
(S'nonpositive'
p331
I01
tp332
a(S'nonnegative'
p333
I01
tp334
atp335
Rp336
(S'zero'
p337
I01
tp338
tp339
a(g64
((lp340
(S'even'
p341
I01
tp342
a(g47
I00
tp343
a(S'positive'
p344
I01
tp345
atp346
Rp347
(S'composite'
p348
I01
tp349
tp350
a(g64
((lp351
(g341
I01
tp352
a(g348
I00
tp353
a(g344
I01
tp354
atp355
Rp356
(g47
I01
tp357
tp358
a(g64
((lp359
(g348
I00
tp360
a(g47
I00
tp361
a(g344
I01
tp362
atp363
Rp364
(g341
I00
tp365
tp366
a(g64
((lp367
(g341
I01
tp368
a(g348
I00
tp369
a(g47
I00
tp370
atp371
Rp372
(g344
I00
tp373
tp374
a(g64
((lp375
(S'real'
p376
I01
tp377
a(g49
I00
tp378
atp379
Rp380
(g27
I01
tp381
tp382
a(g64
((lp383
(S'integer'
p384
I00
tp385
a(S'extended_real'
p386
I01
tp387
atp388
Rp389
(S'noninteger'
p390
I01
tp391
tp392
a(g64
((lp393
(S'zero'
p394
I00
tp395
a(S'extended_real'
p396
I01
tp397
atp398
Rp399
(S'extended_nonzero'
p400
I01
tp401
tp402
asS'defined_facts'
p403
g64
((lp404
g331
ag33
ag37
ag31
ag40
ag43
ag390
ag44
ag45
aS'complex'
p405
ag49
aS'finite'
p406
ag30
aS'real'
p407
ag317
ag27
ag28
ag29
ag52
ag42
ag94
ag35
aS'imaginary'
p408
ag47
ag39
ag32
ag337
ag46
ag50
ag72
atp409
Rp410
sS'full_implications'
p411
ccollections
defaultdict
p412
(g64
tp413
Rp414
(g31
I01
tp415
g64
((lp416
(S'real'
p417
I01
tp418
a(g34
I00
tp419
a(g36
I00
tp420
a(g39
I01
tp421
a(g32
I01
tp422
a(g390
I00
tp423
a(S'finite'
p424
I01
tp425
a(g85
I01
tp426
a(g27
I00
tp427
a(g81
I00
tp428
a(g40
I01
tp429
a(g49
I01
tp430
a(g48
I01
tp431
a(g72
I00
tp432
a(g33
I01
tp433
atp434
Rp435
s(g33
I00
tp436
g64
((lp437
(g41
I00
tp438
a(S'positive'
p439
I00
tp440
a(S'prime'
p441
I00
tp442
a(g331
I00
tp443
a(g29
I00
tp444
a(g309
I00
tp445
a(S'nonzero'
p446
I00
tp447
a(g35
I00
tp448
a(g417
I00
tp449
a(g90
I00
tp450
a(g27
I00
tp451
a(g81
I00
tp452
a(g49
I00
tp453
a(g44
I00
tp454
atp455
Rp456
s(g25
I00
tp457
g64
((lp458
(g202
I00
tp459
a(g204
I00
tp460
a(g446
I00
tp461
a(g262
I00
tp462
a(g29
I00
tp463
a(g272
I00
tp464
a(g35
I00
tp465
a(g441
I00
tp466
a(g90
I00
tp467
a(g27
I00
tp468
a(g81
I00
tp469
a(S'rational'
p470
I00
tp471
a(g206
I00
tp472
atp473
Rp474
s(g321
I01
tp475
g64
((lp476
(g36
I00
tp477
a(g192
I01
tp478
a(g194
I00
tp479
a(g44
I00
tp480
a(g40
I01
tp481
atp482
Rp483
s(g44
I01
tp484
g64
((lp485
(g210
I01
tp486
a(g238
I01
tp487
a(g439
I00
tp488
a(g441
I00
tp489
a(g34
I00
tp490
a(g240
I01
tp491
a(g39
I01
tp492
a(g50
I00
tp493
a(g29
I00
tp494
a(g272
I00
tp495
a(g400
I01
tp496
a(g36
I00
tp497
a(g45
I01
tp498
a(g286
I01
tp499
a(g41
I00
tp500
a(g52
I01
tp501
a(g40
I01
tp502
a(g305
I00
tp503
a(g48
I01
tp504
a(g33
I01
tp505
atp506
Rp507
s(g408
I00
tp508
g64
((lp509
tp510
Rp511
s(g46
I00
tp512
g64
((lp513
(g441
I00
tp514
a(g252
I00
tp515
a(g29
I00
tp516
a(g337
I00
tp517
atp518
Rp519
s(g32
I01
tp520
g64
((lp521
(g40
I01
tp522
a(g34
I00
tp523
a(g48
I01
tp524
a(g72
I00
tp525
a(g424
I01
tp526
atp527
Rp528
s(g238
I00
tp529
g64
((lp530
(g252
I00
tp531
a(g441
I00
tp532
a(g44
I00
tp533
a(g29
I00
tp534
atp535
Rp536
s(g81
I01
tp537
g64
((lp538
(g417
I01
tp539
a(g41
I00
tp540
a(g34
I00
tp541
a(g36
I00
tp542
a(g39
I01
tp543
a(g31
I00
tp544
a(g32
I01
tp545
a(g317
I01
tp546
a(g400
I01
tp547
a(g390
I00
tp548
a(g424
I01
tp549
a(g77
I01
tp550
a(g27
I00
tp551
a(g40
I01
tp552
a(g49
I01
tp553
a(g48
I01
tp554
a(g72
I00
tp555
a(g33
I01
tp556
atp557
Rp558
s(g52
I01
tp559
g64
((lp560
(g439
I00
tp561
a(g29
I00
tp562
a(g182
I00
tp563
a(g184
I01
tp564
a(g441
I00
tp565
a(g36
I00
tp566
a(g40
I01
tp567
atp568
Rp569
s(g49
I01
tp570
g64
((lp571
(S'real'
p572
I01
tp573
a(g34
I00
tp574
a(g36
I00
tp575
a(g39
I01
tp576
a(S'algebraic'
p577
I01
tp578
a(g424
I01
tp579
a(g27
I00
tp580
a(g40
I01
tp581
a(g48
I01
tp582
a(g72
I00
tp583
a(g33
I01
tp584
atp585
Rp586
s(S'complex'
p587
I01
tp588
g64
((lp589
(g40
I01
tp590
a(g34
I00
tp591
a(g424
I01
tp592
atp593
Rp594
s(g72
I01
tp595
g64
((lp596
(g41
I00
tp597
a(g34
I00
tp598
a(g66
I00
tp599
a(g29
I00
tp600
a(g90
I00
tp601
a(g35
I00
tp602
a(g441
I00
tp603
a(g81
I00
tp604
a(g40
I01
tp605
a(g68
I01
tp606
a(g49
I00
tp607
a(g424
I01
tp608
atp609
Rp610
s(g337
I01
tp611
g64
((lp612
(S'even'
p613
I01
tp614
a(g321
I01
tp615
a(g36
I00
tp616
a(g32
I01
tp617
a(g323
I01
tp618
a(g49
I01
tp619
a(g48
I01
tp620
a(g44
I00
tp621
a(g210
I01
tp622
a(g441
I00
tp623
a(g50
I00
tp624
a(g400
I00
tp625
a(g33
I01
tp626
a(g40
I01
tp627
a(g169
I00
tp628
a(g439
I00
tp629
a(g29
I00
tp630
a(g331
I01
tp631
a(g135
I01
tp632
a(S'finite'
p633
I01
tp634
a(g77
I01
tp635
a(g34
I00
tp636
a(g446
I00
tp637
a(g333
I01
tp638
a(g390
I00
tp639
a(g27
I00
tp640
a(g81
I00
tp641
a(g72
I00
tp642
atp643
Rp644
s(g407
I01
tp645
g64
((lp646
(S'complex'
p647
I01
tp648
a(g36
I00
tp649
a(g118
I01
tp650
a(g120
I01
tp651
a(g40
I01
tp652
a(g34
I00
tp653
a(g33
I01
tp654
atp655
Rp656
s(g47
I00
tp657
g64
((lp658
tp659
Rp660
s(g28
I00
tp661
g64
((lp662
(g408
I00
tp663
atp664
Rp665
s(g43
I01
tp666
g64
((lp667
(g210
I01
tp668
a(g41
I00
tp669
a(g34
I00
tp670
a(g262
I00
tp671
a(g278
I01
tp672
a(g36
I00
tp673
a(g39
I01
tp674
a(g400
I01
tp675
a(g247
I01
tp676
a(g46
I01
tp677
a(g276
I01
tp678
a(g44
I00
tp679
a(g321
I01
tp680
a(g40
I01
tp681
a(g52
I00
tp682
a(g48
I01
tp683
a(g33
I01
tp684
a(g169
I00
tp685
atp686
Rp687
s(g408
I01
tp688
g64
((lp689
(g41
I00
tp690
a(g25
I00
tp691
a(g309
I00
tp692
a(g446
I00
tp693
a(g405
I01
tp694
a(g44
I00
tp695
a(g441
I00
tp696
a(g50
I00
tp697
a(g28
I01
tp698
a(g169
I00
tp699
a(g40
I01
tp700
a(g439
I00
tp701
a(g29
I00
tp702
a(g424
I01
tp703
a(g52
I00
tp704
a(g34
I00
tp705
a(g90
I00
tp706
a(g331
I00
tp707
a(g39
I00
tp708
a(g49
I00
tp709
a(g390
I00
tp710
a(g35
I00
tp711
a(g27
I00
tp712
a(g81
I00
tp713
a(g305
I00
tp714
a(g42
I00
tp715
atp716
Rp717
s(g50
I00
tp718
g64
((lp719
(g441
I00
tp720
a(g43
I00
tp721
a(g29
I00
tp722
atp723
Rp724
s(g42
I00
tp725
g64
((lp726
(g439
I00
tp727
a(g317
I00
tp728
a(g178
I00
tp729
a(g29
I00
tp730
a(g441
I00
tp731
a(g169
I00
tp732
a(g44
I00
tp733
atp734
Rp735
s(g33
I01
tp736
g64
((lp737
tp738
Rp739
s(g317
I01
tp740
g64
((lp741
(g25
I01
tp742
a(g41
I00
tp743
a(g34
I00
tp744
a(g36
I00
tp745
a(g39
I01
tp746
a(g42
I01
tp747
a(g51
I01
tp748
a(g40
I01
tp749
a(g48
I01
tp750
a(g33
I01
tp751
atp752
Rp753
s(g128
I00
tp754
g64
((lp755
tp756
Rp757
s(g206
I00
tp758
g64
((lp759
tp760
Rp761
s(g405
I00
tp762
g64
((lp763
(g41
I00
tp764
a(g439
I00
tp765
a(g441
I00
tp766
a(g331
I00
tp767
a(S'imaginary'
p768
I00
tp769
a(g32
I00
tp770
a(g29
I00
tp771
a(g309
I00
tp772
a(g49
I00
tp773
a(g446
I00
tp774
a(g35
I00
tp775
a(g407
I00
tp776
a(g90
I00
tp777
a(g27
I00
tp778
a(g81
I00
tp779
a(g72
I00
tp780
a(g44
I00
tp781
atp782
Rp783
s(g40
I01
tp784
g64
((lp785
tp786
Rp787
s(g45
I00
tp788
g64
((lp789
(g290
I00
tp790
atp791
Rp792
s(S'prime'
p793
I01
tp794
g64
((lp795
(g317
I01
tp796
a(g41
I00
tp797
a(g36
I00
tp798
a(g400
I01
tp799
a(g321
I01
tp800
a(g49
I01
tp801
a(g48
I01
tp802
a(g44
I00
tp803
a(g417
I01
tp804
a(g439
I01
tp805
a(g169
I00
tp806
a(g40
I01
tp807
a(g39
I01
tp808
a(g178
I01
tp809
a(g33
I01
tp810
a(g29
I00
tp811
a(g32
I01
tp812
a(S'integer'
p813
I01
tp814
a(g34
I00
tp815
a(g424
I01
tp816
a(g331
I00
tp817
a(g333
I01
tp818
a(g390
I00
tp819
a(g27
I00
tp820
a(g52
I00
tp821
a(g72
I00
tp822
atp823
Rp824
s(g577
I00
tp825
g64
((lp826
(g41
I00
tp827
a(g441
I00
tp828
a(g29
I00
tp829
a(g35
I00
tp830
a(g90
I00
tp831
a(g81
I00
tp832
a(S'rational'
p833
I00
tp834
atp835
Rp836
s(S'positive'
p837
I00
tp838
g64
((lp839
(g29
I00
tp840
a(g441
I00
tp841
atp842
Rp843
s(g39
I01
tp844
g64
((lp845
(g36
I00
tp846
a(S'commutative'
p847
I01
tp848
atp849
Rp850
s(g178
I01
tp851
g64
((lp852
(g41
I00
tp853
a(g331
I00
tp854
a(g36
I00
tp855
a(g135
I01
tp856
a(g173
I01
tp857
a(g169
I00
tp858
a(g30
I01
tp859
a(g40
I01
tp860
a(g188
I00
tp861
a(g44
I00
tp862
atp863
Rp864
s(g240
I01
tp865
g64
((lp866
(g256
I01
tp867
a(g258
I00
tp868
a(g34
I00
tp869
a(g39
I01
tp870
a(g50
I00
tp871
a(g29
I00
tp872
a(g441
I00
tp873
a(g52
I01
tp874
a(g36
I00
tp875
a(g40
I01
tp876
a(g48
I01
tp877
a(g33
I01
tp878
a(g294
I01
tp879
atp880
Rp881
s(g633
I00
tp882
g64
((lp883
(g41
I00
tp884
a(g43
I00
tp885
a(g441
I00
tp886
a(g299
I00
tp887
a(g36
I00
tp888
a(g66
I00
tp889
a(g29
I00
tp890
a(g309
I00
tp891
a(g72
I00
tp892
a(g124
I00
tp893
a(g35
I00
tp894
a(g317
I00
tp895
a(g90
I00
tp896
a(g27
I00
tp897
a(g81
I00
tp898
a(g587
I00
tp899
a(g49
I00
tp900
a(g290
I00
tp901
atp902
Rp903
s(g348
I00
tp904
g64
((lp905
tp906
Rp907
s(g400
I01
tp908
g64
((lp909
(g40
I01
tp910
a(g396
I01
tp911
a(g394
I00
tp912
a(g36
I00
tp913
atp914
Rp915
s(g45
I01
tp916
g64
((lp917
(g41
I00
tp918
a(g439
I00
tp919
a(g135
I01
tp920
a(g40
I01
tp921
a(g36
I00
tp922
a(g29
I00
tp923
a(g309
I00
tp924
a(g163
I01
tp925
a(g441
I00
tp926
a(g165
I01
tp927
a(g50
I00
tp928
a(g198
I00
tp929
atp930
Rp931
s(g613
I00
tp932
g64
((lp933
(g41
I00
tp934
atp935
Rp936
s(g77
I01
tp937
g64
((lp938
(g417
I01
tp939
a(g34
I00
tp940
a(g36
I00
tp941
a(g39
I01
tp942
a(g32
I01
tp943
a(g390
I00
tp944
a(g424
I01
tp945
a(g27
I00
tp946
a(g40
I01
tp947
a(S'rational'
p948
I01
tp949
a(g48
I01
tp950
a(g72
I00
tp951
a(g33
I01
tp952
atp953
Rp954
s(g40
I00
tp955
g64
((lp956
(g41
I00
tp957
a(g25
I00
tp958
a(g36
I00
tp959
a(g309
I00
tp960
a(g44
I00
tp961
a(g441
I00
tp962
a(g50
I00
tp963
a(g66
I00
tp964
a(g42
I00
tp965
a(g169
I00
tp966
a(S'complex'
p967
I00
tp968
a(g439
I00
tp969
a(g29
I00
tp970
a(g446
I00
tp971
a(g305
I00
tp972
a(g90
I00
tp973
a(g331
I00
tp974
a(S'extended_real'
p975
I00
tp976
a(g49
I00
tp977
a(g390
I00
tp978
a(g35
I00
tp979
a(g27
I00
tp980
a(g81
I00
tp981
a(g52
I00
tp982
a(g72
I00
tp983
atp984
Rp985
s(g30
I00
tp986
g64
((lp987
(g327
I00
tp988
a(g439
I00
tp989
a(g441
I00
tp990
a(g178
I00
tp991
a(g29
I00
tp992
a(g309
I00
tp993
atp994
Rp995
s(g27
I01
tp996
g64
((lp997
(g376
I01
tp998
a(g41
I00
tp999
a(g39
I01
tp1000
a(g441
I00
tp1001
a(g34
I00
tp1002
a(g36
I00
tp1003
a(g29
I00
tp1004
a(g90
I00
tp1005
a(g400
I01
tp1006
a(g317
I01
tp1007
a(g35
I00
tp1008
a(g390
I01
tp1009
a(g81
I00
tp1010
a(g40
I01
tp1011
a(g48
I01
tp1012
a(g49
I00
tp1013
a(g33
I01
tp1014
a(g424
I01
tp1015
atp1016
Rp1017
s(g94
I00
tp1018
g64
((lp1019
tp1020
Rp1021
s(g26
I01
tp1022
g64
((lp1023
tp1024
Rp1025
s(g406
I01
tp1026
g64
((lp1027
(g34
I00
tp1028
atp1029
Rp1030
s(g331
I00
tp1031
g64
((lp1032
(g337
I00
tp1033
a(g44
I00
tp1034
atp1035
Rp1036
s(g72
I00
tp1037
g64
((lp1038
tp1039
Rp1040
s(g29
I01
tp1041
g64
((lp1042
(g317
I01
tp1043
a(g41
I00
tp1044
a(g36
I00
tp1045
a(g32
I01
tp1046
a(g321
I01
tp1047
a(g49
I01
tp1048
a(g48
I01
tp1049
a(g44
I00
tp1050
a(g417
I01
tp1051
a(g793
I00
tp1052
a(g837
I01
tp1053
a(g169
I00
tp1054
a(g40
I01
tp1055
a(g178
I01
tp1056
a(g33
I01
tp1057
a(g39
I01
tp1058
a(g400
I01
tp1059
a(g35
I01
tp1060
a(g34
I00
tp1061
a(g424
I01
tp1062
a(g331
I00
tp1063
a(g333
I01
tp1064
a(g390
I00
tp1065
a(g27
I00
tp1066
a(g52
I00
tp1067
a(g72
I00
tp1068
atp1069
Rp1070
s(g333
I01
tp1071
g64
((lp1072
(g266
I01
tp1073
a(g34
I00
tp1074
a(g36
I00
tp1075
a(g39
I01
tp1076
a(g268
I00
tp1077
a(g303
I01
tp1078
a(g169
I00
tp1079
a(g305
I01
tp1080
a(g40
I01
tp1081
a(g48
I01
tp1082
a(g33
I01
tp1083
atp1084
Rp1085
s(g390
I00
tp1086
g64
((lp1087
tp1088
Rp1089
s(g184
I00
tp1090
g64
((lp1091
(g128
I00
tp1092
a(g439
I00
tp1093
a(g441
I00
tp1094
a(g331
I00
tp1095
a(g124
I00
tp1096
a(g50
I00
tp1097
a(g400
I00
tp1098
a(g29
I00
tp1099
a(g309
I00
tp1100
a(g390
I00
tp1101
a(g35
I00
tp1102
a(g446
I00
tp1103
a(g90
I00
tp1104
a(g130
I00
tp1105
a(g27
I00
tp1106
a(g81
I00
tp1107
a(g198
I00
tp1108
a(g49
I00
tp1109
a(g44
I00
tp1110
a(g188
I00
tp1111
atp1112
Rp1113
s(g35
I00
tp1114
g64
((lp1115
(g41
I00
tp1116
a(g29
I00
tp1117
a(g441
I00
tp1118
a(g90
I00
tp1119
a(g81
I00
tp1120
atp1121
Rp1122
s(g390
I01
tp1123
g64
((lp1124
(g41
I00
tp1125
a(g386
I01
tp1126
a(g36
I00
tp1127
a(g29
I00
tp1128
a(g90
I00
tp1129
a(g400
I01
tp1130
a(g384
I00
tp1131
a(g441
I00
tp1132
a(g81
I00
tp1133
a(g40
I01
tp1134
atp1135
Rp1136
s(g37
I00
tp1137
g64
((lp1138
tp1139
Rp1140
s(g34
I01
tp1141
g64
((lp1142
(g406
I00
tp1143
a(g41
I00
tp1144
a(g439
I00
tp1145
a(g441
I00
tp1146
a(g331
I00
tp1147
a(g36
I00
tp1148
a(g66
I00
tp1149
a(g29
I00
tp1150
a(g309
I00
tp1151
a(g49
I00
tp1152
a(g446
I00
tp1153
a(g35
I00
tp1154
a(g25
I00
tp1155
a(g90
I00
tp1156
a(g27
I00
tp1157
a(g81
I00
tp1158
a(g405
I00
tp1159
a(g72
I00
tp1160
a(g44
I00
tp1161
atp1162
Rp1163
s(g52
I00
tp1164
g64
((lp1165
(g327
I00
tp1166
a(g299
I00
tp1167
a(g169
I00
tp1168
a(g44
I00
tp1169
atp1170
Rp1171
s(g49
I00
tp1172
g64
((lp1173
(g41
I00
tp1174
a(g90
I00
tp1175
a(g29
I00
tp1176
a(S'integer'
p1177
I00
tp1178
a(g441
I00
tp1179
a(g81
I00
tp1180
atp1181
Rp1182
ssS'prereq'
p1183
g412
(g64
tp1184
Rp1185
g331
g64
((lp1186
g25
ag793
ag184
ag40
ag29
ag43
ag52
ag44
ag337
ag405
ag34
ag178
ag33
ag633
ag408
atp1187
Rp1188
sg41
g64
((lp1189
g25
ag613
ag72
ag331
ag29
ag52
ag577
ag33
ag34
ag35
ag408
ag81
ag27
ag317
ag184
ag40
ag400
ag43
ag390
ag44
ag45
ag46
ag793
ag405
ag49
ag178
ag633
ag30
atp1190
Rp1191
sg81
g64
((lp1192
g25
ag72
ag577
ag337
ag34
ag35
ag408
ag27
ag31
ag184
ag40
ag390
ag33
ag405
ag49
ag633
atp1193
Rp1194
sg27
g64
((lp1195
g31
ag25
ag184
ag40
ag29
ag793
ag33
ag337
ag405
ag49
ag34
ag77
ag408
ag633
ag81
atp1196
Rp1197
sg446
g64
((lp1198
g25
ag27
ag29
ag42
ag337
ag34
ag33
ag81
ag408
ag793
ag184
ag40
ag43
ag44
ag405
ag633
atp1199
Rp1200
sg26
g64
((lp1201
tp1202
Rp1203
sg40
g64
((lp1204
g407
ag317
ag27
ag240
ag29
ag52
ag400
ag337
ag77
ag408
ag333
ag81
ag31
ag39
ag32
ag43
ag390
ag44
ag45
ag49
ag793
ag587
ag72
ag178
ag321
atp1205
Rp1206
sg439
g64
((lp1207
g25
ag793
ag240
ag29
ag52
ag42
ag337
ag34
ag33
ag408
ag238
ag184
ag40
ag44
ag45
ag46
ag405
ag50
ag633
ag30
atp1208
Rp1209
sg390
g64
((lp1210
g31
ag793
ag184
ag40
ag29
ag337
ag77
ag408
ag81
ag27
atp1211
Rp1212
sg44
g64
((lp1213
g25
ag793
ag331
ag29
ag321
ag42
ag337
ag34
ag408
ag238
ag184
ag40
ag43
ag33
ag45
ag333
ag405
ag178
ag633
ag52
atp1214
Rp1215
sg194
g64
((lp1216
g793
ag184
ag40
ag29
ag43
ag321
ag44
ag333
ag42
ag337
ag178
ag408
ag52
atp1217
Rp1218
sg48
g64
((lp1219
g407
ag793
ag27
ag240
ag29
ag32
ag337
ag317
ag34
ag77
ag408
ag81
ag40
ag31
ag72
ag43
ag44
ag333
ag49
ag633
atp1220
Rp1221
sg49
g64
((lp1222
g25
ag793
ag27
ag29
ag577
ag337
ag34
ag77
ag408
ag81
ag31
ag184
ag40
ag33
ag405
ag72
ag633
atp1223
Rp1224
sg424
g64
((lp1225
g407
ag793
ag49
ag240
ag29
ag32
ag337
ag34
ag77
ag408
ag81
ag27
ag31
ag43
ag44
ag333
ag587
ag72
ag317
atp1226
Rp1227
sg52
g64
((lp1228
g793
ag184
ag40
ag240
ag29
ag43
ag44
ag45
ag337
ag408
ag178
atp1229
Rp1230
sg417
g64
((lp1231
g317
ag27
ag240
ag29
ag337
ag34
ag77
ag33
ag81
ag408
ag31
ag184
ag40
ag43
ag44
ag333
ag793
ag405
ag49
ag633
atp1232
Rp1233
sg90
g64
((lp1234
g25
ag72
ag577
ag337
ag34
ag35
ag408
ag81
ag27
ag184
ag40
ag390
ag33
ag405
ag49
ag633
atp1235
Rp1236
sg72
g64
((lp1237
g31
ag793
ag40
ag29
ag32
ag337
ag405
ag49
ag34
ag77
ag633
ag81
atp1238
Rp1239
sg28
g64
((lp1240
g408
atp1241
Rp1242
sg29
g64
((lp1243
g25
ag793
ag33
ag72
ag240
ag30
ag577
ag337
ag34
ag35
ag408
ag27
ag238
ag184
ag40
ag42
ag837
ag390
ag44
ag45
ag46
ag405
ag49
ag50
ag633
ag52
atp1244
Rp1245
sg305
g64
((lp1246
g793
ag184
ag40
ag29
ag43
ag44
ag45
ag333
ag337
ag408
ag178
atp1247
Rp1248
sg32
g64
((lp1249
g31
ag793
ag72
ag29
ag337
ag405
ag49
ag34
ag77
ag633
ag81
ag40
atp1250
Rp1251
sg34
g64
((lp1252
g407
ag793
ag49
ag240
ag29
ag32
ag337
ag317
ag77
ag408
ag81
ag27
ag31
ag43
ag44
ag333
ag587
ag72
ag406
atp1253
Rp1254
sg85
g64
((lp1255
g25
ag793
ag72
ag29
ag577
ag337
ag34
ag408
ag81
ag27
ag31
ag184
ag40
ag390
ag33
ag405
ag49
ag633
atp1256
Rp1257
sg36
g64
((lp1258
g407
ag317
ag27
ag28
ag240
ag29
ag52
ag400
ag337
ag34
ag77
ag81
ag31
ag39
ag40
ag43
ag390
ag44
ag45
ag333
ag793
ag405
ag49
ag178
ag633
ag321
atp1259
Rp1260
sg441
g64
((lp1261
g25
ag33
ag72
ag240
ag29
ag30
ag577
ag337
ag34
ag35
ag408
ag27
ag238
ag184
ag40
ag42
ag837
ag390
ag44
ag45
ag46
ag405
ag49
ag50
ag633
ag52
atp1262
Rp1263
sg39
g64
((lp1264
g407
ag317
ag27
ag240
ag29
ag52
ag400
ag337
ag77
ag408
ag81
ag31
ag40
ag43
ag390
ag44
ag45
ag333
ag793
ag49
ag178
ag321
atp1265
Rp1266
sg400
g64
((lp1267
g317
ag793
ag184
ag40
ag29
ag43
ag390
ag44
ag45
ag337
ag408
ag81
ag178
ag27
atp1268
Rp1269
sg33
g64
((lp1270
g31
ag407
ag27
ag240
ag29
ag43
ag44
ag333
ag793
ag337
ag49
ag77
ag317
ag81
atp1271
Rp1272
sg309
g64
((lp1273
g25
ag793
ag184
ag40
ag29
ag43
ag30
ag44
ag45
ag337
ag405
ag34
ag33
ag633
ag408
atp1274
Rp1275
sg50
g64
((lp1276
g793
ag184
ag40
ag240
ag29
ag43
ag52
ag44
ag45
ag42
ag337
ag408
ag30
atp1277
Rp1278
ssS'beta_triggers'
p1279
g412
(g64
tp1280
Rp1281
(g31
I01
tp1282
(lp1283
I8
aI9
aI10
aI13
aI14
aI16
aI17
aI18
aI21
aI22
aI23
aI24
aI25
aI26
aI27
aI30
aI31
aI33
aI36
as(g33
I00
tp1284
(lp1285
I3
aI4
aI7
aI8
aI10
aI35
aI36
as(g25
I00
tp1286
(lp1287
I3
aI4
aI7
aI8
aI10
aI35
aI36
as(g321
I01
tp1288
(lp1289
I4
aI5
aI6
aI9
aI10
aI12
aI13
aI15
aI17
aI18
aI22
aI26
aI28
aI35
aI36
as(g44
I01
tp1290
(lp1291
I0
aI34
aI35
as(g408
I00
tp1292
g64
((lp1293
tp1294
Rp1295
s(g46
I00
tp1296
(lp1297
I7
aI8
aI10
aI15
aI16
aI21
aI36
as(g32
I01
tp1298
(lp1299
I3
aI5
aI6
aI23
aI24
aI25
aI26
aI27
as(g238
I00
tp1300
(lp1301
I15
aI17
aI21
aI22
as(g81
I01
tp1302
(lp1303
I8
aI10
aI11
aI12
aI13
aI14
aI16
aI18
aI19
aI20
aI21
aI22
aI23
aI24
aI25
aI26
as(g52
I01
tp1304
(lp1305
I4
aI5
aI6
aI8
aI9
aI11
aI14
aI15
aI16
aI17
aI21
aI25
aI28
aI35
aI36
as(g49
I01
tp1306
(lp1307
I8
aI9
aI10
aI13
aI14
aI16
aI17
aI18
aI21
aI22
aI23
aI24
aI25
aI26
aI27
aI35
aI36
as(g587
I01
tp1308
(lp1309
I0
aI3
aI5
aI6
aI23
aI24
aI25
aI26
aI27
as(g72
I01
tp1310
(lp1311
I3
aI5
aI6
aI7
aI8
aI10
aI15
aI16
aI18
aI23
aI24
aI25
aI26
aI27
aI34
aI35
aI36
as(g337
I01
tp1312
(lp1313
s(g407
I01
tp1314
(lp1315
I0
aI8
aI9
aI10
aI13
aI14
aI16
aI17
aI18
aI21
aI22
aI23
aI24
aI25
aI26
aI27
aI34
aI35
aI36
as(g47
I00
tp1316
(lp1317
I30
aI32
aI33
as(g28
I00
tp1318
(lp1319
s(g43
I01
tp1320
(lp1321
I0
aI30
aI31
aI32
aI34
aI35
as(g408
I01
tp1322
(lp1323
I0
as(g50
I00
tp1324
(lp1325
I7
aI8
aI9
aI13
aI15
aI16
aI17
aI21
as(g42
I00
tp1326
(lp1327
I7
aI9
aI13
aI14
aI15
aI17
aI21
aI22
as(g33
I01
tp1328
g64
((lp1329
tp1330
Rp1331
s(g317
I01
tp1332
(lp1333
I0
aI8
aI10
aI11
aI12
aI13
aI14
aI16
aI18
aI19
aI20
aI21
aI22
aI23
aI24
aI25
aI26
aI34
aI35
as(g128
I00
tp1334
(lp1335
I7
aI8
aI10
aI15
aI16
aI18
aI36
as(g206
I00
tp1336
(lp1337
I15
aI17
aI18
aI22
as(g405
I00
tp1338
(lp1339
I3
aI4
aI7
aI8
aI10
aI35
aI36
as(g40
I01
tp1340
g64
((lp1341
tp1342
Rp1343
s(g45
I00
tp1344
(lp1345
I7
aI9
aI10
aI14
aI15
aI17
aI18
aI22
as(g793
I01
tp1346
(lp1347
I1
aI2
as(g577
I00
tp1348
(lp1349
I0
aI7
aI8
aI10
aI15
aI16
aI18
aI34
aI35
aI36
as(g837
I00
tp1350
(lp1351
I15
aI16
aI17
aI21
as(g39
I01
tp1352
(lp1353
I4
aI5
aI6
aI8
aI9
aI10
aI13
aI14
aI35
aI36
as(g178
I01
tp1354
(lp1355
I4
aI5
aI6
aI15
aI18
aI22
aI23
aI26
aI27
aI35
as(g240
I01
tp1356
(lp1357
I0
aI8
aI9
aI11
aI14
aI16
aI17
aI19
aI22
aI24
aI26
aI27
aI28
aI29
aI34
aI35
aI36
as(g633
I00
tp1358
(lp1359
I3
aI4
aI7
aI8
aI10
aI35
aI36
as(g348
I00
tp1360
(lp1361
I31
aI32
aI33
as(g400
I01
tp1362
(lp1363
I4
aI5
aI6
aI8
aI10
aI11
aI12
aI13
aI14
aI15
aI16
aI18
aI27
aI35
as(g45
I01
tp1364
(lp1365
I4
aI5
aI6
aI15
aI16
aI21
aI24
aI25
aI27
aI35
as(g613
I00
tp1366
(lp1367
I1
aI7
aI8
aI10
aI15
aI16
aI18
aI36
as(g77
I01
tp1368
(lp1369
I1
aI2
aI8
aI9
aI10
aI13
aI14
aI16
aI17
aI18
aI21
aI22
aI23
aI24
aI25
aI26
aI27
aI36
as(g40
I00
tp1370
(lp1371
s(g30
I00
tp1372
(lp1373
I7
aI8
aI13
aI15
aI16
aI21
aI36
as(g27
I01
tp1374
(lp1375
I0
aI8
aI10
aI11
aI12
aI13
aI14
aI16
aI18
aI19
aI20
aI21
aI22
aI23
aI24
aI25
aI26
as(g94
I00
tp1376
(lp1377
I3
aI5
as(g26
I01
tp1378
g64
((lp1379
tp1380
Rp1381
s(g406
I01
tp1382
(lp1383
I3
aI5
aI6
aI23
aI24
aI25
aI26
aI27
as(g331
I00
tp1384
(lp1385
I7
aI8
aI10
aI15
aI18
aI22
aI36
as(g72
I00
tp1386
g64
((lp1387
tp1388
Rp1389
s(g29
I01
tp1390
(lp1391
I1
aI2
as(g333
I01
tp1392
(lp1393
I0
aI9
aI10
aI12
aI13
aI17
aI18
aI20
aI21
aI23
aI25
aI27
aI28
aI29
aI34
aI35
aI36
as(g390
I00
tp1394
g64
((lp1395
tp1396
Rp1397
s(g184
I00
tp1398
(lp1399
s(g35
I00
tp1400
(lp1401
I7
aI8
aI10
aI15
aI16
aI18
aI35
aI36
as(g390
I01
tp1402
(lp1403
I4
aI5
aI6
aI8
aI10
aI11
aI12
aI13
aI14
aI15
aI16
aI18
aI27
as(g37
I00
tp1404
(lp1405
I2
as(g34
I01
tp1406
(lp1407
I7
aI8
aI10
aI35
aI36
as(g52
I00
tp1408
(lp1409
I7
aI10
aI14
aI15
aI18
aI22
aI36
as(g49
I00
tp1410
(lp1411
I7
aI8
aI10
aI15
aI16
aI18
aI34
aI35
aI36
assbsS'_generator'
p1412
(dp1413
g38
I01
sS'finite'
p1414
I01
ssbsbcsympy.core.numbers
NegativeOne
p1415
(I-1
tp1416
Rp1417
(dp1418
btp1419
Rp1420
(dp1421
bg5
(g15
(S'\\gamma'
p1422
tp1423
Rp1424
(dp1425
g20
g21
(g22
g23
(dp1426
g25
I01
sg26
Nsg27
Nsg28
Nsg29
Nsg30
Nsg31
Nsg32
Nsg33
I01
sg34
I00
sg35
Nsg36
I00
sg37
Nsg38
I01
sg39
I01
sg40
I01
sg41
I00
sg42
I01
sg43
Nsg44
Nsg45
Nsg46
Nsg47
Nsg48
I01
sg49
Nsg50
Nsg51
I01
sg52
Nstp1427
Rp1428
(dp1429
g56
g60
sg1412
(dp1430
g38
I01
sg1414
I01
ssbsbg1417
tp1431
Rp1432
(dp1433
bcsympy.core.add
Add
p1434
(g13
g0
(g1
(I4
tp1435
Rp1436
(dp1437
bg5
(g18
g10
tp1438
Rp1439
(dp1440
btp1441
Rp1442
(dp1443
bg0
(g1436
g5
(g1424
g10
tp1444
Rp1445
(dp1446
btp1447
Rp1448
(dp1449
btp1450
Rp1451
(dp1452
btp1453
Rp1454
(dp1455
b.