csympy.core.mul
Mul
p0
(csympy.core.numbers
Rational
p1
(I-8
I3
tp2
Rp3
(dp4
bcsympy.core.power
Pow
p5
(csympy.core.numbers
Pi
p6
(tRp7
(dp8
bcsympy.core.numbers
Integer
p9
(I2
tp10
Rp11
(dp12
btp13
Rp14
(dp15
bg5
(csympy.core.symbol
Symbol
p16
(S'\\alpha'
p17
tp18
Rp19
(dp20
S'_assumptions'
p21
ccopy_reg
_reconstructor
p22
(csympy.core.assumptions
StdFactKB
p23
c__builtin__
dict
p24
(dp25
S'real'
p26
I01
sS'polar'
p27
NsS'irrational'
p28
NsS'antihermitian'
p29
NsS'composite'
p30
NsS'extended_nonnegative'
p31
NsS'even'
p32
NsS'algebraic'
p33
NsS'hermitian'
p34
I01
sS'infinite'
p35
I00
sS'integer'
p36
NsS'imaginary'
p37
I00
sS'odd'
p38
NsS'nonzero'
p39
I01
sS'extended_real'
p40
I01
sS'commutative'
p41
I01
sS'zero'
p42
I00
sS'extended_nonzero'
p43
I01
sS'positive'
p44
NsS'negative'
p45
NsS'extended_negative'
p46
NsS'nonnegative'
p47
NsS'prime'
p48
NsS'complex'
p49
I01
sS'rational'
p50
NsS'extended_positive'
p51
NsS'finite'
p52
I01
sS'extended_nonpositive'
p53
Nstp54
Rp55
(dp56
S'rules'
p57
g22
(csympy.core.facts
FactRules
p58
c__builtin__
object
p59
Ntp60
Rp61
(dp62
S'beta_rules'
p63
(lp64
(c__builtin__
set
p65
((lp66
(S'algebraic'
p67
I00
tp68
a(S'complex'
p69
I01
tp70
atp71
Rp72
(S'transcendental'
p73
I01
tp74
tp75
a(g65
((lp76
(g32
I00
tp77
a(S'integer'
p78
I01
tp79
atp80
Rp81
(S'odd'
p82
I01
tp83
tp84
a(g65
((lp85
(S'integer'
p86
I01
tp87
a(g38
I00
tp88
atp89
Rp90
(S'even'
p91
I01
tp92
tp93
a(g65
((lp94
(S'infinite'
p95
I00
tp96
a(S'real'
p97
I00
tp98
atp99
Rp100
(S'extended_real'
p101
I00
tp102
tp103
a(g65
((lp104
(g101
I01
tp105
a(g97
I00
tp106
atp107
Rp108
(g95
I01
tp109
tp110
a(g65
((lp111
(g101
I01
tp112
a(g95
I00
tp113
atp114
Rp115
(g97
I01
tp116
tp117
a(g65
((lp118
(S'extended_real'
p119
I01
tp120
a(S'finite'
p121
I01
tp122
atp123
Rp124
(S'real'
p125
I01
tp126
tp127
a(g65
((lp128
(S'zero'
p129
I00
tp130
a(S'extended_negative'
p131
I00
tp132
a(g51
I00
tp133
atp134
Rp135
(S'extended_real'
p136
I00
tp137
tp138
a(g65
((lp139
(g129
I00
tp140
a(g136
I01
tp141
a(g51
I00
tp142
atp143
Rp144
(g131
I01
tp145
tp146
a(g65
((lp147
(g51
I00
tp148
a(g136
I01
tp149
a(g131
I00
tp150
atp151
Rp152
(g129
I01
tp153
tp154
a(g65
((lp155
(g129
I00
tp156
a(g136
I01
tp157
a(g131
I00
tp158
atp159
Rp160
(g51
I01
tp161
tp162
a(g65
((lp163
(S'extended_nonzero'
p164
I01
tp165
a(S'extended_nonpositive'
p166
I01
tp167
atp168
Rp169
(S'extended_negative'
p170
I01
tp171
tp172
a(g65
((lp173
(S'extended_nonzero'
p174
I01
tp175
a(g31
I01
tp176
atp177
Rp178
(S'extended_positive'
p179
I01
tp180
tp181
a(g65
((lp182
(S'extended_positive'
p183
I00
tp184
a(S'extended_real'
p185
I01
tp186
atp187
Rp188
(S'extended_nonpositive'
p189
I01
tp190
tp191
a(g65
((lp192
(S'extended_real'
p193
I01
tp194
a(S'extended_negative'
p195
I00
tp196
atp197
Rp198
(S'extended_nonnegative'
p199
I01
tp200
tp201
a(g65
((lp202
(S'zero'
p203
I00
tp204
a(S'positive'
p205
I00
tp206
a(S'negative'
p207
I00
tp208
atp209
Rp210
(S'real'
p211
I00
tp212
tp213
a(g65
((lp214
(g211
I01
tp215
a(g203
I00
tp216
a(g205
I00
tp217
atp218
Rp219
(g207
I01
tp220
tp221
a(g65
((lp222
(g211
I01
tp223
a(g205
I00
tp224
a(g207
I00
tp225
atp226
Rp227
(g203
I01
tp228
tp229
a(g65
((lp230
(g211
I01
tp231
a(g203
I00
tp232
a(g207
I00
tp233
atp234
Rp235
(g205
I01
tp236
tp237
a(g65
((lp238
(S'nonzero'
p239
I01
tp240
a(S'nonpositive'
p241
I01
tp242
atp243
Rp244
(g45
I01
tp245
tp246
a(g65
((lp247
(S'nonzero'
p248
I01
tp249
a(g47
I01
tp250
atp251
Rp252
(S'positive'
p253
I01
tp254
tp255
a(g65
((lp256
(S'real'
p257
I01
tp258
a(S'positive'
p259
I00
tp260
atp261
Rp262
(S'nonpositive'
p263
I01
tp264
tp265
a(g65
((lp266
(S'real'
p267
I01
tp268
a(S'negative'
p269
I00
tp270
atp271
Rp272
(S'nonnegative'
p273
I01
tp274
tp275
a(g65
((lp276
(S'finite'
p277
I01
tp278
a(S'extended_positive'
p279
I01
tp280
atp281
Rp282
(g44
I01
tp283
tp284
a(g65
((lp285
(g46
I01
tp286
a(S'finite'
p287
I01
tp288
atp289
Rp290
(S'negative'
p291
I01
tp292
tp293
a(g65
((lp294
(S'finite'
p295
I01
tp296
a(g53
I01
tp297
atp298
Rp299
(S'nonpositive'
p300
I01
tp301
tp302
a(g65
((lp303
(S'finite'
p304
I01
tp305
a(S'extended_nonnegative'
p306
I01
tp307
atp308
Rp309
(S'nonnegative'
p310
I01
tp311
tp312
a(g65
((lp313
(g52
I01
tp314
a(g43
I01
tp315
atp316
Rp317
(S'nonzero'
p318
I01
tp319
tp320
a(g65
((lp321
(S'extended_nonnegative'
p322
I01
tp323
a(S'extended_nonpositive'
p324
I01
tp325
atp326
Rp327
(S'zero'
p328
I01
tp329
tp330
a(g65
((lp331
(S'nonpositive'
p332
I01
tp333
a(S'nonnegative'
p334
I01
tp335
atp336
Rp337
(S'zero'
p338
I01
tp339
tp340
a(g65
((lp341
(S'even'
p342
I01
tp343
a(g48
I00
tp344
a(S'positive'
p345
I01
tp346
atp347
Rp348
(S'composite'
p349
I01
tp350
tp351
a(g65
((lp352
(g342
I01
tp353
a(g349
I00
tp354
a(g345
I01
tp355
atp356
Rp357
(g48
I01
tp358
tp359
a(g65
((lp360
(g349
I00
tp361
a(g48
I00
tp362
a(g345
I01
tp363
atp364
Rp365
(g342
I00
tp366
tp367
a(g65
((lp368
(g342
I01
tp369
a(g349
I00
tp370
a(g48
I00
tp371
atp372
Rp373
(g345
I00
tp374
tp375
a(g65
((lp376
(S'real'
p377
I01
tp378
a(g50
I00
tp379
atp380
Rp381
(g28
I01
tp382
tp383
a(g65
((lp384
(S'integer'
p385
I00
tp386
a(S'extended_real'
p387
I01
tp388
atp389
Rp390
(S'noninteger'
p391
I01
tp392
tp393
a(g65
((lp394
(S'zero'
p395
I00
tp396
a(S'extended_real'
p397
I01
tp398
atp399
Rp400
(S'extended_nonzero'
p401
I01
tp402
tp403
asS'defined_facts'
p404
g65
((lp405
g332
ag34
ag38
ag32
ag41
ag44
ag391
ag45
ag46
aS'complex'
p406
ag50
aS'finite'
p407
ag31
aS'real'
p408
ag318
ag28
ag29
ag30
ag53
ag43
ag95
ag36
aS'imaginary'
p409
ag48
ag40
ag33
ag338
ag47
ag51
ag73
atp410
Rp411
sS'full_implications'
p412
ccollections
defaultdict
p413
(g65
tp414
Rp415
(g32
I01
tp416
g65
((lp417
(S'real'
p418
I01
tp419
a(g35
I00
tp420
a(g37
I00
tp421
a(g40
I01
tp422
a(g33
I01
tp423
a(g391
I00
tp424
a(S'finite'
p425
I01
tp426
a(g86
I01
tp427
a(g28
I00
tp428
a(g82
I00
tp429
a(g41
I01
tp430
a(g50
I01
tp431
a(g49
I01
tp432
a(g73
I00
tp433
a(g34
I01
tp434
atp435
Rp436
s(g34
I00
tp437
g65
((lp438
(g42
I00
tp439
a(S'positive'
p440
I00
tp441
a(S'prime'
p442
I00
tp443
a(g332
I00
tp444
a(g30
I00
tp445
a(g310
I00
tp446
a(S'nonzero'
p447
I00
tp448
a(g36
I00
tp449
a(g418
I00
tp450
a(g91
I00
tp451
a(g28
I00
tp452
a(g82
I00
tp453
a(g50
I00
tp454
a(g45
I00
tp455
atp456
Rp457
s(g26
I00
tp458
g65
((lp459
(g203
I00
tp460
a(g205
I00
tp461
a(g447
I00
tp462
a(g263
I00
tp463
a(g30
I00
tp464
a(g273
I00
tp465
a(g36
I00
tp466
a(g442
I00
tp467
a(g91
I00
tp468
a(g28
I00
tp469
a(g82
I00
tp470
a(S'rational'
p471
I00
tp472
a(g207
I00
tp473
atp474
Rp475
s(g322
I01
tp476
g65
((lp477
(g37
I00
tp478
a(g193
I01
tp479
a(g195
I00
tp480
a(g45
I00
tp481
a(g41
I01
tp482
atp483
Rp484
s(g45
I01
tp485
g65
((lp486
(g211
I01
tp487
a(g239
I01
tp488
a(g440
I00
tp489
a(g442
I00
tp490
a(g35
I00
tp491
a(g241
I01
tp492
a(g40
I01
tp493
a(g51
I00
tp494
a(g30
I00
tp495
a(g273
I00
tp496
a(g401
I01
tp497
a(g37
I00
tp498
a(g46
I01
tp499
a(g287
I01
tp500
a(g42
I00
tp501
a(g53
I01
tp502
a(g41
I01
tp503
a(g306
I00
tp504
a(g49
I01
tp505
a(g34
I01
tp506
atp507
Rp508
s(g409
I00
tp509
g65
((lp510
tp511
Rp512
s(g47
I00
tp513
g65
((lp514
(g442
I00
tp515
a(g253
I00
tp516
a(g30
I00
tp517
a(g338
I00
tp518
atp519
Rp520
s(g33
I01
tp521
g65
((lp522
(g41
I01
tp523
a(g35
I00
tp524
a(g49
I01
tp525
a(g73
I00
tp526
a(g425
I01
tp527
atp528
Rp529
s(g239
I00
tp530
g65
((lp531
(g253
I00
tp532
a(g442
I00
tp533
a(g45
I00
tp534
a(g30
I00
tp535
atp536
Rp537
s(g82
I01
tp538
g65
((lp539
(g418
I01
tp540
a(g42
I00
tp541
a(g35
I00
tp542
a(g37
I00
tp543
a(g40
I01
tp544
a(g32
I00
tp545
a(g33
I01
tp546
a(g318
I01
tp547
a(g401
I01
tp548
a(g391
I00
tp549
a(g425
I01
tp550
a(g78
I01
tp551
a(g28
I00
tp552
a(g41
I01
tp553
a(g50
I01
tp554
a(g49
I01
tp555
a(g73
I00
tp556
a(g34
I01
tp557
atp558
Rp559
s(g53
I01
tp560
g65
((lp561
(g440
I00
tp562
a(g30
I00
tp563
a(g183
I00
tp564
a(g185
I01
tp565
a(g442
I00
tp566
a(g37
I00
tp567
a(g41
I01
tp568
atp569
Rp570
s(g50
I01
tp571
g65
((lp572
(S'real'
p573
I01
tp574
a(g35
I00
tp575
a(g37
I00
tp576
a(g40
I01
tp577
a(S'algebraic'
p578
I01
tp579
a(g425
I01
tp580
a(g28
I00
tp581
a(g41
I01
tp582
a(g49
I01
tp583
a(g73
I00
tp584
a(g34
I01
tp585
atp586
Rp587
s(S'complex'
p588
I01
tp589
g65
((lp590
(g41
I01
tp591
a(g35
I00
tp592
a(g425
I01
tp593
atp594
Rp595
s(g73
I01
tp596
g65
((lp597
(g42
I00
tp598
a(g35
I00
tp599
a(g67
I00
tp600
a(g30
I00
tp601
a(g91
I00
tp602
a(g36
I00
tp603
a(g442
I00
tp604
a(g82
I00
tp605
a(g41
I01
tp606
a(g69
I01
tp607
a(g50
I00
tp608
a(g425
I01
tp609
atp610
Rp611
s(g338
I01
tp612
g65
((lp613
(S'even'
p614
I01
tp615
a(g322
I01
tp616
a(g37
I00
tp617
a(g33
I01
tp618
a(g324
I01
tp619
a(g50
I01
tp620
a(g49
I01
tp621
a(g45
I00
tp622
a(g211
I01
tp623
a(g442
I00
tp624
a(g51
I00
tp625
a(g401
I00
tp626
a(g34
I01
tp627
a(g41
I01
tp628
a(g170
I00
tp629
a(g440
I00
tp630
a(g30
I00
tp631
a(g332
I01
tp632
a(g136
I01
tp633
a(S'finite'
p634
I01
tp635
a(g78
I01
tp636
a(g35
I00
tp637
a(g447
I00
tp638
a(g334
I01
tp639
a(g391
I00
tp640
a(g28
I00
tp641
a(g82
I00
tp642
a(g73
I00
tp643
atp644
Rp645
s(g408
I01
tp646
g65
((lp647
(S'complex'
p648
I01
tp649
a(g37
I00
tp650
a(g119
I01
tp651
a(g121
I01
tp652
a(g41
I01
tp653
a(g35
I00
tp654
a(g34
I01
tp655
atp656
Rp657
s(g48
I00
tp658
g65
((lp659
tp660
Rp661
s(g29
I00
tp662
g65
((lp663
(g409
I00
tp664
atp665
Rp666
s(g44
I01
tp667
g65
((lp668
(g211
I01
tp669
a(g42
I00
tp670
a(g35
I00
tp671
a(g263
I00
tp672
a(g279
I01
tp673
a(g37
I00
tp674
a(g40
I01
tp675
a(g401
I01
tp676
a(g248
I01
tp677
a(g47
I01
tp678
a(g277
I01
tp679
a(g45
I00
tp680
a(g322
I01
tp681
a(g41
I01
tp682
a(g53
I00
tp683
a(g49
I01
tp684
a(g34
I01
tp685
a(g170
I00
tp686
atp687
Rp688
s(g409
I01
tp689
g65
((lp690
(g42
I00
tp691
a(g26
I00
tp692
a(g310
I00
tp693
a(g447
I00
tp694
a(g406
I01
tp695
a(g45
I00
tp696
a(g442
I00
tp697
a(g51
I00
tp698
a(g29
I01
tp699
a(g170
I00
tp700
a(g41
I01
tp701
a(g440
I00
tp702
a(g30
I00
tp703
a(g425
I01
tp704
a(g53
I00
tp705
a(g35
I00
tp706
a(g91
I00
tp707
a(g332
I00
tp708
a(g40
I00
tp709
a(g50
I00
tp710
a(g391
I00
tp711
a(g36
I00
tp712
a(g28
I00
tp713
a(g82
I00
tp714
a(g306
I00
tp715
a(g43
I00
tp716
atp717
Rp718
s(g51
I00
tp719
g65
((lp720
(g442
I00
tp721
a(g44
I00
tp722
a(g30
I00
tp723
atp724
Rp725
s(g43
I00
tp726
g65
((lp727
(g440
I00
tp728
a(g318
I00
tp729
a(g179
I00
tp730
a(g30
I00
tp731
a(g442
I00
tp732
a(g170
I00
tp733
a(g45
I00
tp734
atp735
Rp736
s(g34
I01
tp737
g65
((lp738
tp739
Rp740
s(g318
I01
tp741
g65
((lp742
(g26
I01
tp743
a(g42
I00
tp744
a(g35
I00
tp745
a(g37
I00
tp746
a(g40
I01
tp747
a(g43
I01
tp748
a(g52
I01
tp749
a(g41
I01
tp750
a(g49
I01
tp751
a(g34
I01
tp752
atp753
Rp754
s(g129
I00
tp755
g65
((lp756
tp757
Rp758
s(g207
I00
tp759
g65
((lp760
tp761
Rp762
s(g406
I00
tp763
g65
((lp764
(g42
I00
tp765
a(g440
I00
tp766
a(g442
I00
tp767
a(g332
I00
tp768
a(S'imaginary'
p769
I00
tp770
a(g33
I00
tp771
a(g30
I00
tp772
a(g310
I00
tp773
a(g50
I00
tp774
a(g447
I00
tp775
a(g36
I00
tp776
a(g408
I00
tp777
a(g91
I00
tp778
a(g28
I00
tp779
a(g82
I00
tp780
a(g73
I00
tp781
a(g45
I00
tp782
atp783
Rp784
s(g41
I01
tp785
g65
((lp786
tp787
Rp788
s(g46
I00
tp789
g65
((lp790
(g291
I00
tp791
atp792
Rp793
s(S'prime'
p794
I01
tp795
g65
((lp796
(g318
I01
tp797
a(g42
I00
tp798
a(g37
I00
tp799
a(g401
I01
tp800
a(g322
I01
tp801
a(g50
I01
tp802
a(g49
I01
tp803
a(g45
I00
tp804
a(g418
I01
tp805
a(g440
I01
tp806
a(g170
I00
tp807
a(g41
I01
tp808
a(g40
I01
tp809
a(g179
I01
tp810
a(g34
I01
tp811
a(g30
I00
tp812
a(g33
I01
tp813
a(S'integer'
p814
I01
tp815
a(g35
I00
tp816
a(g425
I01
tp817
a(g332
I00
tp818
a(g334
I01
tp819
a(g391
I00
tp820
a(g28
I00
tp821
a(g53
I00
tp822
a(g73
I00
tp823
atp824
Rp825
s(g578
I00
tp826
g65
((lp827
(g42
I00
tp828
a(g442
I00
tp829
a(g30
I00
tp830
a(g36
I00
tp831
a(g91
I00
tp832
a(g82
I00
tp833
a(S'rational'
p834
I00
tp835
atp836
Rp837
s(S'positive'
p838
I00
tp839
g65
((lp840
(g30
I00
tp841
a(g442
I00
tp842
atp843
Rp844
s(g40
I01
tp845
g65
((lp846
(g37
I00
tp847
a(S'commutative'
p848
I01
tp849
atp850
Rp851
s(g179
I01
tp852
g65
((lp853
(g42
I00
tp854
a(g332
I00
tp855
a(g37
I00
tp856
a(g136
I01
tp857
a(g174
I01
tp858
a(g170
I00
tp859
a(g31
I01
tp860
a(g41
I01
tp861
a(g189
I00
tp862
a(g45
I00
tp863
atp864
Rp865
s(g241
I01
tp866
g65
((lp867
(g257
I01
tp868
a(g259
I00
tp869
a(g35
I00
tp870
a(g40
I01
tp871
a(g51
I00
tp872
a(g30
I00
tp873
a(g442
I00
tp874
a(g53
I01
tp875
a(g37
I00
tp876
a(g41
I01
tp877
a(g49
I01
tp878
a(g34
I01
tp879
a(g295
I01
tp880
atp881
Rp882
s(g634
I00
tp883
g65
((lp884
(g42
I00
tp885
a(g44
I00
tp886
a(g442
I00
tp887
a(g300
I00
tp888
a(g37
I00
tp889
a(g67
I00
tp890
a(g30
I00
tp891
a(g310
I00
tp892
a(g73
I00
tp893
a(g125
I00
tp894
a(g36
I00
tp895
a(g318
I00
tp896
a(g91
I00
tp897
a(g28
I00
tp898
a(g82
I00
tp899
a(g588
I00
tp900
a(g50
I00
tp901
a(g291
I00
tp902
atp903
Rp904
s(g349
I00
tp905
g65
((lp906
tp907
Rp908
s(g401
I01
tp909
g65
((lp910
(g41
I01
tp911
a(g397
I01
tp912
a(g395
I00
tp913
a(g37
I00
tp914
atp915
Rp916
s(g46
I01
tp917
g65
((lp918
(g42
I00
tp919
a(g440
I00
tp920
a(g136
I01
tp921
a(g41
I01
tp922
a(g37
I00
tp923
a(g30
I00
tp924
a(g310
I00
tp925
a(g164
I01
tp926
a(g442
I00
tp927
a(g166
I01
tp928
a(g51
I00
tp929
a(g199
I00
tp930
atp931
Rp932
s(g614
I00
tp933
g65
((lp934
(g42
I00
tp935
atp936
Rp937
s(g78
I01
tp938
g65
((lp939
(g418
I01
tp940
a(g35
I00
tp941
a(g37
I00
tp942
a(g40
I01
tp943
a(g33
I01
tp944
a(g391
I00
tp945
a(g425
I01
tp946
a(g28
I00
tp947
a(g41
I01
tp948
a(S'rational'
p949
I01
tp950
a(g49
I01
tp951
a(g73
I00
tp952
a(g34
I01
tp953
atp954
Rp955
s(g41
I00
tp956
g65
((lp957
(g42
I00
tp958
a(g26
I00
tp959
a(g37
I00
tp960
a(g310
I00
tp961
a(g45
I00
tp962
a(g442
I00
tp963
a(g51
I00
tp964
a(g67
I00
tp965
a(g43
I00
tp966
a(g170
I00
tp967
a(S'complex'
p968
I00
tp969
a(g440
I00
tp970
a(g30
I00
tp971
a(g447
I00
tp972
a(g306
I00
tp973
a(g91
I00
tp974
a(g332
I00
tp975
a(S'extended_real'
p976
I00
tp977
a(g50
I00
tp978
a(g391
I00
tp979
a(g36
I00
tp980
a(g28
I00
tp981
a(g82
I00
tp982
a(g53
I00
tp983
a(g73
I00
tp984
atp985
Rp986
s(g31
I00
tp987
g65
((lp988
(g328
I00
tp989
a(g440
I00
tp990
a(g442
I00
tp991
a(g179
I00
tp992
a(g30
I00
tp993
a(g310
I00
tp994
atp995
Rp996
s(g28
I01
tp997
g65
((lp998
(g377
I01
tp999
a(g42
I00
tp1000
a(g40
I01
tp1001
a(g442
I00
tp1002
a(g35
I00
tp1003
a(g37
I00
tp1004
a(g30
I00
tp1005
a(g91
I00
tp1006
a(g401
I01
tp1007
a(g318
I01
tp1008
a(g36
I00
tp1009
a(g391
I01
tp1010
a(g82
I00
tp1011
a(g41
I01
tp1012
a(g49
I01
tp1013
a(g50
I00
tp1014
a(g34
I01
tp1015
a(g425
I01
tp1016
atp1017
Rp1018
s(g95
I00
tp1019
g65
((lp1020
tp1021
Rp1022
s(g27
I01
tp1023
g65
((lp1024
tp1025
Rp1026
s(g407
I01
tp1027
g65
((lp1028
(g35
I00
tp1029
atp1030
Rp1031
s(g332
I00
tp1032
g65
((lp1033
(g338
I00
tp1034
a(g45
I00
tp1035
atp1036
Rp1037
s(g73
I00
tp1038
g65
((lp1039
tp1040
Rp1041
s(g30
I01
tp1042
g65
((lp1043
(g318
I01
tp1044
a(g42
I00
tp1045
a(g37
I00
tp1046
a(g33
I01
tp1047
a(g322
I01
tp1048
a(g50
I01
tp1049
a(g49
I01
tp1050
a(g45
I00
tp1051
a(g418
I01
tp1052
a(g794
I00
tp1053
a(g838
I01
tp1054
a(g170
I00
tp1055
a(g41
I01
tp1056
a(g179
I01
tp1057
a(g34
I01
tp1058
a(g40
I01
tp1059
a(g401
I01
tp1060
a(g36
I01
tp1061
a(g35
I00
tp1062
a(g425
I01
tp1063
a(g332
I00
tp1064
a(g334
I01
tp1065
a(g391
I00
tp1066
a(g28
I00
tp1067
a(g53
I00
tp1068
a(g73
I00
tp1069
atp1070
Rp1071
s(g334
I01
tp1072
g65
((lp1073
(g267
I01
tp1074
a(g35
I00
tp1075
a(g37
I00
tp1076
a(g40
I01
tp1077
a(g269
I00
tp1078
a(g304
I01
tp1079
a(g170
I00
tp1080
a(g306
I01
tp1081
a(g41
I01
tp1082
a(g49
I01
tp1083
a(g34
I01
tp1084
atp1085
Rp1086
s(g391
I00
tp1087
g65
((lp1088
tp1089
Rp1090
s(g185
I00
tp1091
g65
((lp1092
(g129
I00
tp1093
a(g440
I00
tp1094
a(g442
I00
tp1095
a(g332
I00
tp1096
a(g125
I00
tp1097
a(g51
I00
tp1098
a(g401
I00
tp1099
a(g30
I00
tp1100
a(g310
I00
tp1101
a(g391
I00
tp1102
a(g36
I00
tp1103
a(g447
I00
tp1104
a(g91
I00
tp1105
a(g131
I00
tp1106
a(g28
I00
tp1107
a(g82
I00
tp1108
a(g199
I00
tp1109
a(g50
I00
tp1110
a(g45
I00
tp1111
a(g189
I00
tp1112
atp1113
Rp1114
s(g36
I00
tp1115
g65
((lp1116
(g42
I00
tp1117
a(g30
I00
tp1118
a(g442
I00
tp1119
a(g91
I00
tp1120
a(g82
I00
tp1121
atp1122
Rp1123
s(g391
I01
tp1124
g65
((lp1125
(g42
I00
tp1126
a(g387
I01
tp1127
a(g37
I00
tp1128
a(g30
I00
tp1129
a(g91
I00
tp1130
a(g401
I01
tp1131
a(g385
I00
tp1132
a(g442
I00
tp1133
a(g82
I00
tp1134
a(g41
I01
tp1135
atp1136
Rp1137
s(g38
I00
tp1138
g65
((lp1139
tp1140
Rp1141
s(g35
I01
tp1142
g65
((lp1143
(g407
I00
tp1144
a(g42
I00
tp1145
a(g440
I00
tp1146
a(g442
I00
tp1147
a(g332
I00
tp1148
a(g37
I00
tp1149
a(g67
I00
tp1150
a(g30
I00
tp1151
a(g310
I00
tp1152
a(g50
I00
tp1153
a(g447
I00
tp1154
a(g36
I00
tp1155
a(g26
I00
tp1156
a(g91
I00
tp1157
a(g28
I00
tp1158
a(g82
I00
tp1159
a(g406
I00
tp1160
a(g73
I00
tp1161
a(g45
I00
tp1162
atp1163
Rp1164
s(g53
I00
tp1165
g65
((lp1166
(g328
I00
tp1167
a(g300
I00
tp1168
a(g170
I00
tp1169
a(g45
I00
tp1170
atp1171
Rp1172
s(g50
I00
tp1173
g65
((lp1174
(g42
I00
tp1175
a(g91
I00
tp1176
a(g30
I00
tp1177
a(S'integer'
p1178
I00
tp1179
a(g442
I00
tp1180
a(g82
I00
tp1181
atp1182
Rp1183
ssS'prereq'
p1184
g413
(g65
tp1185
Rp1186
g332
g65
((lp1187
g26
ag794
ag185
ag41
ag30
ag44
ag53
ag45
ag338
ag406
ag35
ag179
ag34
ag634
ag409
atp1188
Rp1189
sg42
g65
((lp1190
g26
ag614
ag73
ag332
ag30
ag53
ag578
ag34
ag35
ag36
ag409
ag82
ag28
ag318
ag185
ag41
ag401
ag44
ag391
ag45
ag46
ag47
ag794
ag406
ag50
ag179
ag634
ag31
atp1191
Rp1192
sg82
g65
((lp1193
g26
ag73
ag578
ag338
ag35
ag36
ag409
ag28
ag32
ag185
ag41
ag391
ag34
ag406
ag50
ag634
atp1194
Rp1195
sg28
g65
((lp1196
g32
ag26
ag185
ag41
ag30
ag794
ag34
ag338
ag406
ag50
ag35
ag78
ag409
ag634
ag82
atp1197
Rp1198
sg447
g65
((lp1199
g26
ag28
ag30
ag43
ag338
ag35
ag34
ag82
ag409
ag794
ag185
ag41
ag44
ag45
ag406
ag634
atp1200
Rp1201
sg27
g65
((lp1202
tp1203
Rp1204
sg41
g65
((lp1205
g408
ag318
ag28
ag241
ag30
ag53
ag401
ag338
ag78
ag409
ag334
ag82
ag32
ag40
ag33
ag44
ag391
ag45
ag46
ag50
ag794
ag588
ag73
ag179
ag322
atp1206
Rp1207
sg440
g65
((lp1208
g26
ag794
ag241
ag30
ag53
ag43
ag338
ag35
ag34
ag409
ag239
ag185
ag41
ag45
ag46
ag47
ag406
ag51
ag634
ag31
atp1209
Rp1210
sg391
g65
((lp1211
g32
ag794
ag185
ag41
ag30
ag338
ag78
ag409
ag82
ag28
atp1212
Rp1213
sg45
g65
((lp1214
g26
ag794
ag332
ag30
ag322
ag43
ag338
ag35
ag409
ag239
ag185
ag41
ag44
ag34
ag46
ag334
ag406
ag179
ag634
ag53
atp1215
Rp1216
sg195
g65
((lp1217
g794
ag185
ag41
ag30
ag44
ag322
ag45
ag334
ag43
ag338
ag179
ag409
ag53
atp1218
Rp1219
sg49
g65
((lp1220
g408
ag794
ag28
ag241
ag30
ag33
ag338
ag318
ag35
ag78
ag409
ag82
ag41
ag32
ag73
ag44
ag45
ag334
ag50
ag634
atp1221
Rp1222
sg50
g65
((lp1223
g26
ag794
ag28
ag30
ag578
ag338
ag35
ag78
ag409
ag82
ag32
ag185
ag41
ag34
ag406
ag73
ag634
atp1224
Rp1225
sg425
g65
((lp1226
g408
ag794
ag50
ag241
ag30
ag33
ag338
ag35
ag78
ag409
ag82
ag28
ag32
ag44
ag45
ag334
ag588
ag73
ag318
atp1227
Rp1228
sg53
g65
((lp1229
g794
ag185
ag41
ag241
ag30
ag44
ag45
ag46
ag338
ag409
ag179
atp1230
Rp1231
sg418
g65
((lp1232
g318
ag28
ag241
ag30
ag338
ag35
ag78
ag34
ag82
ag409
ag32
ag185
ag41
ag44
ag45
ag334
ag794
ag406
ag50
ag634
atp1233
Rp1234
sg91
g65
((lp1235
g26
ag73
ag578
ag338
ag35
ag36
ag409
ag82
ag28
ag185
ag41
ag391
ag34
ag406
ag50
ag634
atp1236
Rp1237
sg73
g65
((lp1238
g32
ag794
ag41
ag30
ag33
ag338
ag406
ag50
ag35
ag78
ag634
ag82
atp1239
Rp1240
sg29
g65
((lp1241
g409
atp1242
Rp1243
sg30
g65
((lp1244
g26
ag794
ag34
ag73
ag241
ag31
ag578
ag338
ag35
ag36
ag409
ag28
ag239
ag185
ag41
ag43
ag838
ag391
ag45
ag46
ag47
ag406
ag50
ag51
ag634
ag53
atp1245
Rp1246
sg306
g65
((lp1247
g794
ag185
ag41
ag30
ag44
ag45
ag46
ag334
ag338
ag409
ag179
atp1248
Rp1249
sg33
g65
((lp1250
g32
ag794
ag73
ag30
ag338
ag406
ag50
ag35
ag78
ag634
ag82
ag41
atp1251
Rp1252
sg35
g65
((lp1253
g408
ag794
ag50
ag241
ag30
ag33
ag338
ag318
ag78
ag409
ag82
ag28
ag32
ag44
ag45
ag334
ag588
ag73
ag407
atp1254
Rp1255
sg86
g65
((lp1256
g26
ag794
ag73
ag30
ag578
ag338
ag35
ag409
ag82
ag28
ag32
ag185
ag41
ag391
ag34
ag406
ag50
ag634
atp1257
Rp1258
sg37
g65
((lp1259
g408
ag318
ag28
ag29
ag241
ag30
ag53
ag401
ag338
ag35
ag78
ag82
ag32
ag40
ag41
ag44
ag391
ag45
ag46
ag334
ag794
ag406
ag50
ag179
ag634
ag322
atp1260
Rp1261
sg442
g65
((lp1262
g26
ag34
ag73
ag241
ag30
ag31
ag578
ag338
ag35
ag36
ag409
ag28
ag239
ag185
ag41
ag43
ag838
ag391
ag45
ag46
ag47
ag406
ag50
ag51
ag634
ag53
atp1263
Rp1264
sg40
g65
((lp1265
g408
ag318
ag28
ag241
ag30
ag53
ag401
ag338
ag78
ag409
ag82
ag32
ag41
ag44
ag391
ag45
ag46
ag334
ag794
ag50
ag179
ag322
atp1266
Rp1267
sg401
g65
((lp1268
g318
ag794
ag185
ag41
ag30
ag44
ag391
ag45
ag46
ag338
ag409
ag82
ag179
ag28
atp1269
Rp1270
sg34
g65
((lp1271
g32
ag408
ag28
ag241
ag30
ag44
ag45
ag334
ag794
ag338
ag50
ag78
ag318
ag82
atp1272
Rp1273
sg310
g65
((lp1274
g26
ag794
ag185
ag41
ag30
ag44
ag31
ag45
ag46
ag338
ag406
ag35
ag34
ag634
ag409
atp1275
Rp1276
sg51
g65
((lp1277
g794
ag185
ag41
ag241
ag30
ag44
ag53
ag45
ag46
ag43
ag338
ag409
ag31
atp1278
Rp1279
ssS'beta_triggers'
p1280
g413
(g65
tp1281
Rp1282
(g32
I01
tp1283
(lp1284
I8
aI9
aI10
aI13
aI14
aI16
aI17
aI18
aI21
aI22
aI23
aI24
aI25
aI26
aI27
aI30
aI31
aI33
aI36
as(g34
I00
tp1285
(lp1286
I3
aI4
aI7
aI8
aI10
aI35
aI36
as(g26
I00
tp1287
(lp1288
I3
aI4
aI7
aI8
aI10
aI35
aI36
as(g322
I01
tp1289
(lp1290
I4
aI5
aI6
aI9
aI10
aI12
aI13
aI15
aI17
aI18
aI22
aI26
aI28
aI35
aI36
as(g45
I01
tp1291
(lp1292
I0
aI34
aI35
as(g409
I00
tp1293
g65
((lp1294
tp1295
Rp1296
s(g47
I00
tp1297
(lp1298
I7
aI8
aI10
aI15
aI16
aI21
aI36
as(g33
I01
tp1299
(lp1300
I3
aI5
aI6
aI23
aI24
aI25
aI26
aI27
as(g239
I00
tp1301
(lp1302
I15
aI17
aI21
aI22
as(g82
I01
tp1303
(lp1304
I8
aI10
aI11
aI12
aI13
aI14
aI16
aI18
aI19
aI20
aI21
aI22
aI23
aI24
aI25
aI26
as(g53
I01
tp1305
(lp1306
I4
aI5
aI6
aI8
aI9
aI11
aI14
aI15
aI16
aI17
aI21
aI25
aI28
aI35
aI36
as(g50
I01
tp1307
(lp1308
I8
aI9
aI10
aI13
aI14
aI16
aI17
aI18
aI21
aI22
aI23
aI24
aI25
aI26
aI27
aI35
aI36
as(g588
I01
tp1309
(lp1310
I0
aI3
aI5
aI6
aI23
aI24
aI25
aI26
aI27
as(g73
I01
tp1311
(lp1312
I3
aI5
aI6
aI7
aI8
aI10
aI15
aI16
aI18
aI23
aI24
aI25
aI26
aI27
aI34
aI35
aI36
as(g338
I01
tp1313
(lp1314
s(g408
I01
tp1315
(lp1316
I0
aI8
aI9
aI10
aI13
aI14
aI16
aI17
aI18
aI21
aI22
aI23
aI24
aI25
aI26
aI27
aI34
aI35
aI36
as(g48
I00
tp1317
(lp1318
I30
aI32
aI33
as(g29
I00
tp1319
(lp1320
s(g44
I01
tp1321
(lp1322
I0
aI30
aI31
aI32
aI34
aI35
as(g409
I01
tp1323
(lp1324
I0
as(g51
I00
tp1325
(lp1326
I7
aI8
aI9
aI13
aI15
aI16
aI17
aI21
as(g43
I00
tp1327
(lp1328
I7
aI9
aI13
aI14
aI15
aI17
aI21
aI22
as(g34
I01
tp1329
g65
((lp1330
tp1331
Rp1332
s(g318
I01
tp1333
(lp1334
I0
aI8
aI10
aI11
aI12
aI13
aI14
aI16
aI18
aI19
aI20
aI21
aI22
aI23
aI24
aI25
aI26
aI34
aI35
as(g129
I00
tp1335
(lp1336
I7
aI8
aI10
aI15
aI16
aI18
aI36
as(g207
I00
tp1337
(lp1338
I15
aI17
aI18
aI22
as(g406
I00
tp1339
(lp1340
I3
aI4
aI7
aI8
aI10
aI35
aI36
as(g41
I01
tp1341
g65
((lp1342
tp1343
Rp1344
s(g46
I00
tp1345
(lp1346
I7
aI9
aI10
aI14
aI15
aI17
aI18
aI22
as(g794
I01
tp1347
(lp1348
I1
aI2
as(g578
I00
tp1349
(lp1350
I0
aI7
aI8
aI10
aI15
aI16
aI18
aI34
aI35
aI36
as(g838
I00
tp1351
(lp1352
I15
aI16
aI17
aI21
as(g40
I01
tp1353
(lp1354
I4
aI5
aI6
aI8
aI9
aI10
aI13
aI14
aI35
aI36
as(g179
I01
tp1355
(lp1356
I4
aI5
aI6
aI15
aI18
aI22
aI23
aI26
aI27
aI35
as(g241
I01
tp1357
(lp1358
I0
aI8
aI9
aI11
aI14
aI16
aI17
aI19
aI22
aI24
aI26
aI27
aI28
aI29
aI34
aI35
aI36
as(g634
I00
tp1359
(lp1360
I3
aI4
aI7
aI8
aI10
aI35
aI36
as(g349
I00
tp1361
(lp1362
I31
aI32
aI33
as(g401
I01
tp1363
(lp1364
I4
aI5
aI6
aI8
aI10
aI11
aI12
aI13
aI14
aI15
aI16
aI18
aI27
aI35
as(g46
I01
tp1365
(lp1366
I4
aI5
aI6
aI15
aI16
aI21
aI24
aI25
aI27
aI35
as(g614
I00
tp1367
(lp1368
I1
aI7
aI8
aI10
aI15
aI16
aI18
aI36
as(g78
I01
tp1369
(lp1370
I1
aI2
aI8
aI9
aI10
aI13
aI14
aI16
aI17
aI18
aI21
aI22
aI23
aI24
aI25
aI26
aI27
aI36
as(g41
I00
tp1371
(lp1372
s(g31
I00
tp1373
(lp1374
I7
aI8
aI13
aI15
aI16
aI21
aI36
as(g28
I01
tp1375
(lp1376
I0
aI8
aI10
aI11
aI12
aI13
aI14
aI16
aI18
aI19
aI20
aI21
aI22
aI23
aI24
aI25
aI26
as(g95
I00
tp1377
(lp1378
I3
aI5
as(g27
I01
tp1379
g65
((lp1380
tp1381
Rp1382
s(g407
I01
tp1383
(lp1384
I3
aI5
aI6
aI23
aI24
aI25
aI26
aI27
as(g332
I00
tp1385
(lp1386
I7
aI8
aI10
aI15
aI18
aI22
aI36
as(g73
I00
tp1387
g65
((lp1388
tp1389
Rp1390
s(g30
I01
tp1391
(lp1392
I1
aI2
as(g334
I01
tp1393
(lp1394
I0
aI9
aI10
aI12
aI13
aI17
aI18
aI20
aI21
aI23
aI25
aI27
aI28
aI29
aI34
aI35
aI36
as(g391
I00
tp1395
g65
((lp1396
tp1397
Rp1398
s(g185
I00
tp1399
(lp1400
s(g36
I00
tp1401
(lp1402
I7
aI8
aI10
aI15
aI16
aI18
aI35
aI36
as(g391
I01
tp1403
(lp1404
I4
aI5
aI6
aI8
aI10
aI11
aI12
aI13
aI14
aI15
aI16
aI18
aI27
as(g38
I00
tp1405
(lp1406
I2
as(g35
I01
tp1407
(lp1408
I7
aI8
aI10
aI35
aI36
as(g53
I00
tp1409
(lp1410
I7
aI10
aI14
aI15
aI18
aI22
aI36
as(g50
I00
tp1411
(lp1412
I7
aI8
aI10
aI15
aI16
aI18
aI34
aI35
aI36
assbsS'_generator'
p1413
(dp1414
g39
I01
sS'finite'
p1415
I01
ssbsbcsympy.core.numbers
NegativeOne
p1416
(I-1
tp1417
Rp1418
(dp1419
btp1420
Rp1421
(dp1422
bg5
(g16
(S'\\gamma'
p1423
tp1424
Rp1425
(dp1426
g21
g22
(g23
g24
(dp1427
g26
I01
sg27
Nsg28
Nsg29
Nsg30
Nsg31
Nsg32
Nsg33
Nsg34
I01
sg35
I00
sg36
Nsg37
I00
sg38
Nsg39
I01
sg40
I01
sg41
I01
sg42
I00
sg43
I01
sg44
Nsg45
Nsg46
Nsg47
Nsg48
Nsg49
I01
sg50
Nsg51
Nsg52
I01
sg53
Nstp1428
Rp1429
(dp1430
g57
g61
sg1413
(dp1431
g39
I01
sg1415
I01
ssbsbg1418
tp1432
Rp1433
(dp1434
bg5
(csympy.core.add
Add
p1435
(g5
(g19
g9
(I4
tp1436
Rp1437
(dp1438
btp1439
Rp1440
(dp1441
bg5
(g1425
g1437
tp1442
Rp1443
(dp1444
bg0
(g11
g5
(g19
g11
tp1445
Rp1446
(dp1447
bg5
(g1425
g11
tp1448
Rp1449
(dp1450
btp1451
Rp1452
(dp1453
btp1454
Rp1455
(dp1456
bg1
(I-1
I2
tp1457
Rp1458
(dp1459
btp1460
Rp1461
(dp1462
bg1435
(g1446
g1449
tp1463
Rp1464
(dp1465
bg1435
(g14
g0
(g9
(I3
tp1466
Rp1467
(dp1468
bg1446
tp1469
Rp1470
(dp1471
bg0
(g1467
g1449
tp1472
Rp1473
(dp1474
btp1475
Rp1476
(dp1477
btp1478
Rp1479
(dp1480
b.