(lp0
csympy.core.add
Add
p1
(csympy.core.mul
Mul
p2
(csympy.core.numbers
Rational
p3
(I1
I4
tp4
Rp5
(dp6
bcsympy.core.power
Pow
p7
(csympy.core.numbers
Pi
p8
(tRp9
(dp10
bcsympy.core.numbers
Integer
p11
(I2
tp12
Rp13
(dp14
btp15
Rp16
(dp17
bg7
(csympy.core.symbol
Symbol
p18
(S'Re'
p19
tp20
Rp21
(dp22
S'_assumptions'
p23
ccopy_reg
_reconstructor
p24
(csympy.core.assumptions
StdFactKB
p25
c__builtin__
dict
p26
(dp27
S'real'
p28
NsS'even'
p29
NsS'irrational'
p30
NsS'antihermitian'
p31
NsS'extended_nonpositive'
p32
NsS'algebraic'
p33
NsS'hermitian'
p34
NsS'infinite'
p35
NsS'integer'
p36
NsS'imaginary'
p37
NsS'nonzero'
p38
NsS'extended_real'
p39
NsS'commutative'
p40
I01
sS'zero'
p41
NsS'positive'
p42
NsS'negative'
p43
NsS'extended_negative'
p44
NsS'complex'
p45
NsS'rational'
p46
NsS'extended_positive'
p47
NsS'finite'
p48
NsS'extended_nonnegative'
p49
Nstp50
Rp51
(dp52
S'rules'
p53
g24
(csympy.core.facts
FactRules
p54
c__builtin__
object
p55
Ntp56
Rp57
(dp58
S'beta_rules'
p59
(lp60
(c__builtin__
set
p61
((lp62
(S'algebraic'
p63
I00
tp64
a(S'complex'
p65
I01
tp66
atp67
Rp68
(S'transcendental'
p69
I01
tp70
tp71
a(g61
((lp72
(g29
I00
tp73
a(S'integer'
p74
I01
tp75
atp76
Rp77
(S'odd'
p78
I01
tp79
tp80
a(g61
((lp81
(S'integer'
p82
I01
tp83
a(S'odd'
p84
I00
tp85
atp86
Rp87
(S'even'
p88
I01
tp89
tp90
a(g61
((lp91
(g35
I00
tp92
a(S'real'
p93
I00
tp94
atp95
Rp96
(S'extended_real'
p97
I00
tp98
tp99
a(g61
((lp100
(g97
I01
tp101
a(g93
I00
tp102
atp103
Rp104
(g35
I01
tp105
tp106
a(g61
((lp107
(g97
I01
tp108
a(g35
I00
tp109
atp110
Rp111
(g93
I01
tp112
tp113
a(g61
((lp114
(S'extended_real'
p115
I01
tp116
a(S'finite'
p117
I01
tp118
atp119
Rp120
(S'real'
p121
I01
tp122
tp123
a(g61
((lp124
(S'zero'
p125
I00
tp126
a(S'extended_negative'
p127
I00
tp128
a(g47
I00
tp129
atp130
Rp131
(S'extended_real'
p132
I00
tp133
tp134
a(g61
((lp135
(g125
I00
tp136
a(g132
I01
tp137
a(g47
I00
tp138
atp139
Rp140
(g127
I01
tp141
tp142
a(g61
((lp143
(g47
I00
tp144
a(g132
I01
tp145
a(g127
I00
tp146
atp147
Rp148
(g125
I01
tp149
tp150
a(g61
((lp151
(g125
I00
tp152
a(g132
I01
tp153
a(g127
I00
tp154
atp155
Rp156
(g47
I01
tp157
tp158
a(g61
((lp159
(S'extended_nonzero'
p160
I01
tp161
a(S'extended_nonpositive'
p162
I01
tp163
atp164
Rp165
(S'extended_negative'
p166
I01
tp167
tp168
a(g61
((lp169
(S'extended_nonzero'
p170
I01
tp171
a(g49
I01
tp172
atp173
Rp174
(S'extended_positive'
p175
I01
tp176
tp177
a(g61
((lp178
(S'extended_positive'
p179
I00
tp180
a(S'extended_real'
p181
I01
tp182
atp183
Rp184
(S'extended_nonpositive'
p185
I01
tp186
tp187
a(g61
((lp188
(S'extended_real'
p189
I01
tp190
a(S'extended_negative'
p191
I00
tp192
atp193
Rp194
(S'extended_nonnegative'
p195
I01
tp196
tp197
a(g61
((lp198
(S'zero'
p199
I00
tp200
a(S'positive'
p201
I00
tp202
a(S'negative'
p203
I00
tp204
atp205
Rp206
(S'real'
p207
I00
tp208
tp209
a(g61
((lp210
(g207
I01
tp211
a(g199
I00
tp212
a(g201
I00
tp213
atp214
Rp215
(g203
I01
tp216
tp217
a(g61
((lp218
(g207
I01
tp219
a(g201
I00
tp220
a(g203
I00
tp221
atp222
Rp223
(g199
I01
tp224
tp225
a(g61
((lp226
(g207
I01
tp227
a(g199
I00
tp228
a(g203
I00
tp229
atp230
Rp231
(g201
I01
tp232
tp233
a(g61
((lp234
(S'nonzero'
p235
I01
tp236
a(S'nonpositive'
p237
I01
tp238
atp239
Rp240
(g43
I01
tp241
tp242
a(g61
((lp243
(S'nonzero'
p244
I01
tp245
a(S'nonnegative'
p246
I01
tp247
atp248
Rp249
(S'positive'
p250
I01
tp251
tp252
a(g61
((lp253
(S'real'
p254
I01
tp255
a(S'positive'
p256
I00
tp257
atp258
Rp259
(S'nonpositive'
p260
I01
tp261
tp262
a(g61
((lp263
(S'real'
p264
I01
tp265
a(S'negative'
p266
I00
tp267
atp268
Rp269
(S'nonnegative'
p270
I01
tp271
tp272
a(g61
((lp273
(S'finite'
p274
I01
tp275
a(S'extended_positive'
p276
I01
tp277
atp278
Rp279
(g42
I01
tp280
tp281
a(g61
((lp282
(g44
I01
tp283
a(S'finite'
p284
I01
tp285
atp286
Rp287
(S'negative'
p288
I01
tp289
tp290
a(g61
((lp291
(S'finite'
p292
I01
tp293
a(g32
I01
tp294
atp295
Rp296
(S'nonpositive'
p297
I01
tp298
tp299
a(g61
((lp300
(S'finite'
p301
I01
tp302
a(S'extended_nonnegative'
p303
I01
tp304
atp305
Rp306
(S'nonnegative'
p307
I01
tp308
tp309
a(g61
((lp310
(S'finite'
p311
I01
tp312
a(S'extended_nonzero'
p313
I01
tp314
atp315
Rp316
(g38
I01
tp317
tp318
a(g61
((lp319
(S'extended_nonnegative'
p320
I01
tp321
a(S'extended_nonpositive'
p322
I01
tp323
atp324
Rp325
(S'zero'
p326
I01
tp327
tp328
a(g61
((lp329
(S'nonpositive'
p330
I01
tp331
a(S'nonnegative'
p332
I01
tp333
atp334
Rp335
(g41
I01
tp336
tp337
a(g61
((lp338
(S'even'
p339
I01
tp340
a(S'prime'
p341
I00
tp342
a(S'positive'
p343
I01
tp344
atp345
Rp346
(S'composite'
p347
I01
tp348
tp349
a(g61
((lp350
(g339
I01
tp351
a(g347
I00
tp352
a(g343
I01
tp353
atp354
Rp355
(g341
I01
tp356
tp357
a(g61
((lp358
(g347
I00
tp359
a(g341
I00
tp360
a(g343
I01
tp361
atp362
Rp363
(g339
I00
tp364
tp365
a(g61
((lp366
(g339
I01
tp367
a(g347
I00
tp368
a(g341
I00
tp369
atp370
Rp371
(g343
I00
tp372
tp373
a(g61
((lp374
(S'real'
p375
I01
tp376
a(g46
I00
tp377
atp378
Rp379
(g30
I01
tp380
tp381
a(g61
((lp382
(S'integer'
p383
I00
tp384
a(S'extended_real'
p385
I01
tp386
atp387
Rp388
(S'noninteger'
p389
I01
tp390
tp391
a(g61
((lp392
(S'zero'
p393
I00
tp394
a(S'extended_real'
p395
I01
tp396
atp397
Rp398
(S'extended_nonzero'
p399
I01
tp400
tp401
asS'defined_facts'
p402
g61
((lp403
g330
ag34
ag84
ag29
aS'commutative'
p404
ag42
ag389
ag43
ag44
ag45
ag46
ag48
ag49
ag28
ag38
ag30
ag31
aS'composite'
p405
ag32
ag313
ag35
ag36
ag37
ag341
ag39
ag33
ag41
ag246
ag47
ag69
atp406
Rp407
sS'full_implications'
p408
ccollections
defaultdict
p409
(g61
tp410
Rp411
(g29
I01
tp412
g61
((lp413
(S'real'
p414
I01
tp415
a(S'infinite'
p416
I00
tp417
a(S'imaginary'
p418
I00
tp419
a(g39
I01
tp420
a(g33
I01
tp421
a(g389
I00
tp422
a(S'finite'
p423
I01
tp424
a(g82
I01
tp425
a(g30
I00
tp426
a(g78
I00
tp427
a(g404
I01
tp428
a(g46
I01
tp429
a(S'complex'
p430
I01
tp431
a(g69
I00
tp432
a(g34
I01
tp433
atp434
Rp435
s(g34
I00
tp436
g61
((lp437
(S'zero'
p438
I00
tp439
a(S'positive'
p440
I00
tp441
a(S'prime'
p442
I00
tp443
a(g330
I00
tp444
a(g405
I00
tp445
a(g307
I00
tp446
a(S'nonzero'
p447
I00
tp448
a(g36
I00
tp449
a(g414
I00
tp450
a(g88
I00
tp451
a(g30
I00
tp452
a(g78
I00
tp453
a(g46
I00
tp454
a(g43
I00
tp455
atp456
Rp457
s(S'real'
p458
I00
tp459
g61
((lp460
(g199
I00
tp461
a(g201
I00
tp462
a(g447
I00
tp463
a(g260
I00
tp464
a(g405
I00
tp465
a(g270
I00
tp466
a(g36
I00
tp467
a(g442
I00
tp468
a(g88
I00
tp469
a(g30
I00
tp470
a(g78
I00
tp471
a(S'rational'
p472
I00
tp473
a(g203
I00
tp474
atp475
Rp476
s(g320
I01
tp477
g61
((lp478
(g418
I00
tp479
a(g189
I01
tp480
a(g191
I00
tp481
a(g43
I00
tp482
a(g404
I01
tp483
atp484
Rp485
s(g43
I01
tp486
g61
((lp487
(g207
I01
tp488
a(g235
I01
tp489
a(g440
I00
tp490
a(g442
I00
tp491
a(g416
I00
tp492
a(g237
I01
tp493
a(g39
I01
tp494
a(g47
I00
tp495
a(g405
I00
tp496
a(g270
I00
tp497
a(g399
I01
tp498
a(g418
I00
tp499
a(g44
I01
tp500
a(g284
I01
tp501
a(g438
I00
tp502
a(g32
I01
tp503
a(g404
I01
tp504
a(g303
I00
tp505
a(g430
I01
tp506
a(g34
I01
tp507
atp508
Rp509
s(g37
I00
tp510
g61
((lp511
tp512
Rp513
s(g246
I00
tp514
g61
((lp515
(g442
I00
tp516
a(g250
I00
tp517
a(g405
I00
tp518
a(g41
I00
tp519
atp520
Rp521
s(g33
I01
tp522
g61
((lp523
(g404
I01
tp524
a(g416
I00
tp525
a(g430
I01
tp526
a(g69
I00
tp527
a(g423
I01
tp528
atp529
Rp530
s(g235
I00
tp531
g61
((lp532
(g250
I00
tp533
a(g442
I00
tp534
a(g43
I00
tp535
a(g405
I00
tp536
atp537
Rp538
s(g78
I01
tp539
g61
((lp540
(g414
I01
tp541
a(g438
I00
tp542
a(g416
I00
tp543
a(g418
I00
tp544
a(g39
I01
tp545
a(g29
I00
tp546
a(g33
I01
tp547
a(g38
I01
tp548
a(g399
I01
tp549
a(g389
I00
tp550
a(g423
I01
tp551
a(g74
I01
tp552
a(g30
I00
tp553
a(g404
I01
tp554
a(g46
I01
tp555
a(g430
I01
tp556
a(g69
I00
tp557
a(g34
I01
tp558
atp559
Rp560
s(g32
I01
tp561
g61
((lp562
(g440
I00
tp563
a(g405
I00
tp564
a(g179
I00
tp565
a(g181
I01
tp566
a(g442
I00
tp567
a(g418
I00
tp568
a(g404
I01
tp569
atp570
Rp571
s(g46
I01
tp572
g61
((lp573
(S'real'
p574
I01
tp575
a(g416
I00
tp576
a(g418
I00
tp577
a(g39
I01
tp578
a(S'algebraic'
p579
I01
tp580
a(g423
I01
tp581
a(g30
I00
tp582
a(g404
I01
tp583
a(g430
I01
tp584
a(g69
I00
tp585
a(g34
I01
tp586
atp587
Rp588
s(S'complex'
p589
I01
tp590
g61
((lp591
(g404
I01
tp592
a(g416
I00
tp593
a(g423
I01
tp594
atp595
Rp596
s(g69
I01
tp597
g61
((lp598
(g438
I00
tp599
a(g416
I00
tp600
a(g63
I00
tp601
a(g405
I00
tp602
a(g88
I00
tp603
a(g36
I00
tp604
a(g442
I00
tp605
a(g78
I00
tp606
a(g404
I01
tp607
a(g65
I01
tp608
a(g46
I00
tp609
a(g423
I01
tp610
atp611
Rp612
s(g41
I01
tp613
g61
((lp614
(S'even'
p615
I01
tp616
a(g320
I01
tp617
a(g418
I00
tp618
a(g33
I01
tp619
a(g322
I01
tp620
a(g46
I01
tp621
a(g430
I01
tp622
a(g43
I00
tp623
a(g207
I01
tp624
a(g442
I00
tp625
a(g47
I00
tp626
a(g399
I00
tp627
a(g34
I01
tp628
a(g404
I01
tp629
a(g166
I00
tp630
a(g440
I00
tp631
a(g405
I00
tp632
a(g330
I01
tp633
a(g132
I01
tp634
a(S'finite'
p635
I01
tp636
a(g74
I01
tp637
a(g416
I00
tp638
a(g447
I00
tp639
a(g332
I01
tp640
a(g389
I00
tp641
a(g30
I00
tp642
a(g78
I00
tp643
a(g69
I00
tp644
atp645
Rp646
s(g28
I01
tp647
g61
((lp648
(S'complex'
p649
I01
tp650
a(g418
I00
tp651
a(g115
I01
tp652
a(g117
I01
tp653
a(g404
I01
tp654
a(g416
I00
tp655
a(g34
I01
tp656
atp657
Rp658
s(g341
I00
tp659
g61
((lp660
tp661
Rp662
s(g31
I00
tp663
g61
((lp664
(g37
I00
tp665
atp666
Rp667
s(g42
I01
tp668
g61
((lp669
(g207
I01
tp670
a(g438
I00
tp671
a(g416
I00
tp672
a(g260
I00
tp673
a(g276
I01
tp674
a(g418
I00
tp675
a(g39
I01
tp676
a(g399
I01
tp677
a(g244
I01
tp678
a(g246
I01
tp679
a(g274
I01
tp680
a(g43
I00
tp681
a(g320
I01
tp682
a(g404
I01
tp683
a(g32
I00
tp684
a(g430
I01
tp685
a(g34
I01
tp686
a(g166
I00
tp687
atp688
Rp689
s(g37
I01
tp690
g61
((lp691
(g438
I00
tp692
a(g458
I00
tp693
a(g307
I00
tp694
a(g447
I00
tp695
a(g45
I01
tp696
a(g43
I00
tp697
a(g442
I00
tp698
a(g47
I00
tp699
a(g31
I01
tp700
a(g166
I00
tp701
a(g404
I01
tp702
a(g440
I00
tp703
a(g405
I00
tp704
a(g423
I01
tp705
a(g32
I00
tp706
a(g416
I00
tp707
a(g88
I00
tp708
a(g330
I00
tp709
a(g39
I00
tp710
a(g46
I00
tp711
a(g389
I00
tp712
a(g36
I00
tp713
a(g30
I00
tp714
a(g78
I00
tp715
a(g303
I00
tp716
a(g313
I00
tp717
atp718
Rp719
s(g47
I00
tp720
g61
((lp721
(g442
I00
tp722
a(g42
I00
tp723
a(g405
I00
tp724
atp725
Rp726
s(g313
I00
tp727
g61
((lp728
(g440
I00
tp729
a(g38
I00
tp730
a(g175
I00
tp731
a(g405
I00
tp732
a(g442
I00
tp733
a(g166
I00
tp734
a(g43
I00
tp735
atp736
Rp737
s(g34
I01
tp738
g61
((lp739
tp740
Rp741
s(g38
I01
tp742
g61
((lp743
(g458
I01
tp744
a(g438
I00
tp745
a(g416
I00
tp746
a(g418
I00
tp747
a(g39
I01
tp748
a(g313
I01
tp749
a(g311
I01
tp750
a(g404
I01
tp751
a(g430
I01
tp752
a(g34
I01
tp753
atp754
Rp755
s(g125
I00
tp756
g61
((lp757
tp758
Rp759
s(g203
I00
tp760
g61
((lp761
tp762
Rp763
s(g45
I00
tp764
g61
((lp765
(g438
I00
tp766
a(g440
I00
tp767
a(g442
I00
tp768
a(g330
I00
tp769
a(S'imaginary'
p770
I00
tp771
a(g33
I00
tp772
a(g405
I00
tp773
a(g307
I00
tp774
a(g46
I00
tp775
a(g447
I00
tp776
a(g36
I00
tp777
a(g28
I00
tp778
a(g88
I00
tp779
a(g30
I00
tp780
a(g78
I00
tp781
a(g69
I00
tp782
a(g43
I00
tp783
atp784
Rp785
s(g404
I01
tp786
g61
((lp787
tp788
Rp789
s(g44
I00
tp790
g61
((lp791
(g288
I00
tp792
atp793
Rp794
s(S'prime'
p795
I01
tp796
g61
((lp797
(g38
I01
tp798
a(g438
I00
tp799
a(g418
I00
tp800
a(g399
I01
tp801
a(g320
I01
tp802
a(g46
I01
tp803
a(g430
I01
tp804
a(g43
I00
tp805
a(g414
I01
tp806
a(g440
I01
tp807
a(g166
I00
tp808
a(g404
I01
tp809
a(g39
I01
tp810
a(g175
I01
tp811
a(g34
I01
tp812
a(g405
I00
tp813
a(g33
I01
tp814
a(S'integer'
p815
I01
tp816
a(g416
I00
tp817
a(g423
I01
tp818
a(g330
I00
tp819
a(g332
I01
tp820
a(g389
I00
tp821
a(g30
I00
tp822
a(g32
I00
tp823
a(g69
I00
tp824
atp825
Rp826
s(g579
I00
tp827
g61
((lp828
(g438
I00
tp829
a(g442
I00
tp830
a(g405
I00
tp831
a(g36
I00
tp832
a(g88
I00
tp833
a(g78
I00
tp834
a(S'rational'
p835
I00
tp836
atp837
Rp838
s(S'positive'
p839
I00
tp840
g61
((lp841
(g405
I00
tp842
a(g442
I00
tp843
atp844
Rp845
s(g39
I01
tp846
g61
((lp847
(g418
I00
tp848
a(S'commutative'
p849
I01
tp850
atp851
Rp852
s(g175
I01
tp853
g61
((lp854
(g438
I00
tp855
a(g330
I00
tp856
a(g418
I00
tp857
a(g132
I01
tp858
a(g170
I01
tp859
a(g166
I00
tp860
a(g49
I01
tp861
a(g404
I01
tp862
a(g185
I00
tp863
a(g43
I00
tp864
atp865
Rp866
s(g237
I01
tp867
g61
((lp868
(g254
I01
tp869
a(g256
I00
tp870
a(g416
I00
tp871
a(g39
I01
tp872
a(g47
I00
tp873
a(g405
I00
tp874
a(g442
I00
tp875
a(g32
I01
tp876
a(g418
I00
tp877
a(g404
I01
tp878
a(g430
I01
tp879
a(g34
I01
tp880
a(g292
I01
tp881
atp882
Rp883
s(g635
I00
tp884
g61
((lp885
(g438
I00
tp886
a(g42
I00
tp887
a(g442
I00
tp888
a(g297
I00
tp889
a(g418
I00
tp890
a(g63
I00
tp891
a(g405
I00
tp892
a(g307
I00
tp893
a(g69
I00
tp894
a(g121
I00
tp895
a(g36
I00
tp896
a(g38
I00
tp897
a(g88
I00
tp898
a(g30
I00
tp899
a(g78
I00
tp900
a(g589
I00
tp901
a(g46
I00
tp902
a(g288
I00
tp903
atp904
Rp905
s(g347
I00
tp906
g61
((lp907
tp908
Rp909
s(g399
I01
tp910
g61
((lp911
(g404
I01
tp912
a(g395
I01
tp913
a(g393
I00
tp914
a(g418
I00
tp915
atp916
Rp917
s(g44
I01
tp918
g61
((lp919
(g438
I00
tp920
a(g440
I00
tp921
a(g132
I01
tp922
a(g404
I01
tp923
a(g418
I00
tp924
a(g405
I00
tp925
a(g307
I00
tp926
a(g160
I01
tp927
a(g442
I00
tp928
a(g162
I01
tp929
a(g47
I00
tp930
a(g195
I00
tp931
atp932
Rp933
s(g615
I00
tp934
g61
((lp935
(g438
I00
tp936
atp937
Rp938
s(g74
I01
tp939
g61
((lp940
(g414
I01
tp941
a(g416
I00
tp942
a(g418
I00
tp943
a(g39
I01
tp944
a(g33
I01
tp945
a(g389
I00
tp946
a(g423
I01
tp947
a(g30
I00
tp948
a(g404
I01
tp949
a(S'rational'
p950
I01
tp951
a(g430
I01
tp952
a(g69
I00
tp953
a(g34
I01
tp954
atp955
Rp956
s(g404
I00
tp957
g61
((lp958
(g438
I00
tp959
a(g458
I00
tp960
a(g418
I00
tp961
a(g307
I00
tp962
a(g43
I00
tp963
a(g442
I00
tp964
a(g47
I00
tp965
a(g63
I00
tp966
a(g313
I00
tp967
a(g166
I00
tp968
a(S'complex'
p969
I00
tp970
a(g440
I00
tp971
a(g405
I00
tp972
a(g447
I00
tp973
a(g303
I00
tp974
a(g88
I00
tp975
a(g330
I00
tp976
a(S'extended_real'
p977
I00
tp978
a(g46
I00
tp979
a(g389
I00
tp980
a(g36
I00
tp981
a(g30
I00
tp982
a(g78
I00
tp983
a(g32
I00
tp984
a(g69
I00
tp985
atp986
Rp987
s(g49
I00
tp988
g61
((lp989
(g326
I00
tp990
a(g440
I00
tp991
a(g442
I00
tp992
a(g175
I00
tp993
a(g405
I00
tp994
a(g307
I00
tp995
atp996
Rp997
s(g30
I01
tp998
g61
((lp999
(g375
I01
tp1000
a(g438
I00
tp1001
a(g39
I01
tp1002
a(g442
I00
tp1003
a(g416
I00
tp1004
a(g418
I00
tp1005
a(g405
I00
tp1006
a(g88
I00
tp1007
a(g399
I01
tp1008
a(g38
I01
tp1009
a(g36
I00
tp1010
a(g389
I01
tp1011
a(g78
I00
tp1012
a(g404
I01
tp1013
a(g430
I01
tp1014
a(g46
I00
tp1015
a(g34
I01
tp1016
a(g423
I01
tp1017
atp1018
Rp1019
s(g35
I00
tp1020
g61
((lp1021
tp1022
Rp1023
s(S'polar'
p1024
I01
tp1025
g61
((lp1026
tp1027
Rp1028
s(g48
I01
tp1029
g61
((lp1030
(g416
I00
tp1031
atp1032
Rp1033
s(g330
I00
tp1034
g61
((lp1035
(g41
I00
tp1036
a(g43
I00
tp1037
atp1038
Rp1039
s(g69
I00
tp1040
g61
((lp1041
tp1042
Rp1043
s(g405
I01
tp1044
g61
((lp1045
(g38
I01
tp1046
a(g438
I00
tp1047
a(g418
I00
tp1048
a(g33
I01
tp1049
a(g320
I01
tp1050
a(g46
I01
tp1051
a(g430
I01
tp1052
a(g43
I00
tp1053
a(g414
I01
tp1054
a(g795
I00
tp1055
a(g839
I01
tp1056
a(g166
I00
tp1057
a(g404
I01
tp1058
a(g175
I01
tp1059
a(g34
I01
tp1060
a(g39
I01
tp1061
a(g399
I01
tp1062
a(g36
I01
tp1063
a(g416
I00
tp1064
a(g423
I01
tp1065
a(g330
I00
tp1066
a(g332
I01
tp1067
a(g389
I00
tp1068
a(g30
I00
tp1069
a(g32
I00
tp1070
a(g69
I00
tp1071
atp1072
Rp1073
s(g332
I01
tp1074
g61
((lp1075
(g264
I01
tp1076
a(g416
I00
tp1077
a(g418
I00
tp1078
a(g39
I01
tp1079
a(g266
I00
tp1080
a(g301
I01
tp1081
a(g166
I00
tp1082
a(g303
I01
tp1083
a(g404
I01
tp1084
a(g430
I01
tp1085
a(g34
I01
tp1086
atp1087
Rp1088
s(g389
I00
tp1089
g61
((lp1090
tp1091
Rp1092
s(g181
I00
tp1093
g61
((lp1094
(g125
I00
tp1095
a(g440
I00
tp1096
a(g442
I00
tp1097
a(g330
I00
tp1098
a(g121
I00
tp1099
a(g47
I00
tp1100
a(g399
I00
tp1101
a(g405
I00
tp1102
a(g307
I00
tp1103
a(g389
I00
tp1104
a(g36
I00
tp1105
a(g447
I00
tp1106
a(g88
I00
tp1107
a(g127
I00
tp1108
a(g30
I00
tp1109
a(g78
I00
tp1110
a(g195
I00
tp1111
a(g46
I00
tp1112
a(g43
I00
tp1113
a(g185
I00
tp1114
atp1115
Rp1116
s(g36
I00
tp1117
g61
((lp1118
(g438
I00
tp1119
a(g405
I00
tp1120
a(g442
I00
tp1121
a(g88
I00
tp1122
a(g78
I00
tp1123
atp1124
Rp1125
s(g389
I01
tp1126
g61
((lp1127
(g438
I00
tp1128
a(g385
I01
tp1129
a(g418
I00
tp1130
a(g405
I00
tp1131
a(g88
I00
tp1132
a(g399
I01
tp1133
a(g383
I00
tp1134
a(g442
I00
tp1135
a(g78
I00
tp1136
a(g404
I01
tp1137
atp1138
Rp1139
s(g84
I00
tp1140
g61
((lp1141
tp1142
Rp1143
s(g416
I01
tp1144
g61
((lp1145
(g48
I00
tp1146
a(g438
I00
tp1147
a(g440
I00
tp1148
a(g442
I00
tp1149
a(g330
I00
tp1150
a(g418
I00
tp1151
a(g63
I00
tp1152
a(g405
I00
tp1153
a(g307
I00
tp1154
a(g46
I00
tp1155
a(g447
I00
tp1156
a(g36
I00
tp1157
a(g458
I00
tp1158
a(g88
I00
tp1159
a(g30
I00
tp1160
a(g78
I00
tp1161
a(g45
I00
tp1162
a(g69
I00
tp1163
a(g43
I00
tp1164
atp1165
Rp1166
s(g32
I00
tp1167
g61
((lp1168
(g326
I00
tp1169
a(g297
I00
tp1170
a(g166
I00
tp1171
a(g43
I00
tp1172
atp1173
Rp1174
s(g46
I00
tp1175
g61
((lp1176
(g438
I00
tp1177
a(g88
I00
tp1178
a(g405
I00
tp1179
a(S'integer'
p1180
I00
tp1181
a(g442
I00
tp1182
a(g78
I00
tp1183
atp1184
Rp1185
ssS'prereq'
p1186
g409
(g61
tp1187
Rp1188
g330
g61
((lp1189
g458
ag795
ag181
ag404
ag405
ag42
ag32
ag43
ag41
ag45
ag416
ag175
ag34
ag635
ag37
atp1190
Rp1191
sg438
g61
((lp1192
g458
ag615
ag69
ag330
ag405
ag32
ag579
ag34
ag416
ag36
ag37
ag78
ag30
ag38
ag181
ag404
ag399
ag42
ag389
ag43
ag44
ag246
ag795
ag45
ag46
ag175
ag635
ag49
atp1193
Rp1194
sg78
g61
((lp1195
g458
ag69
ag579
ag41
ag416
ag36
ag37
ag30
ag29
ag181
ag404
ag389
ag34
ag45
ag46
ag635
atp1196
Rp1197
sg30
g61
((lp1198
g29
ag458
ag181
ag404
ag405
ag795
ag34
ag41
ag45
ag46
ag416
ag74
ag37
ag635
ag78
atp1199
Rp1200
sg447
g61
((lp1201
g458
ag30
ag405
ag313
ag41
ag416
ag34
ag78
ag37
ag795
ag181
ag404
ag42
ag43
ag45
ag635
atp1202
Rp1203
sg1024
g61
((lp1204
tp1205
Rp1206
sg404
g61
((lp1207
g28
ag38
ag30
ag237
ag405
ag32
ag399
ag41
ag74
ag37
ag332
ag78
ag29
ag39
ag33
ag42
ag389
ag43
ag44
ag46
ag795
ag589
ag69
ag175
ag320
atp1208
Rp1209
sg440
g61
((lp1210
g458
ag795
ag237
ag405
ag32
ag313
ag41
ag416
ag34
ag37
ag235
ag181
ag404
ag43
ag44
ag246
ag45
ag47
ag635
ag49
atp1211
Rp1212
sg389
g61
((lp1213
g29
ag795
ag181
ag404
ag405
ag41
ag74
ag37
ag78
ag30
atp1214
Rp1215
sg43
g61
((lp1216
g458
ag795
ag330
ag405
ag320
ag313
ag41
ag416
ag37
ag235
ag181
ag404
ag42
ag34
ag44
ag332
ag45
ag175
ag635
ag32
atp1217
Rp1218
sg191
g61
((lp1219
g795
ag181
ag404
ag405
ag42
ag320
ag43
ag332
ag313
ag41
ag175
ag37
ag32
atp1220
Rp1221
sg430
g61
((lp1222
g28
ag795
ag30
ag237
ag405
ag33
ag41
ag38
ag416
ag74
ag37
ag78
ag404
ag29
ag69
ag42
ag43
ag332
ag46
ag635
atp1223
Rp1224
sg46
g61
((lp1225
g458
ag795
ag30
ag405
ag579
ag41
ag416
ag74
ag37
ag78
ag29
ag181
ag404
ag34
ag45
ag69
ag635
atp1226
Rp1227
sg423
g61
((lp1228
g28
ag795
ag46
ag237
ag405
ag33
ag41
ag416
ag74
ag37
ag78
ag30
ag29
ag42
ag43
ag332
ag589
ag69
ag38
atp1229
Rp1230
sg32
g61
((lp1231
g795
ag181
ag404
ag237
ag405
ag42
ag43
ag44
ag41
ag37
ag175
atp1232
Rp1233
sg414
g61
((lp1234
g38
ag30
ag237
ag405
ag41
ag416
ag74
ag34
ag78
ag37
ag29
ag181
ag404
ag42
ag43
ag332
ag795
ag45
ag46
ag635
atp1235
Rp1236
sg88
g61
((lp1237
g458
ag69
ag579
ag41
ag416
ag36
ag37
ag78
ag30
ag181
ag404
ag389
ag34
ag45
ag46
ag635
atp1238
Rp1239
sg69
g61
((lp1240
g29
ag795
ag404
ag405
ag33
ag41
ag45
ag46
ag416
ag74
ag635
ag78
atp1241
Rp1242
sg31
g61
((lp1243
g37
atp1244
Rp1245
sg405
g61
((lp1246
g458
ag795
ag34
ag69
ag237
ag49
ag579
ag41
ag416
ag36
ag37
ag30
ag235
ag181
ag404
ag313
ag839
ag389
ag43
ag44
ag246
ag45
ag46
ag47
ag635
ag32
atp1247
Rp1248
sg303
g61
((lp1249
g795
ag181
ag404
ag405
ag42
ag43
ag44
ag332
ag41
ag37
ag175
atp1250
Rp1251
sg33
g61
((lp1252
g29
ag795
ag69
ag405
ag41
ag45
ag46
ag416
ag74
ag635
ag78
ag404
atp1253
Rp1254
sg416
g61
((lp1255
g28
ag795
ag46
ag237
ag405
ag33
ag41
ag38
ag74
ag37
ag78
ag30
ag29
ag42
ag43
ag332
ag589
ag69
ag48
atp1256
Rp1257
sg82
g61
((lp1258
g458
ag795
ag69
ag405
ag579
ag41
ag416
ag37
ag78
ag30
ag29
ag181
ag404
ag389
ag34
ag45
ag46
ag635
atp1259
Rp1260
sg418
g61
((lp1261
g28
ag38
ag30
ag31
ag237
ag405
ag32
ag399
ag41
ag416
ag74
ag78
ag29
ag39
ag404
ag42
ag389
ag43
ag44
ag332
ag795
ag45
ag46
ag175
ag635
ag320
atp1262
Rp1263
sg442
g61
((lp1264
g458
ag34
ag69
ag237
ag405
ag49
ag579
ag41
ag416
ag36
ag37
ag30
ag235
ag181
ag404
ag313
ag839
ag389
ag43
ag44
ag246
ag45
ag46
ag47
ag635
ag32
atp1265
Rp1266
sg39
g61
((lp1267
g28
ag38
ag30
ag237
ag405
ag32
ag399
ag41
ag74
ag37
ag78
ag29
ag404
ag42
ag389
ag43
ag44
ag332
ag795
ag46
ag175
ag320
atp1268
Rp1269
sg399
g61
((lp1270
g38
ag795
ag181
ag404
ag405
ag42
ag389
ag43
ag44
ag41
ag37
ag78
ag175
ag30
atp1271
Rp1272
sg34
g61
((lp1273
g29
ag28
ag30
ag237
ag405
ag42
ag43
ag332
ag795
ag41
ag46
ag74
ag38
ag78
atp1274
Rp1275
sg307
g61
((lp1276
g458
ag795
ag181
ag404
ag405
ag42
ag49
ag43
ag44
ag41
ag45
ag416
ag34
ag635
ag37
atp1277
Rp1278
sg47
g61
((lp1279
g795
ag181
ag404
ag237
ag405
ag42
ag32
ag43
ag44
ag313
ag41
ag37
ag49
atp1280
Rp1281
ssS'beta_triggers'
p1282
g409
(g61
tp1283
Rp1284
(g29
I01
tp1285
(lp1286
I8
aI9
aI10
aI13
aI14
aI16
aI17
aI18
aI21
aI22
aI23
aI24
aI25
aI26
aI27
aI30
aI31
aI33
aI36
as(g34
I00
tp1287
(lp1288
I3
aI4
aI7
aI8
aI10
aI35
aI36
as(g458
I00
tp1289
(lp1290
I3
aI4
aI7
aI8
aI10
aI35
aI36
as(g320
I01
tp1291
(lp1292
I4
aI5
aI6
aI9
aI10
aI12
aI13
aI15
aI17
aI18
aI22
aI26
aI28
aI35
aI36
as(g43
I01
tp1293
(lp1294
I0
aI34
aI35
as(g37
I00
tp1295
g61
((lp1296
tp1297
Rp1298
s(g246
I00
tp1299
(lp1300
I7
aI8
aI10
aI15
aI16
aI21
aI36
as(g33
I01
tp1301
(lp1302
I3
aI5
aI6
aI23
aI24
aI25
aI26
aI27
as(g235
I00
tp1303
(lp1304
I15
aI17
aI21
aI22
as(g78
I01
tp1305
(lp1306
I8
aI10
aI11
aI12
aI13
aI14
aI16
aI18
aI19
aI20
aI21
aI22
aI23
aI24
aI25
aI26
as(g32
I01
tp1307
(lp1308
I4
aI5
aI6
aI8
aI9
aI11
aI14
aI15
aI16
aI17
aI21
aI25
aI28
aI35
aI36
as(g46
I01
tp1309
(lp1310
I8
aI9
aI10
aI13
aI14
aI16
aI17
aI18
aI21
aI22
aI23
aI24
aI25
aI26
aI27
aI35
aI36
as(g589
I01
tp1311
(lp1312
I0
aI3
aI5
aI6
aI23
aI24
aI25
aI26
aI27
as(g69
I01
tp1313
(lp1314
I3
aI5
aI6
aI7
aI8
aI10
aI15
aI16
aI18
aI23
aI24
aI25
aI26
aI27
aI34
aI35
aI36
as(g41
I01
tp1315
(lp1316
s(g28
I01
tp1317
(lp1318
I0
aI8
aI9
aI10
aI13
aI14
aI16
aI17
aI18
aI21
aI22
aI23
aI24
aI25
aI26
aI27
aI34
aI35
aI36
as(g341
I00
tp1319
(lp1320
I30
aI32
aI33
as(g31
I00
tp1321
(lp1322
s(g42
I01
tp1323
(lp1324
I0
aI30
aI31
aI32
aI34
aI35
as(g37
I01
tp1325
(lp1326
I0
as(g47
I00
tp1327
(lp1328
I7
aI8
aI9
aI13
aI15
aI16
aI17
aI21
as(g313
I00
tp1329
(lp1330
I7
aI9
aI13
aI14
aI15
aI17
aI21
aI22
as(g34
I01
tp1331
g61
((lp1332
tp1333
Rp1334
s(g38
I01
tp1335
(lp1336
I0
aI8
aI10
aI11
aI12
aI13
aI14
aI16
aI18
aI19
aI20
aI21
aI22
aI23
aI24
aI25
aI26
aI34
aI35
as(g125
I00
tp1337
(lp1338
I7
aI8
aI10
aI15
aI16
aI18
aI36
as(g203
I00
tp1339
(lp1340
I15
aI17
aI18
aI22
as(g45
I00
tp1341
(lp1342
I3
aI4
aI7
aI8
aI10
aI35
aI36
as(g404
I01
tp1343
g61
((lp1344
tp1345
Rp1346
s(g44
I00
tp1347
(lp1348
I7
aI9
aI10
aI14
aI15
aI17
aI18
aI22
as(g795
I01
tp1349
(lp1350
I1
aI2
as(g579
I00
tp1351
(lp1352
I0
aI7
aI8
aI10
aI15
aI16
aI18
aI34
aI35
aI36
as(g839
I00
tp1353
(lp1354
I15
aI16
aI17
aI21
as(g39
I01
tp1355
(lp1356
I4
aI5
aI6
aI8
aI9
aI10
aI13
aI14
aI35
aI36
as(g175
I01
tp1357
(lp1358
I4
aI5
aI6
aI15
aI18
aI22
aI23
aI26
aI27
aI35
as(g237
I01
tp1359
(lp1360
I0
aI8
aI9
aI11
aI14
aI16
aI17
aI19
aI22
aI24
aI26
aI27
aI28
aI29
aI34
aI35
aI36
as(g635
I00
tp1361
(lp1362
I3
aI4
aI7
aI8
aI10
aI35
aI36
as(g347
I00
tp1363
(lp1364
I31
aI32
aI33
as(g399
I01
tp1365
(lp1366
I4
aI5
aI6
aI8
aI10
aI11
aI12
aI13
aI14
aI15
aI16
aI18
aI27
aI35
as(g44
I01
tp1367
(lp1368
I4
aI5
aI6
aI15
aI16
aI21
aI24
aI25
aI27
aI35
as(g615
I00
tp1369
(lp1370
I1
aI7
aI8
aI10
aI15
aI16
aI18
aI36
as(g74
I01
tp1371
(lp1372
I1
aI2
aI8
aI9
aI10
aI13
aI14
aI16
aI17
aI18
aI21
aI22
aI23
aI24
aI25
aI26
aI27
aI36
as(g404
I00
tp1373
(lp1374
s(g49
I00
tp1375
(lp1376
I7
aI8
aI13
aI15
aI16
aI21
aI36
as(g30
I01
tp1377
(lp1378
I0
aI8
aI10
aI11
aI12
aI13
aI14
aI16
aI18
aI19
aI20
aI21
aI22
aI23
aI24
aI25
aI26
as(g35
I00
tp1379
(lp1380
I3
aI5
as(g1024
I01
tp1381
g61
((lp1382
tp1383
Rp1384
s(g48
I01
tp1385
(lp1386
I3
aI5
aI6
aI23
aI24
aI25
aI26
aI27
as(g330
I00
tp1387
(lp1388
I7
aI8
aI10
aI15
aI18
aI22
aI36
as(g69
I00
tp1389
g61
((lp1390
tp1391
Rp1392
s(g405
I01
tp1393
(lp1394
I1
aI2
as(g332
I01
tp1395
(lp1396
I0
aI9
aI10
aI12
aI13
aI17
aI18
aI20
aI21
aI23
aI25
aI27
aI28
aI29
aI34
aI35
aI36
as(g389
I00
tp1397
g61
((lp1398
tp1399
Rp1400
s(g181
I00
tp1401
(lp1402
s(g36
I00
tp1403
(lp1404
I7
aI8
aI10
aI15
aI16
aI18
aI35
aI36
as(g389
I01
tp1405
(lp1406
I4
aI5
aI6
aI8
aI10
aI11
aI12
aI13
aI14
aI15
aI16
aI18
aI27
as(g84
I00
tp1407
(lp1408
I2
as(g416
I01
tp1409
(lp1410
I7
aI8
aI10
aI35
aI36
as(g32
I00
tp1411
(lp1412
I7
aI10
aI14
aI15
aI18
aI22
aI36
as(g46
I00
tp1413
(lp1414
I7
aI8
aI10
aI15
aI16
aI18
aI34
aI35
aI36
assbsS'_generator'
p1415
(dp1416
sbsbcsympy.core.numbers
NegativeOne
p1417
(I-1
tp1418
Rp1419
(dp1420
btp1421
Rp1422
(dp1423
btp1424
Rp1425
(dp1426
bg2
(g3
(I-1
I4
tp1427
Rp1428
(dp1429
bg18
(S'a0'
p1430
tp1431
Rp1432
(dp1433
g23
g24
(g25
g26
(dp1434
S'real'
p1435
NsS'irrational'
p1436
NsS'antihermitian'
p1437
NsS'extended_nonpositive'
p1438
NsS'negative'
p1439
NsS'algebraic'
p1440
NsS'hermitian'
p1441
NsS'infinite'
p1442
NsS'integer'
p1443
NsS'imaginary'
p1444
NsS'odd'
p1445
NsS'even'
p1446
NsS'extended_real'
p1447
NsS'commutative'
p1448
I01
sS'positive'
p1449
NsS'zero'
p1450
NsS'extended_negative'
p1451
NsS'complex'
p1452
NsS'rational'
p1453
NsS'extended_positive'
p1454
NsS'finite'
p1455
NsS'extended_nonnegative'
p1456
Nstp1457
Rp1458
(dp1459
g53
g24
(g54
g55
Ntp1460
Rp1461
(dp1462
g59
(lp1463
(g61
((lp1464
(S'algebraic'
p1465
I00
tp1466
a(S'complex'
p1467
I01
tp1468
atp1469
Rp1470
(S'transcendental'
p1471
I01
tp1472
tp1473
a(g61
((lp1474
(g1446
I00
tp1475
a(S'integer'
p1476
I01
tp1477
atp1478
Rp1479
(S'odd'
p1480
I01
tp1481
tp1482
a(g61
((lp1483
(S'integer'
p1484
I01
tp1485
a(g1445
I00
tp1486
atp1487
Rp1488
(S'even'
p1489
I01
tp1490
tp1491
a(g61
((lp1492
(S'real'
p1493
I00
tp1494
a(g1442
I00
tp1495
atp1496
Rp1497
(S'extended_real'
p1498
I00
tp1499
tp1500
a(g61
((lp1501
(g1493
I00
tp1502
a(g1498
I01
tp1503
atp1504
Rp1505
(g1442
I01
tp1506
tp1507
a(g61
((lp1508
(g1442
I00
tp1509
a(g1498
I01
tp1510
atp1511
Rp1512
(g1493
I01
tp1513
tp1514
a(g61
((lp1515
(S'extended_real'
p1516
I01
tp1517
a(S'finite'
p1518
I01
tp1519
atp1520
Rp1521
(S'real'
p1522
I01
tp1523
tp1524
a(g61
((lp1525
(S'zero'
p1526
I00
tp1527
a(S'extended_negative'
p1528
I00
tp1529
a(S'extended_positive'
p1530
I00
tp1531
atp1532
Rp1533
(S'extended_real'
p1534
I00
tp1535
tp1536
a(g61
((lp1537
(g1526
I00
tp1538
a(g1534
I01
tp1539
a(g1530
I00
tp1540
atp1541
Rp1542
(g1528
I01
tp1543
tp1544
a(g61
((lp1545
(g1530
I00
tp1546
a(g1534
I01
tp1547
a(g1528
I00
tp1548
atp1549
Rp1550
(g1526
I01
tp1551
tp1552
a(g61
((lp1553
(g1526
I00
tp1554
a(g1534
I01
tp1555
a(g1528
I00
tp1556
atp1557
Rp1558
(g1530
I01
tp1559
tp1560
a(g61
((lp1561
(S'extended_nonzero'
p1562
I01
tp1563
a(S'extended_nonpositive'
p1564
I01
tp1565
atp1566
Rp1567
(S'extended_negative'
p1568
I01
tp1569
tp1570
a(g61
((lp1571
(S'extended_nonzero'
p1572
I01
tp1573
a(g1456
I01
tp1574
atp1575
Rp1576
(g1454
I01
tp1577
tp1578
a(g61
((lp1579
(S'extended_positive'
p1580
I00
tp1581
a(S'extended_real'
p1582
I01
tp1583
atp1584
Rp1585
(S'extended_nonpositive'
p1586
I01
tp1587
tp1588
a(g61
((lp1589
(S'extended_real'
p1590
I01
tp1591
a(S'extended_negative'
p1592
I00
tp1593
atp1594
Rp1595
(S'extended_nonnegative'
p1596
I01
tp1597
tp1598
a(g61
((lp1599
(S'zero'
p1600
I00
tp1601
a(S'positive'
p1602
I00
tp1603
a(S'negative'
p1604
I00
tp1605
atp1606
Rp1607
(S'real'
p1608
I00
tp1609
tp1610
a(g61
((lp1611
(g1608
I01
tp1612
a(g1600
I00
tp1613
a(g1602
I00
tp1614
atp1615
Rp1616
(g1604
I01
tp1617
tp1618
a(g61
((lp1619
(g1608
I01
tp1620
a(g1602
I00
tp1621
a(g1604
I00
tp1622
atp1623
Rp1624
(g1600
I01
tp1625
tp1626
a(g61
((lp1627
(g1608
I01
tp1628
a(g1600
I00
tp1629
a(g1604
I00
tp1630
atp1631
Rp1632
(g1602
I01
tp1633
tp1634
a(g61
((lp1635
(S'nonzero'
p1636
I01
tp1637
a(S'nonpositive'
p1638
I01
tp1639
atp1640
Rp1641
(g1439
I01
tp1642
tp1643
a(g61
((lp1644
(S'nonzero'
p1645
I01
tp1646
a(S'nonnegative'
p1647
I01
tp1648
atp1649
Rp1650
(S'positive'
p1651
I01
tp1652
tp1653
a(g61
((lp1654
(S'real'
p1655
I01
tp1656
a(S'positive'
p1657
I00
tp1658
atp1659
Rp1660
(S'nonpositive'
p1661
I01
tp1662
tp1663
a(g61
((lp1664
(S'real'
p1665
I01
tp1666
a(S'negative'
p1667
I00
tp1668
atp1669
Rp1670
(S'nonnegative'
p1671
I01
tp1672
tp1673
a(g61
((lp1674
(S'finite'
p1675
I01
tp1676
a(S'extended_positive'
p1677
I01
tp1678
atp1679
Rp1680
(g1449
I01
tp1681
tp1682
a(g61
((lp1683
(g1451
I01
tp1684
a(S'finite'
p1685
I01
tp1686
atp1687
Rp1688
(S'negative'
p1689
I01
tp1690
tp1691
a(g61
((lp1692
(S'finite'
p1693
I01
tp1694
a(g1438
I01
tp1695
atp1696
Rp1697
(S'nonpositive'
p1698
I01
tp1699
tp1700
a(g61
((lp1701
(S'finite'
p1702
I01
tp1703
a(S'extended_nonnegative'
p1704
I01
tp1705
atp1706
Rp1707
(S'nonnegative'
p1708
I01
tp1709
tp1710
a(g61
((lp1711
(S'finite'
p1712
I01
tp1713
a(S'extended_nonzero'
p1714
I01
tp1715
atp1716
Rp1717
(S'nonzero'
p1718
I01
tp1719
tp1720
a(g61
((lp1721
(S'extended_nonpositive'
p1722
I01
tp1723
a(S'extended_nonnegative'
p1724
I01
tp1725
atp1726
Rp1727
(S'zero'
p1728
I01
tp1729
tp1730
a(g61
((lp1731
(S'nonnegative'
p1732
I01
tp1733
a(S'nonpositive'
p1734
I01
tp1735
atp1736
Rp1737
(g1450
I01
tp1738
tp1739
a(g61
((lp1740
(S'even'
p1741
I01
tp1742
a(S'prime'
p1743
I00
tp1744
a(S'positive'
p1745
I01
tp1746
atp1747
Rp1748
(S'composite'
p1749
I01
tp1750
tp1751
a(g61
((lp1752
(g1741
I01
tp1753
a(g1749
I00
tp1754
a(g1745
I01
tp1755
atp1756
Rp1757
(g1743
I01
tp1758
tp1759
a(g61
((lp1760
(g1743
I00
tp1761
a(g1749
I00
tp1762
a(g1745
I01
tp1763
atp1764
Rp1765
(g1741
I00
tp1766
tp1767
a(g61
((lp1768
(g1741
I01
tp1769
a(g1743
I00
tp1770
a(g1749
I00
tp1771
atp1772
Rp1773
(g1745
I00
tp1774
tp1775
a(g61
((lp1776
(S'real'
p1777
I01
tp1778
a(g1453
I00
tp1779
atp1780
Rp1781
(g1436
I01
tp1782
tp1783
a(g61
((lp1784
(S'integer'
p1785
I00
tp1786
a(S'extended_real'
p1787
I01
tp1788
atp1789
Rp1790
(S'noninteger'
p1791
I01
tp1792
tp1793
a(g61
((lp1794
(S'zero'
p1795
I00
tp1796
a(S'extended_real'
p1797
I01
tp1798
atp1799
Rp1800
(S'extended_nonzero'
p1801
I01
tp1802
tp1803
asg402
g61
((lp1804
g1734
ag1441
ag1445
ag1446
aS'commutative'
p1805
ag1449
ag1791
ag1439
ag1451
ag1452
ag1453
ag1455
ag1438
ag1435
ag1718
ag1436
ag1437
aS'composite'
p1806
ag1456
ag1714
ag1442
ag1443
ag1444
ag1743
ag1447
ag1440
ag1450
ag1647
ag1530
ag1471
atp1807
Rp1808
sg408
g409
(g61
tp1809
Rp1810
(g1446
I01
tp1811
g61
((lp1812
(S'real'
p1813
I01
tp1814
a(S'finite'
p1815
I01
tp1816
a(S'imaginary'
p1817
I00
tp1818
a(g1447
I01
tp1819
a(g1440
I01
tp1820
a(g1791
I00
tp1821
a(S'complex'
p1822
I01
tp1823
a(g1484
I01
tp1824
a(g1436
I00
tp1825
a(g1480
I00
tp1826
a(g1805
I01
tp1827
a(g1453
I01
tp1828
a(S'infinite'
p1829
I00
tp1830
a(g1471
I00
tp1831
a(g1441
I01
tp1832
atp1833
Rp1834
s(g1441
I00
tp1835
g61
((lp1836
(S'zero'
p1837
I00
tp1838
a(S'positive'
p1839
I00
tp1840
a(S'prime'
p1841
I00
tp1842
a(g1734
I00
tp1843
a(g1806
I00
tp1844
a(g1708
I00
tp1845
a(g1813
I00
tp1846
a(g1443
I00
tp1847
a(S'nonzero'
p1848
I00
tp1849
a(g1489
I00
tp1850
a(g1436
I00
tp1851
a(g1480
I00
tp1852
a(g1453
I00
tp1853
a(g1439
I00
tp1854
atp1855
Rp1856
s(S'real'
p1857
I00
tp1858
g61
((lp1859
(g1600
I00
tp1860
a(g1602
I00
tp1861
a(g1848
I00
tp1862
a(g1661
I00
tp1863
a(g1806
I00
tp1864
a(g1671
I00
tp1865
a(g1443
I00
tp1866
a(g1841
I00
tp1867
a(g1489
I00
tp1868
a(g1436
I00
tp1869
a(g1480
I00
tp1870
a(S'rational'
p1871
I00
tp1872
a(g1604
I00
tp1873
atp1874
Rp1875
s(g1724
I01
tp1876
g61
((lp1877
(g1817
I00
tp1878
a(g1590
I01
tp1879
a(g1592
I00
tp1880
a(g1439
I00
tp1881
a(g1805
I01
tp1882
atp1883
Rp1884
s(g1439
I01
tp1885
g61
((lp1886
(g1608
I01
tp1887
a(g1636
I01
tp1888
a(g1839
I00
tp1889
a(g1841
I00
tp1890
a(g1638
I01
tp1891
a(g1530
I00
tp1892
a(g1447
I01
tp1893
a(g1671
I00
tp1894
a(g1801
I01
tp1895
a(g1817
I00
tp1896
a(g1451
I01
tp1897
a(g1685
I01
tp1898
a(g1837
I00
tp1899
a(g1441
I01
tp1900
a(g1438
I01
tp1901
a(g1806
I00
tp1902
a(g1805
I01
tp1903
a(g1829
I00
tp1904
a(g1822
I01
tp1905
a(g1704
I00
tp1906
atp1907
Rp1908
s(g1444
I00
tp1909
g61
((lp1910
tp1911
Rp1912
s(g1647
I00
tp1913
g61
((lp1914
(g1450
I00
tp1915
a(g1651
I00
tp1916
a(g1841
I00
tp1917
a(g1806
I00
tp1918
atp1919
Rp1920
s(g1440
I01
tp1921
g61
((lp1922
(g1805
I01
tp1923
a(g1829
I00
tp1924
a(g1822
I01
tp1925
a(g1471
I00
tp1926
a(g1815
I01
tp1927
atp1928
Rp1929
s(g1604
I00
tp1930
g61
((lp1931
tp1932
Rp1933
s(g1455
I01
tp1934
g61
((lp1935
(g1829
I00
tp1936
atp1937
Rp1938
s(g1480
I01
tp1939
g61
((lp1940
(g1813
I01
tp1941
a(g1837
I00
tp1942
a(g1446
I00
tp1943
a(g1817
I00
tp1944
a(g1447
I01
tp1945
a(g1440
I01
tp1946
a(g1718
I01
tp1947
a(g1801
I01
tp1948
a(g1791
I00
tp1949
a(g1815
I01
tp1950
a(g1822
I01
tp1951
a(g1476
I01
tp1952
a(g1436
I00
tp1953
a(g1805
I01
tp1954
a(g1453
I01
tp1955
a(g1829
I00
tp1956
a(g1471
I00
tp1957
a(g1441
I01
tp1958
atp1959
Rp1960
s(g1453
I00
tp1961
g61
((lp1962
(g1837
I00
tp1963
a(g1489
I00
tp1964
a(g1806
I00
tp1965
a(S'integer'
p1966
I00
tp1967
a(g1841
I00
tp1968
a(g1480
I00
tp1969
atp1970
Rp1971
s(g1438
I01
tp1972
g61
((lp1973
(g1839
I00
tp1974
a(g1806
I00
tp1975
a(g1580
I00
tp1976
a(g1582
I01
tp1977
a(g1841
I00
tp1978
a(g1817
I00
tp1979
a(g1805
I01
tp1980
atp1981
Rp1982
s(g1453
I01
tp1983
g61
((lp1984
(S'real'
p1985
I01
tp1986
a(g1815
I01
tp1987
a(g1817
I00
tp1988
a(g1447
I01
tp1989
a(S'algebraic'
p1990
I01
tp1991
a(g1822
I01
tp1992
a(g1436
I00
tp1993
a(g1805
I01
tp1994
a(g1829
I00
tp1995
a(g1471
I00
tp1996
a(g1441
I01
tp1997
atp1998
Rp1999
s(S'complex'
p2000
I01
tp2001
g61
((lp2002
(g1805
I01
tp2003
a(g1829
I00
tp2004
a(g1815
I01
tp2005
atp2006
Rp2007
s(g1471
I01
tp2008
g61
((lp2009
(g1837
I00
tp2010
a(g1489
I00
tp2011
a(g1465
I00
tp2012
a(g1806
I00
tp2013
a(g1443
I00
tp2014
a(g1841
I00
tp2015
a(g1467
I01
tp2016
a(g1480
I00
tp2017
a(g1805
I01
tp2018
a(g1829
I00
tp2019
a(g1453
I00
tp2020
a(g1815
I01
tp2021
atp2022
Rp2023
s(g1450
I01
tp2024
g61
((lp2025
(S'even'
p2026
I01
tp2027
a(g1722
I01
tp2028
a(g1817
I00
tp2029
a(g1440
I01
tp2030
a(g1724
I01
tp2031
a(g1453
I01
tp2032
a(g1822
I01
tp2033
a(g1441
I01
tp2034
a(g1608
I01
tp2035
a(g1841
I00
tp2036
a(g1530
I00
tp2037
a(g1801
I00
tp2038
a(g1439
I00
tp2039
a(g1805
I01
tp2040
a(g1568
I00
tp2041
a(g1839
I00
tp2042
a(g1806
I00
tp2043
a(g1734
I01
tp2044
a(g1534
I01
tp2045
a(g1848
I00
tp2046
a(g1476
I01
tp2047
a(g1829
I00
tp2048
a(S'finite'
p2049
I01
tp2050
a(g1732
I01
tp2051
a(g1791
I00
tp2052
a(g1436
I00
tp2053
a(g1480
I00
tp2054
a(g1471
I00
tp2055
atp2056
Rp2057
s(g1435
I01
tp2058
g61
((lp2059
(g1829
I00
tp2060
a(g1817
I00
tp2061
a(g1516
I01
tp2062
a(g1518
I01
tp2063
a(g1805
I01
tp2064
a(S'complex'
p2065
I01
tp2066
a(g1441
I01
tp2067
atp2068
Rp2069
s(g1743
I00
tp2070
g61
((lp2071
tp2072
Rp2073
s(g1449
I01
tp2074
g61
((lp2075
(g1608
I01
tp2076
a(g1837
I00
tp2077
a(g1675
I01
tp2078
a(g1661
I00
tp2079
a(g1677
I01
tp2080
a(g1817
I00
tp2081
a(g1447
I01
tp2082
a(g1801
I01
tp2083
a(g1645
I01
tp2084
a(g1647
I01
tp2085
a(g1822
I01
tp2086
a(g1441
I01
tp2087
a(g1724
I01
tp2088
a(g1438
I00
tp2089
a(g1805
I01
tp2090
a(g1829
I00
tp2091
a(g1439
I00
tp2092
a(g1568
I00
tp2093
atp2094
Rp2095
s(g1444
I01
tp2096
g61
((lp2097
(g1837
I00
tp2098
a(g1857
I00
tp2099
a(g1708
I00
tp2100
a(g1452
I01
tp2101
a(g1439
I00
tp2102
a(g1841
I00
tp2103
a(g1530
I00
tp2104
a(g1437
I01
tp2105
a(g1714
I00
tp2106
a(g1568
I00
tp2107
a(g1805
I01
tp2108
a(g1815
I01
tp2109
a(g1839
I00
tp2110
a(g1806
I00
tp2111
a(g1489
I00
tp2112
a(g1704
I00
tp2113
a(g1829
I00
tp2114
a(g1848
I00
tp2115
a(g1734
I00
tp2116
a(g1447
I00
tp2117
a(g1791
I00
tp2118
a(g1443
I00
tp2119
a(g1436
I00
tp2120
a(g1480
I00
tp2121
a(g1438
I00
tp2122
a(g1453
I00
tp2123
atp2124
Rp2125
s(g1801
I01
tp2126
g61
((lp2127
(g1817
I00
tp2128
a(g1805
I01
tp2129
a(g1797
I01
tp2130
a(g1795
I00
tp2131
atp2132
Rp2133
s(g1530
I00
tp2134
g61
((lp2135
(g1449
I00
tp2136
a(g1841
I00
tp2137
a(g1806
I00
tp2138
atp2139
Rp2140
s(g1714
I00
tp2141
g61
((lp2142
(g1839
I00
tp2143
a(g1718
I00
tp2144
a(g1454
I00
tp2145
a(g1806
I00
tp2146
a(g1841
I00
tp2147
a(g1568
I00
tp2148
a(g1439
I00
tp2149
atp2150
Rp2151
s(g1718
I01
tp2152
g61
((lp2153
(g1857
I01
tp2154
a(g1837
I00
tp2155
a(g1712
I01
tp2156
a(g1817
I00
tp2157
a(g1447
I01
tp2158
a(g1714
I01
tp2159
a(g1822
I01
tp2160
a(g1805
I01
tp2161
a(g1829
I00
tp2162
a(g1441
I01
tp2163
atp2164
Rp2165
s(g1526
I00
tp2166
g61
((lp2167
tp2168
Rp2169
s(g1441
I01
tp2170
g61
((lp2171
tp2172
Rp2173
s(g1452
I00
tp2174
g61
((lp2175
(g1837
I00
tp2176
a(g1839
I00
tp2177
a(g1841
I00
tp2178
a(g1734
I00
tp2179
a(S'imaginary'
p2180
I00
tp2181
a(g1440
I00
tp2182
a(g1806
I00
tp2183
a(g1708
I00
tp2184
a(g1471
I00
tp2185
a(g1435
I00
tp2186
a(g1443
I00
tp2187
a(g1848
I00
tp2188
a(g1489
I00
tp2189
a(g1436
I00
tp2190
a(g1480
I00
tp2191
a(g1453
I00
tp2192
a(g1439
I00
tp2193
atp2194
Rp2195
s(g1805
I01
tp2196
g61
((lp2197
tp2198
Rp2199
s(g1451
I00
tp2200
g61
((lp2201
(g1689
I00
tp2202
atp2203
Rp2204
s(S'prime'
p2205
I01
tp2206
g61
((lp2207
(g1718
I01
tp2208
a(g1837
I00
tp2209
a(g1817
I00
tp2210
a(g1801
I01
tp2211
a(g1439
I00
tp2212
a(g1724
I01
tp2213
a(g1453
I01
tp2214
a(g1822
I01
tp2215
a(g1441
I01
tp2216
a(g1813
I01
tp2217
a(g1839
I01
tp2218
a(g1568
I00
tp2219
a(g1805
I01
tp2220
a(g1447
I01
tp2221
a(g1454
I01
tp2222
a(g1806
I00
tp2223
a(g1440
I01
tp2224
a(S'integer'
p2225
I01
tp2226
a(g1829
I00
tp2227
a(g1815
I01
tp2228
a(g1734
I00
tp2229
a(g1732
I01
tp2230
a(g1791
I00
tp2231
a(g1436
I00
tp2232
a(g1438
I00
tp2233
a(g1471
I00
tp2234
atp2235
Rp2236
s(S'positive'
p2237
I00
tp2238
g61
((lp2239
(g1841
I00
tp2240
a(g1806
I00
tp2241
atp2242
Rp2243
s(g1749
I00
tp2244
g61
((lp2245
tp2246
Rp2247
s(g1454
I01
tp2248
g61
((lp2249
(g1837
I00
tp2250
a(g1734
I00
tp2251
a(g1817
I00
tp2252
a(g1534
I01
tp2253
a(g1572
I01
tp2254
a(g1568
I00
tp2255
a(g1456
I01
tp2256
a(g1586
I00
tp2257
a(g1805
I01
tp2258
a(g1439
I00
tp2259
atp2260
Rp2261
s(g1638
I01
tp2262
g61
((lp2263
(g1655
I01
tp2264
a(g1657
I00
tp2265
a(g1806
I00
tp2266
a(g1530
I00
tp2267
a(g1447
I01
tp2268
a(g1841
I00
tp2269
a(g1822
I01
tp2270
a(g1438
I01
tp2271
a(g1817
I00
tp2272
a(g1805
I01
tp2273
a(g1829
I00
tp2274
a(g1441
I01
tp2275
a(g1693
I01
tp2276
atp2277
Rp2278
s(g2049
I00
tp2279
g61
((lp2280
(g1837
I00
tp2281
a(g1449
I00
tp2282
a(g1841
I00
tp2283
a(g1698
I00
tp2284
a(g1817
I00
tp2285
a(g1465
I00
tp2286
a(g1806
I00
tp2287
a(g1708
I00
tp2288
a(g1453
I00
tp2289
a(g1718
I00
tp2290
a(g1443
I00
tp2291
a(g1522
I00
tp2292
a(g1489
I00
tp2293
a(g1436
I00
tp2294
a(g1480
I00
tp2295
a(g2000
I00
tp2296
a(g1471
I00
tp2297
a(g1689
I00
tp2298
atp2299
Rp2300
s(g1447
I01
tp2301
g61
((lp2302
(g1817
I00
tp2303
a(S'commutative'
p2304
I01
tp2305
atp2306
Rp2307
s(g1437
I00
tp2308
g61
((lp2309
(g1444
I00
tp2310
atp2311
Rp2312
s(g1451
I01
tp2313
g61
((lp2314
(g1837
I00
tp2315
a(g1839
I00
tp2316
a(g1806
I00
tp2317
a(g1817
I00
tp2318
a(g1534
I01
tp2319
a(g1708
I00
tp2320
a(g1562
I01
tp2321
a(g1841
I00
tp2322
a(g1564
I01
tp2323
a(g1530
I00
tp2324
a(g1805
I01
tp2325
a(g1596
I00
tp2326
atp2327
Rp2328
s(g2026
I00
tp2329
g61
((lp2330
(g1837
I00
tp2331
atp2332
Rp2333
s(g1476
I01
tp2334
g61
((lp2335
(g1813
I01
tp2336
a(g1815
I01
tp2337
a(g1817
I00
tp2338
a(g1447
I01
tp2339
a(g1440
I01
tp2340
a(g1791
I00
tp2341
a(g1822
I01
tp2342
a(g1436
I00
tp2343
a(g1805
I01
tp2344
a(S'rational'
p2345
I01
tp2346
a(g1829
I00
tp2347
a(g1471
I00
tp2348
a(g1441
I01
tp2349
atp2350
Rp2351
s(g1805
I00
tp2352
g61
((lp2353
(g1837
I00
tp2354
a(g1857
I00
tp2355
a(g1817
I00
tp2356
a(g1708
I00
tp2357
a(g1439
I00
tp2358
a(g1841
I00
tp2359
a(g1530
I00
tp2360
a(g1465
I00
tp2361
a(g1714
I00
tp2362
a(g1568
I00
tp2363
a(S'complex'
p2364
I00
tp2365
a(g1839
I00
tp2366
a(g1806
I00
tp2367
a(g1489
I00
tp2368
a(g1438
I00
tp2369
a(g1848
I00
tp2370
a(g1734
I00
tp2371
a(S'extended_real'
p2372
I00
tp2373
a(g1471
I00
tp2374
a(g1791
I00
tp2375
a(g1443
I00
tp2376
a(g1436
I00
tp2377
a(g1480
I00
tp2378
a(g1704
I00
tp2379
a(g1453
I00
tp2380
atp2381
Rp2382
s(g1438
I00
tp2383
g61
((lp2384
(g1728
I00
tp2385
a(g1698
I00
tp2386
a(g1568
I00
tp2387
a(g1439
I00
tp2388
atp2389
Rp2390
s(g1436
I01
tp2391
g61
((lp2392
(g1777
I01
tp2393
a(g1837
I00
tp2394
a(g1806
I00
tp2395
a(g1841
I00
tp2396
a(g1817
I00
tp2397
a(g1447
I01
tp2398
a(g1801
I01
tp2399
a(g1718
I01
tp2400
a(g1443
I00
tp2401
a(g1489
I00
tp2402
a(g1822
I01
tp2403
a(g1480
I00
tp2404
a(g1805
I01
tp2405
a(g1791
I01
tp2406
a(g1829
I00
tp2407
a(g1453
I00
tp2408
a(g1441
I01
tp2409
a(g1815
I01
tp2410
atp2411
Rp2412
s(g1442
I00
tp2413
g61
((lp2414
tp2415
Rp2416
s(g1732
I01
tp2417
g61
((lp2418
(g1665
I01
tp2419
a(g1702
I01
tp2420
a(g1817
I00
tp2421
a(g1441
I01
tp2422
a(g1447
I01
tp2423
a(g1822
I01
tp2424
a(g1568
I00
tp2425
a(g1704
I01
tp2426
a(g1805
I01
tp2427
a(g1829
I00
tp2428
a(g1667
I00
tp2429
atp2430
Rp2431
s(g1636
I00
tp2432
g61
((lp2433
(g1651
I00
tp2434
a(g1841
I00
tp2435
a(g1439
I00
tp2436
a(g1806
I00
tp2437
atp2438
Rp2439
s(g1734
I00
tp2440
g61
((lp2441
(g1450
I00
tp2442
a(g1439
I00
tp2443
atp2444
Rp2445
s(g1471
I00
tp2446
g61
((lp2447
tp2448
Rp2449
s(g1806
I01
tp2450
g61
((lp2451
(g1718
I01
tp2452
a(g1837
I00
tp2453
a(g1817
I00
tp2454
a(g1440
I01
tp2455
a(g1439
I00
tp2456
a(g1724
I01
tp2457
a(g1453
I01
tp2458
a(g1822
I01
tp2459
a(g1441
I01
tp2460
a(g1813
I01
tp2461
a(g2205
I00
tp2462
a(g2237
I01
tp2463
a(g1568
I00
tp2464
a(g1805
I01
tp2465
a(g1454
I01
tp2466
a(g1447
I01
tp2467
a(g1801
I01
tp2468
a(g1443
I01
tp2469
a(g1829
I00
tp2470
a(g1815
I01
tp2471
a(g1734
I00
tp2472
a(g1732
I01
tp2473
a(g1791
I00
tp2474
a(g1436
I00
tp2475
a(g1438
I00
tp2476
a(g1471
I00
tp2477
atp2478
Rp2479
s(S'polar'
p2480
I01
tp2481
g61
((lp2482
tp2483
Rp2484
s(g1791
I00
tp2485
g61
((lp2486
tp2487
Rp2488
s(g1582
I00
tp2489
g61
((lp2490
(g1848
I00
tp2491
a(g1526
I00
tp2492
a(g1839
I00
tp2493
a(g1522
I00
tp2494
a(g1734
I00
tp2495
a(g1530
I00
tp2496
a(g1801
I00
tp2497
a(g1806
I00
tp2498
a(g1708
I00
tp2499
a(g1791
I00
tp2500
a(g1443
I00
tp2501
a(g1841
I00
tp2502
a(g1489
I00
tp2503
a(g1528
I00
tp2504
a(g1436
I00
tp2505
a(g1480
I00
tp2506
a(g1596
I00
tp2507
a(g1453
I00
tp2508
a(g1439
I00
tp2509
a(g1586
I00
tp2510
atp2511
Rp2512
s(g1443
I00
tp2513
g61
((lp2514
(g1837
I00
tp2515
a(g1806
I00
tp2516
a(g1489
I00
tp2517
a(g1841
I00
tp2518
a(g1480
I00
tp2519
atp2520
Rp2521
s(g1791
I01
tp2522
g61
((lp2523
(g1837
I00
tp2524
a(g1787
I01
tp2525
a(g1817
I00
tp2526
a(g1806
I00
tp2527
a(g1801
I01
tp2528
a(g1785
I00
tp2529
a(g1489
I00
tp2530
a(g1480
I00
tp2531
a(g1805
I01
tp2532
a(g1841
I00
tp2533
atp2534
Rp2535
s(g1445
I00
tp2536
g61
((lp2537
tp2538
Rp2539
s(g1829
I01
tp2540
g61
((lp2541
(g1455
I00
tp2542
a(g1837
I00
tp2543
a(g1839
I00
tp2544
a(g1841
I00
tp2545
a(g1734
I00
tp2546
a(g1817
I00
tp2547
a(g1465
I00
tp2548
a(g1806
I00
tp2549
a(g1708
I00
tp2550
a(g1471
I00
tp2551
a(g1857
I00
tp2552
a(g1443
I00
tp2553
a(g1848
I00
tp2554
a(g1489
I00
tp2555
a(g1436
I00
tp2556
a(g1480
I00
tp2557
a(g1452
I00
tp2558
a(g1453
I00
tp2559
a(g1439
I00
tp2560
atp2561
Rp2562
s(g1456
I00
tp2563
g61
((lp2564
(g1728
I00
tp2565
a(g1839
I00
tp2566
a(g1841
I00
tp2567
a(g1454
I00
tp2568
a(g1806
I00
tp2569
a(g1708
I00
tp2570
atp2571
Rp2572
s(g1990
I00
tp2573
g61
((lp2574
(g1837
I00
tp2575
a(g1841
I00
tp2576
a(g1806
I00
tp2577
a(g1443
I00
tp2578
a(g1489
I00
tp2579
a(g1480
I00
tp2580
a(S'rational'
p2581
I00
tp2582
atp2583
Rp2584
ssg1186
g409
(g61
tp2585
Rp2586
g1734
g61
((lp2587
g1857
ag2205
ag1582
ag1441
ag1805
ag1806
ag1449
ag1438
ag1439
ag1450
ag1452
ag1829
ag1454
ag2049
ag1444
atp2588
Rp2589
sg1837
g61
((lp2590
g1734
ag1441
ag1480
ag2026
ag1805
ag1449
ag1791
ag1439
ag1451
ag1453
ag1452
ag1471
ag2049
ag1456
ag1857
ag1718
ag1436
ag1806
ag1438
ag1801
ag1829
ag1443
ag1444
ag2205
ag1582
ag1990
ag1647
ag1454
atp2591
Rp2592
sg1480
g61
((lp2593
g1857
ag1446
ag1582
ag1436
ag1791
ag1441
ag1453
ag1990
ag1450
ag1452
ag1471
ag1829
ag1443
ag1444
ag2049
ag1805
atp2594
Rp2595
sg1848
g61
((lp2596
g1857
ag2205
ag1582
ag1436
ag1806
ag1449
ag1441
ag1439
ag1714
ag1450
ag1452
ag1829
ag1444
ag2049
ag1480
ag1805
atp2597
Rp2598
sg1805
g61
((lp2599
g1638
ag1450
ag1480
ag1718
ag1449
ag1791
ag1439
ag1451
ag2000
ag1453
ag1724
ag1435
ag1446
ag1436
ag1806
ag1438
ag1440
ag1476
ag1444
ag2205
ag1447
ag1801
ag1732
ag1454
ag1471
atp2600
Rp2601
sg1839
g61
((lp2602
g1857
ag2205
ag1582
ag1805
ag1638
ag1806
ag2049
ag1438
ag1441
ag1451
ag1439
ag1714
ag1450
ag1452
ag1456
ag1829
ag1444
ag1636
ag1530
ag1647
atp2603
Rp2604
sg1791
g61
((lp2605
g1446
ag2205
ag1582
ag1805
ag1806
ag1450
ag1476
ag1444
ag1480
ag1436
atp2606
Rp2607
sg1439
g61
((lp2608
g1857
ag2205
ag1582
ag1805
ag1734
ag1806
ag1449
ag1724
ag1441
ag1451
ag1732
ag1714
ag1450
ag1452
ag1438
ag1829
ag2049
ag1444
ag1636
ag1454
atp2609
Rp2610
sg1592
g61
((lp2611
g2205
ag1582
ag1805
ag1806
ag1449
ag1724
ag1439
ag1732
ag1714
ag1450
ag1438
ag1454
ag1444
atp2612
Rp2613
sg1822
g61
((lp2614
g1435
ag2205
ag2049
ag1436
ag1638
ag1806
ag1449
ag1446
ag1453
ag1439
ag1732
ag1440
ag1450
ag1471
ag1829
ag1476
ag1444
ag1718
ag1480
ag1805
atp2615
Rp2616
sg1453
g61
((lp2617
g1857
ag2205
ag1582
ag1436
ag1806
ag1446
ag1441
ag1990
ag1450
ag1452
ag1471
ag1829
ag1476
ag1444
ag2049
ag1480
ag1805
atp2618
Rp2619
sg1815
g61
((lp2620
g1435
ag2205
ag1436
ag1718
ag1638
ag1806
ag1449
ag1446
ag1439
ag1732
ag1440
ag1450
ag2000
ag1453
ag1829
ag1476
ag1444
ag1471
ag1480
atp2621
Rp2622
sg1704
g61
((lp2623
g2205
ag1582
ag1805
ag1806
ag1449
ag1439
ag1451
ag1732
ag1450
ag1444
ag1454
atp2624
Rp2625
sg1813
g61
((lp2626
g1718
ag1446
ag1582
ag1436
ag1638
ag1806
ag1449
ag1441
ag1439
ag2205
ag1450
ag1452
ag1453
ag1829
ag1476
ag1444
ag1732
ag1480
ag2049
ag1805
atp2627
Rp2628
sg2480
g61
((lp2629
tp2630
Rp2631
sg1436
g61
((lp2632
g1446
ag1857
ag1582
ag1805
ag1806
ag2205
ag1450
ag1441
ag1452
ag1453
ag1829
ag1476
ag1444
ag2049
ag1480
atp2633
Rp2634
sg1437
g61
((lp2635
g1444
atp2636
Rp2637
sg1806
g61
((lp2638
g1638
ag1450
ag1636
ag1805
ag2237
ag1791
ag1439
ag1451
ag1453
ag1452
ag1471
ag2049
ag1438
ag1857
ag1436
ag1456
ag1714
ag1829
ag1443
ag1444
ag2205
ag1582
ag1990
ag1441
ag1647
ag1530
atp2639
Rp2640
sg1438
g61
((lp2641
g2205
ag1582
ag1805
ag1638
ag1806
ag1449
ag1439
ag1451
ag1450
ag1444
ag1454
atp2642
Rp2643
sg1489
g61
((lp2644
g1857
ag1582
ag1436
ag1791
ag1441
ag1453
ag1990
ag1450
ag1452
ag1471
ag1829
ag1443
ag1444
ag2049
ag1480
ag1805
atp2645
Rp2646
sg1440
g61
((lp2647
g1446
ag2205
ag1453
ag1806
ag1450
ag1452
ag1471
ag1829
ag1476
ag2049
ag1480
ag1805
atp2648
Rp2649
sg1829
g61
((lp2650
g1435
ag2205
ag1455
ag1436
ag1638
ag1806
ag1449
ag1446
ag1439
ag1732
ag1440
ag1450
ag2000
ag1453
ag1476
ag1444
ag1718
ag1480
ag1471
atp2651
Rp2652
sg1484
g61
((lp2653
g1857
ag2205
ag1582
ag1441
ag1436
ag1806
ag1446
ag1791
ag1453
ag1990
ag1450
ag1452
ag1471
ag1829
ag1444
ag2049
ag1480
ag1805
atp2654
Rp2655
sg1817
g61
((lp2656
g1638
ag1450
ag1480
ag1718
ag1805
ag1449
ag1791
ag1439
ag1451
ag1452
ag1453
ag2049
ag1724
ag1435
ag1446
ag1436
ag1437
ag1806
ag1438
ag1801
ag1829
ag1476
ag2205
ag1447
ag1732
ag1454
atp2657
Rp2658
sg1841
g61
((lp2659
g1638
ag1450
ag1636
ag1805
ag2237
ag1791
ag1439
ag1451
ag1453
ag1452
ag1471
ag2049
ag1438
ag1857
ag1436
ag1806
ag1456
ag1714
ag1829
ag1443
ag1444
ag1582
ag1990
ag1441
ag1647
ag1530
atp2660
Rp2661
sg1447
g61
((lp2662
g1638
ag1450
ag1480
ag1718
ag1805
ag1449
ag1791
ag1439
ag1451
ag1453
ag1724
ag1435
ag1446
ag1436
ag1806
ag1438
ag1801
ag1476
ag1444
ag2205
ag1732
ag1454
atp2663
Rp2664
sg1801
g61
((lp2665
g1718
ag2205
ag1582
ag1805
ag1806
ag1449
ag1791
ag1439
ag1451
ag1450
ag1444
ag1480
ag1454
ag1436
atp2666
Rp2667
sg1441
g61
((lp2668
g1446
ag1435
ag1436
ag1638
ag1806
ag1449
ag1439
ag1732
ag2205
ag1450
ag1453
ag1476
ag1718
ag1480
atp2669
Rp2670
sg1708
g61
((lp2671
g1857
ag2205
ag1582
ag1805
ag1806
ag1449
ag1456
ag1439
ag1451
ag1450
ag1452
ag1829
ag1441
ag2049
ag1444
atp2672
Rp2673
sg1530
g61
((lp2674
g2205
ag1582
ag1805
ag1638
ag1806
ag1449
ag1438
ag1439
ag1451
ag1714
ag1450
ag1444
ag1456
atp2675
Rp2676
sg1471
g61
((lp2677
g1446
ag2205
ag1805
ag1806
ag1440
ag1450
ag1452
ag1453
ag1829
ag1476
ag2049
ag1480
atp2678
Rp2679
ssg1282
g409
(g61
tp2680
Rp2681
(g1446
I01
tp2682
(lp2683
I8
aI9
aI10
aI13
aI14
aI16
aI17
aI18
aI21
aI22
aI23
aI24
aI25
aI26
aI27
aI30
aI31
aI33
aI36
as(g1441
I00
tp2684
(lp2685
I3
aI4
aI7
aI8
aI10
aI35
aI36
as(g1857
I00
tp2686
(lp2687
I3
aI4
aI7
aI8
aI10
aI35
aI36
as(g1724
I01
tp2688
(lp2689
I4
aI5
aI6
aI9
aI10
aI12
aI13
aI15
aI17
aI18
aI22
aI26
aI28
aI35
aI36
as(g1439
I01
tp2690
(lp2691
I0
aI34
aI35
as(g1444
I00
tp2692
g61
((lp2693
tp2694
Rp2695
s(g1647
I00
tp2696
(lp2697
I7
aI8
aI10
aI15
aI16
aI21
aI36
as(g1440
I01
tp2698
(lp2699
I3
aI5
aI6
aI23
aI24
aI25
aI26
aI27
as(g1604
I00
tp2700
(lp2701
I15
aI17
aI18
aI22
as(g1455
I01
tp2702
(lp2703
I3
aI5
aI6
aI23
aI24
aI25
aI26
aI27
as(g1480
I01
tp2704
(lp2705
I8
aI10
aI11
aI12
aI13
aI14
aI16
aI18
aI19
aI20
aI21
aI22
aI23
aI24
aI25
aI26
as(g1453
I00
tp2706
(lp2707
I7
aI8
aI10
aI15
aI16
aI18
aI34
aI35
aI36
as(g1438
I01
tp2708
(lp2709
I4
aI5
aI6
aI8
aI9
aI11
aI14
aI15
aI16
aI17
aI21
aI25
aI28
aI35
aI36
as(g1453
I01
tp2710
(lp2711
I8
aI9
aI10
aI13
aI14
aI16
aI17
aI18
aI21
aI22
aI23
aI24
aI25
aI26
aI27
aI35
aI36
as(g2000
I01
tp2712
(lp2713
I0
aI3
aI5
aI6
aI23
aI24
aI25
aI26
aI27
as(g1471
I01
tp2714
(lp2715
I3
aI5
aI6
aI7
aI8
aI10
aI15
aI16
aI18
aI23
aI24
aI25
aI26
aI27
aI34
aI35
aI36
as(g1450
I01
tp2716
(lp2717
s(g1435
I01
tp2718
(lp2719
I0
aI8
aI9
aI10
aI13
aI14
aI16
aI17
aI18
aI21
aI22
aI23
aI24
aI25
aI26
aI27
aI34
aI35
aI36
as(g1743
I00
tp2720
(lp2721
I30
aI32
aI33
as(g1449
I01
tp2722
(lp2723
I0
aI30
aI31
aI32
aI34
aI35
as(g1444
I01
tp2724
(lp2725
I0
as(g1801
I01
tp2726
(lp2727
I4
aI5
aI6
aI8
aI10
aI11
aI12
aI13
aI14
aI15
aI16
aI18
aI27
aI35
as(g1530
I00
tp2728
(lp2729
I7
aI8
aI9
aI13
aI15
aI16
aI17
aI21
as(g1714
I00
tp2730
(lp2731
I7
aI9
aI13
aI14
aI15
aI17
aI21
aI22
as(g1718
I01
tp2732
(lp2733
I0
aI8
aI10
aI11
aI12
aI13
aI14
aI16
aI18
aI19
aI20
aI21
aI22
aI23
aI24
aI25
aI26
aI34
aI35
as(g1526
I00
tp2734
(lp2735
I7
aI8
aI10
aI15
aI16
aI18
aI36
as(g1441
I01
tp2736
g61
((lp2737
tp2738
Rp2739
s(g1452
I00
tp2740
(lp2741
I3
aI4
aI7
aI8
aI10
aI35
aI36
as(g1805
I01
tp2742
g61
((lp2743
tp2744
Rp2745
s(g1451
I00
tp2746
(lp2747
I7
aI9
aI10
aI14
aI15
aI17
aI18
aI22
as(g2205
I01
tp2748
(lp2749
I1
aI2
as(g2237
I00
tp2750
(lp2751
I15
aI16
aI17
aI21
as(g1749
I00
tp2752
(lp2753
I31
aI32
aI33
as(g1454
I01
tp2754
(lp2755
I4
aI5
aI6
aI15
aI18
aI22
aI23
aI26
aI27
aI35
as(g1638
I01
tp2756
(lp2757
I0
aI8
aI9
aI11
aI14
aI16
aI17
aI19
aI22
aI24
aI26
aI27
aI28
aI29
aI34
aI35
aI36
as(g2049
I00
tp2758
(lp2759
I3
aI4
aI7
aI8
aI10
aI35
aI36
as(g1447
I01
tp2760
(lp2761
I4
aI5
aI6
aI8
aI9
aI10
aI13
aI14
aI35
aI36
as(g1437
I00
tp2762
(lp2763
s(g1451
I01
tp2764
(lp2765
I4
aI5
aI6
aI15
aI16
aI21
aI24
aI25
aI27
aI35
as(g2026
I00
tp2766
(lp2767
I1
aI7
aI8
aI10
aI15
aI16
aI18
aI36
as(g1476
I01
tp2768
(lp2769
I1
aI2
aI8
aI9
aI10
aI13
aI14
aI16
aI17
aI18
aI21
aI22
aI23
aI24
aI25
aI26
aI27
aI36
as(g1805
I00
tp2770
(lp2771
s(g1438
I00
tp2772
(lp2773
I7
aI10
aI14
aI15
aI18
aI22
aI36
as(g1436
I01
tp2774
(lp2775
I0
aI8
aI10
aI11
aI12
aI13
aI14
aI16
aI18
aI19
aI20
aI21
aI22
aI23
aI24
aI25
aI26
as(g1442
I00
tp2776
(lp2777
I3
aI5
as(g1732
I01
tp2778
(lp2779
I0
aI9
aI10
aI12
aI13
aI17
aI18
aI20
aI21
aI23
aI25
aI27
aI28
aI29
aI34
aI35
aI36
as(g1636
I00
tp2780
(lp2781
I15
aI17
aI21
aI22
as(g1734
I00
tp2782
(lp2783
I7
aI8
aI10
aI15
aI18
aI22
aI36
as(g1471
I00
tp2784
g61
((lp2785
tp2786
Rp2787
s(g1806
I01
tp2788
(lp2789
I1
aI2
as(g2480
I01
tp2790
g61
((lp2791
tp2792
Rp2793
s(g1791
I00
tp2794
g61
((lp2795
tp2796
Rp2797
s(g1582
I00
tp2798
(lp2799
s(g1443
I00
tp2800
(lp2801
I7
aI8
aI10
aI15
aI16
aI18
aI35
aI36
as(g1791
I01
tp2802
(lp2803
I4
aI5
aI6
aI8
aI10
aI11
aI12
aI13
aI14
aI15
aI16
aI18
aI27
as(g1445
I00
tp2804
(lp2805
I2
as(g1829
I01
tp2806
(lp2807
I7
aI8
aI10
aI35
aI36
as(g1456
I00
tp2808
(lp2809
I7
aI8
aI13
aI15
aI16
aI21
aI36
as(g1990
I00
tp2810
(lp2811
I0
aI7
aI8
aI10
aI15
aI16
aI18
aI34
aI35
aI36
assbsg1415
(dp2812
sbsbg16
g1422
tp2813
Rp2814
(dp2815
bg2
(csympy.core.numbers
Half
p2816
(I1
I2
tp2817
Rp2818
(dp2819
bg9
g18
(S'a1'
p2820
tp2821
Rp2822
(dp2823
g23
g24
(g25
g26
(dp2824
g1435
Nsg1436
Nsg1437
Nsg1438
Nsg1439
Nsg1440
Nsg1441
Nsg1442
Nsg1443
Nsg1444
Nsg1445
Nsg1446
Nsg1447
Nsg1448
I01
sg1449
Nsg1450
Nsg1451
Nsg1452
Nsg1453
Nsg1530
Nsg1455
Nsg1456
Nstp2825
Rp2826
(dp2827
g53
g1461
sg1415
(dp2828
sbsbg18
(S'a2'
p2829
tp2830
Rp2831
(dp2832
g23
g24
(g25
g26
(dp2833
g1435
Nsg1436
Nsg1437
Nsg1438
Nsg1439
Nsg1440
Nsg1441
Nsg1442
Nsg1443
Nsg1444
Nsg1445
Nsg1446
Nsg1447
Nsg1448
I01
sg1449
Nsg1450
Nsg1451
Nsg1452
Nsg1453
Nsg1530
Nsg1455
Nsg1456
Nstp2834
Rp2835
(dp2836
g53
g1461
sg1415
(dp2837
sbsbg18
(S'\\gamma'
p2838
tp2839
Rp2840
(dp2841
g23
g24
(g25
g26
(dp2842
S'real'
p2843
I01
sS'polar'
p2844
NsS'irrational'
p2845
NsS'antihermitian'
p2846
NsS'composite'
p2847
NsS'extended_nonpositive'
p2848
NsS'even'
p2849
NsS'negative'
p2850
NsS'extended_nonzero'
p2851
I01
sS'hermitian'
p2852
I01
sS'infinite'
p2853
I00
sS'integer'
p2854
NsS'imaginary'
p2855
I00
sS'odd'
p2856
NsS'nonzero'
p2857
I01
sS'extended_real'
p2858
I01
sS'commutative'
p2859
I01
sS'algebraic'
p2860
NsS'positive'
p2861
NsS'zero'
p2862
I00
sS'extended_negative'
p2863
NsS'nonnegative'
p2864
NsS'prime'
p2865
NsS'complex'
p2866
I01
sS'rational'
p2867
NsS'extended_positive'
p2868
NsS'finite'
p2869
I01
sS'extended_nonnegative'
p2870
Nstp2871
Rp2872
(dp2873
g53
g24
(g54
g55
Ntp2874
Rp2875
(dp2876
g59
(lp2877
(g61
((lp2878
(S'algebraic'
p2879
I00
tp2880
a(S'complex'
p2881
I01
tp2882
atp2883
Rp2884
(S'transcendental'
p2885
I01
tp2886
tp2887
a(g61
((lp2888
(g2849
I00
tp2889
a(S'integer'
p2890
I01
tp2891
atp2892
Rp2893
(S'odd'
p2894
I01
tp2895
tp2896
a(g61
((lp2897
(S'integer'
p2898
I01
tp2899
a(g2856
I00
tp2900
atp2901
Rp2902
(S'even'
p2903
I01
tp2904
tp2905
a(g61
((lp2906
(S'real'
p2907
I00
tp2908
a(S'infinite'
p2909
I00
tp2910
atp2911
Rp2912
(S'extended_real'
p2913
I00
tp2914
tp2915
a(g61
((lp2916
(g2907
I00
tp2917
a(g2913
I01
tp2918
atp2919
Rp2920
(g2909
I01
tp2921
tp2922
a(g61
((lp2923
(g2909
I00
tp2924
a(g2913
I01
tp2925
atp2926
Rp2927
(g2907
I01
tp2928
tp2929
a(g61
((lp2930
(S'extended_real'
p2931
I01
tp2932
a(S'finite'
p2933
I01
tp2934
atp2935
Rp2936
(S'real'
p2937
I01
tp2938
tp2939
a(g61
((lp2940
(S'zero'
p2941
I00
tp2942
a(S'extended_negative'
p2943
I00
tp2944
a(g2868
I00
tp2945
atp2946
Rp2947
(S'extended_real'
p2948
I00
tp2949
tp2950
a(g61
((lp2951
(g2941
I00
tp2952
a(g2948
I01
tp2953
a(g2868
I00
tp2954
atp2955
Rp2956
(g2943
I01
tp2957
tp2958
a(g61
((lp2959
(g2868
I00
tp2960
a(g2948
I01
tp2961
a(g2943
I00
tp2962
atp2963
Rp2964
(g2941
I01
tp2965
tp2966
a(g61
((lp2967
(g2941
I00
tp2968
a(g2948
I01
tp2969
a(g2943
I00
tp2970
atp2971
Rp2972
(g2868
I01
tp2973
tp2974
a(g61
((lp2975
(S'extended_nonzero'
p2976
I01
tp2977
a(S'extended_nonpositive'
p2978
I01
tp2979
atp2980
Rp2981
(S'extended_negative'
p2982
I01
tp2983
tp2984
a(g61
((lp2985
(S'extended_nonzero'
p2986
I01
tp2987
a(g2870
I01
tp2988
atp2989
Rp2990
(S'extended_positive'
p2991
I01
tp2992
tp2993
a(g61
((lp2994
(S'extended_positive'
p2995
I00
tp2996
a(S'extended_real'
p2997
I01
tp2998
atp2999
Rp3000
(S'extended_nonpositive'
p3001
I01
tp3002
tp3003
a(g61
((lp3004
(S'extended_real'
p3005
I01
tp3006
a(S'extended_negative'
p3007
I00
tp3008
atp3009
Rp3010
(S'extended_nonnegative'
p3011
I01
tp3012
tp3013
a(g61
((lp3014
(S'zero'
p3015
I00
tp3016
a(S'positive'
p3017
I00
tp3018
a(S'negative'
p3019
I00
tp3020
atp3021
Rp3022
(S'real'
p3023
I00
tp3024
tp3025
a(g61
((lp3026
(g3023
I01
tp3027
a(g3015
I00
tp3028
a(g3017
I00
tp3029
atp3030
Rp3031
(g3019
I01
tp3032
tp3033
a(g61
((lp3034
(g3023
I01
tp3035
a(g3017
I00
tp3036
a(g3019
I00
tp3037
atp3038
Rp3039
(g3015
I01
tp3040
tp3041
a(g61
((lp3042
(g3023
I01
tp3043
a(g3015
I00
tp3044
a(g3019
I00
tp3045
atp3046
Rp3047
(g3017
I01
tp3048
tp3049
a(g61
((lp3050
(S'nonzero'
p3051
I01
tp3052
a(S'nonpositive'
p3053
I01
tp3054
atp3055
Rp3056
(g2850
I01
tp3057
tp3058
a(g61
((lp3059
(S'nonzero'
p3060
I01
tp3061
a(g2864
I01
tp3062
atp3063
Rp3064
(S'positive'
p3065
I01
tp3066
tp3067
a(g61
((lp3068
(S'real'
p3069
I01
tp3070
a(S'positive'
p3071
I00
tp3072
atp3073
Rp3074
(S'nonpositive'
p3075
I01
tp3076
tp3077
a(g61
((lp3078
(S'real'
p3079
I01
tp3080
a(S'negative'
p3081
I00
tp3082
atp3083
Rp3084
(S'nonnegative'
p3085
I01
tp3086
tp3087
a(g61
((lp3088
(S'finite'
p3089
I01
tp3090
a(S'extended_positive'
p3091
I01
tp3092
atp3093
Rp3094
(g2861
I01
tp3095
tp3096
a(g61
((lp3097
(g2863
I01
tp3098
a(S'finite'
p3099
I01
tp3100
atp3101
Rp3102
(S'negative'
p3103
I01
tp3104
tp3105
a(g61
((lp3106
(S'finite'
p3107
I01
tp3108
a(g2848
I01
tp3109
atp3110
Rp3111
(S'nonpositive'
p3112
I01
tp3113
tp3114
a(g61
((lp3115
(S'finite'
p3116
I01
tp3117
a(S'extended_nonnegative'
p3118
I01
tp3119
atp3120
Rp3121
(S'nonnegative'
p3122
I01
tp3123
tp3124
a(g61
((lp3125
(g2869
I01
tp3126
a(g2851
I01
tp3127
atp3128
Rp3129
(S'nonzero'
p3130
I01
tp3131
tp3132
a(g61
((lp3133
(S'extended_nonpositive'
p3134
I01
tp3135
a(S'extended_nonnegative'
p3136
I01
tp3137
atp3138
Rp3139
(S'zero'
p3140
I01
tp3141
tp3142
a(g61
((lp3143
(S'nonnegative'
p3144
I01
tp3145
a(S'nonpositive'
p3146
I01
tp3147
atp3148
Rp3149
(S'zero'
p3150
I01
tp3151
tp3152
a(g61
((lp3153
(S'even'
p3154
I01
tp3155
a(g2865
I00
tp3156
a(S'positive'
p3157
I01
tp3158
atp3159
Rp3160
(S'composite'
p3161
I01
tp3162
tp3163
a(g61
((lp3164
(g3154
I01
tp3165
a(g3161
I00
tp3166
a(g3157
I01
tp3167
atp3168
Rp3169
(g2865
I01
tp3170
tp3171
a(g61
((lp3172
(g2865
I00
tp3173
a(g3161
I00
tp3174
a(g3157
I01
tp3175
atp3176
Rp3177
(g3154
I00
tp3178
tp3179
a(g61
((lp3180
(g3154
I01
tp3181
a(g2865
I00
tp3182
a(g3161
I00
tp3183
atp3184
Rp3185
(g3157
I00
tp3186
tp3187
a(g61
((lp3188
(S'real'
p3189
I01
tp3190
a(g2867
I00
tp3191
atp3192
Rp3193
(g2845
I01
tp3194
tp3195
a(g61
((lp3196
(S'integer'
p3197
I00
tp3198
a(S'extended_real'
p3199
I01
tp3200
atp3201
Rp3202
(S'noninteger'
p3203
I01
tp3204
tp3205
a(g61
((lp3206
(S'zero'
p3207
I00
tp3208
a(S'extended_real'
p3209
I01
tp3210
atp3211
Rp3212
(S'extended_nonzero'
p3213
I01
tp3214
tp3215
asg402
g61
((lp3216
g3146
ag2852
ag2856
ag2849
ag2859
ag2861
ag3203
ag2850
ag2863
aS'complex'
p3217
ag2867
aS'finite'
p3218
ag2848
aS'real'
p3219
ag3130
ag2845
ag2846
ag2847
ag2870
ag2851
ag2909
ag2854
aS'imaginary'
p3220
ag2865
ag2858
ag2860
ag3150
ag2864
ag2868
ag2885
atp3221
Rp3222
sg408
g409
(g61
tp3223
Rp3224
(g2849
I01
tp3225
g61
((lp3226
(S'real'
p3227
I01
tp3228
a(S'finite'
p3229
I01
tp3230
a(g2855
I00
tp3231
a(g2858
I01
tp3232
a(g2860
I01
tp3233
a(g3203
I00
tp3234
a(g2866
I01
tp3235
a(g2898
I01
tp3236
a(g2845
I00
tp3237
a(g2894
I00
tp3238
a(g2859
I01
tp3239
a(g2867
I01
tp3240
a(g2853
I00
tp3241
a(g2885
I00
tp3242
a(g2852
I01
tp3243
atp3244
Rp3245
s(g2852
I00
tp3246
g61
((lp3247
(g2862
I00
tp3248
a(S'positive'
p3249
I00
tp3250
a(S'prime'
p3251
I00
tp3252
a(g3146
I00
tp3253
a(g2847
I00
tp3254
a(g3122
I00
tp3255
a(g3227
I00
tp3256
a(g2854
I00
tp3257
a(S'nonzero'
p3258
I00
tp3259
a(g2903
I00
tp3260
a(g2845
I00
tp3261
a(g2894
I00
tp3262
a(g2867
I00
tp3263
a(g2850
I00
tp3264
atp3265
Rp3266
s(g2843
I00
tp3267
g61
((lp3268
(g3015
I00
tp3269
a(g3017
I00
tp3270
a(g3258
I00
tp3271
a(g3075
I00
tp3272
a(g2847
I00
tp3273
a(g3085
I00
tp3274
a(g2854
I00
tp3275
a(g3251
I00
tp3276
a(g2903
I00
tp3277
a(g2845
I00
tp3278
a(g2894
I00
tp3279
a(S'rational'
p3280
I00
tp3281
a(g3019
I00
tp3282
atp3283
Rp3284
s(g3136
I01
tp3285
g61
((lp3286
(g2855
I00
tp3287
a(g3005
I01
tp3288
a(g3007
I00
tp3289
a(g2850
I00
tp3290
a(g2859
I01
tp3291
atp3292
Rp3293
s(g2850
I01
tp3294
g61
((lp3295
(g3023
I01
tp3296
a(g3051
I01
tp3297
a(g3249
I00
tp3298
a(g3251
I00
tp3299
a(g2853
I00
tp3300
a(g3053
I01
tp3301
a(g2858
I01
tp3302
a(g2868
I00
tp3303
a(g2847
I00
tp3304
a(g3085
I00
tp3305
a(g3213
I01
tp3306
a(g2863
I01
tp3307
a(g3099
I01
tp3308
a(g2862
I00
tp3309
a(g2848
I01
tp3310
a(g2855
I00
tp3311
a(g2859
I01
tp3312
a(g2866
I01
tp3313
a(g2852
I01
tp3314
a(g3118
I00
tp3315
atp3316
Rp3317
s(g3220
I00
tp3318
g61
((lp3319
tp3320
Rp3321
s(g2864
I00
tp3322
g61
((lp3323
(g3150
I00
tp3324
a(g3065
I00
tp3325
a(g3251
I00
tp3326
a(g2847
I00
tp3327
atp3328
Rp3329
s(g2860
I01
tp3330
g61
((lp3331
(g2859
I01
tp3332
a(g2853
I00
tp3333
a(g2866
I01
tp3334
a(g2885
I00
tp3335
a(g3229
I01
tp3336
atp3337
Rp3338
s(g3218
I01
tp3339
g61
((lp3340
(g2853
I00
tp3341
atp3342
Rp3343
s(g2894
I01
tp3344
g61
((lp3345
(g3227
I01
tp3346
a(g2862
I00
tp3347
a(g2849
I00
tp3348
a(g2855
I00
tp3349
a(g2858
I01
tp3350
a(g2860
I01
tp3351
a(g3130
I01
tp3352
a(g3213
I01
tp3353
a(g3203
I00
tp3354
a(g3229
I01
tp3355
a(g2866
I01
tp3356
a(g2890
I01
tp3357
a(g2845
I00
tp3358
a(g2859
I01
tp3359
a(g2867
I01
tp3360
a(g2853
I00
tp3361
a(g2885
I00
tp3362
a(g2852
I01
tp3363
atp3364
Rp3365
s(g2867
I00
tp3366
g61
((lp3367
(g2862
I00
tp3368
a(g2903
I00
tp3369
a(g2847
I00
tp3370
a(S'integer'
p3371
I00
tp3372
a(g3251
I00
tp3373
a(g2894
I00
tp3374
atp3375
Rp3376
s(g2848
I01
tp3377
g61
((lp3378
(g3249
I00
tp3379
a(g2847
I00
tp3380
a(g2995
I00
tp3381
a(g2997
I01
tp3382
a(g3251
I00
tp3383
a(g2855
I00
tp3384
a(g2859
I01
tp3385
atp3386
Rp3387
s(g2885
I01
tp3388
g61
((lp3389
(g2862
I00
tp3390
a(g3251
I00
tp3391
a(g2879
I00
tp3392
a(g2847
I00
tp3393
a(g2854
I00
tp3394
a(g2903
I00
tp3395
a(g2881
I01
tp3396
a(g2894
I00
tp3397
a(g2859
I01
tp3398
a(g2853
I00
tp3399
a(g2867
I00
tp3400
a(g3229
I01
tp3401
atp3402
Rp3403
s(S'complex'
p3404
I01
tp3405
g61
((lp3406
(g2859
I01
tp3407
a(g2853
I00
tp3408
a(g3229
I01
tp3409
atp3410
Rp3411
s(g2867
I01
tp3412
g61
((lp3413
(S'real'
p3414
I01
tp3415
a(g3229
I01
tp3416
a(g2855
I00
tp3417
a(g2858
I01
tp3418
a(S'algebraic'
p3419
I01
tp3420
a(g2866
I01
tp3421
a(g2845
I00
tp3422
a(g2859
I01
tp3423
a(g2853
I00
tp3424
a(g2885
I00
tp3425
a(g2852
I01
tp3426
atp3427
Rp3428
s(g3150
I01
tp3429
g61
((lp3430
(S'even'
p3431
I01
tp3432
a(g3134
I01
tp3433
a(g2855
I00
tp3434
a(g2860
I01
tp3435
a(g3136
I01
tp3436
a(g2867
I01
tp3437
a(g2866
I01
tp3438
a(g2852
I01
tp3439
a(g3023
I01
tp3440
a(g3251
I00
tp3441
a(g2868
I00
tp3442
a(g3213
I00
tp3443
a(g2850
I00
tp3444
a(g2859
I01
tp3445
a(g2982
I00
tp3446
a(g3249
I00
tp3447
a(g2847
I00
tp3448
a(g3146
I01
tp3449
a(g2948
I01
tp3450
a(g3258
I00
tp3451
a(g2890
I01
tp3452
a(g2853
I00
tp3453
a(S'finite'
p3454
I01
tp3455
a(g3144
I01
tp3456
a(g3203
I00
tp3457
a(g2845
I00
tp3458
a(g2894
I00
tp3459
a(g2885
I00
tp3460
atp3461
Rp3462
s(g3219
I01
tp3463
g61
((lp3464
(g2853
I00
tp3465
a(g2855
I00
tp3466
a(g2931
I01
tp3467
a(g2933
I01
tp3468
a(g2859
I01
tp3469
a(S'complex'
p3470
I01
tp3471
a(g2852
I01
tp3472
atp3473
Rp3474
s(g2865
I00
tp3475
g61
((lp3476
tp3477
Rp3478
s(g2861
I01
tp3479
g61
((lp3480
(g3023
I01
tp3481
a(g2862
I00
tp3482
a(g3089
I01
tp3483
a(g3075
I00
tp3484
a(g3091
I01
tp3485
a(g2855
I00
tp3486
a(g2858
I01
tp3487
a(g3213
I01
tp3488
a(g3060
I01
tp3489
a(g2864
I01
tp3490
a(g2866
I01
tp3491
a(g2852
I01
tp3492
a(g3136
I01
tp3493
a(g2848
I00
tp3494
a(g2859
I01
tp3495
a(g2853
I00
tp3496
a(g2850
I00
tp3497
a(g2982
I00
tp3498
atp3499
Rp3500
s(g3220
I01
tp3501
g61
((lp3502
(g2862
I00
tp3503
a(g2843
I00
tp3504
a(g3122
I00
tp3505
a(g3217
I01
tp3506
a(g2850
I00
tp3507
a(g3251
I00
tp3508
a(g2868
I00
tp3509
a(g2846
I01
tp3510
a(g2851
I00
tp3511
a(g2982
I00
tp3512
a(g2859
I01
tp3513
a(g3229
I01
tp3514
a(g3249
I00
tp3515
a(g2847
I00
tp3516
a(g2903
I00
tp3517
a(g3118
I00
tp3518
a(g2853
I00
tp3519
a(g3258
I00
tp3520
a(g3146
I00
tp3521
a(g2858
I00
tp3522
a(g3203
I00
tp3523
a(g2854
I00
tp3524
a(g2845
I00
tp3525
a(g2894
I00
tp3526
a(g2848
I00
tp3527
a(g2867
I00
tp3528
atp3529
Rp3530
s(g3213
I01
tp3531
g61
((lp3532
(g2859
I01
tp3533
a(g2855
I00
tp3534
a(g3209
I01
tp3535
a(g3207
I00
tp3536
atp3537
Rp3538
s(g2868
I00
tp3539
g61
((lp3540
(g2861
I00
tp3541
a(g3251
I00
tp3542
a(g2847
I00
tp3543
atp3544
Rp3545
s(g2851
I00
tp3546
g61
((lp3547
(g3249
I00
tp3548
a(g3130
I00
tp3549
a(g2991
I00
tp3550
a(g2847
I00
tp3551
a(g3251
I00
tp3552
a(g2982
I00
tp3553
a(g2850
I00
tp3554
atp3555
Rp3556
s(g3130
I01
tp3557
g61
((lp3558
(g2843
I01
tp3559
a(g2862
I00
tp3560
a(g2869
I01
tp3561
a(g2855
I00
tp3562
a(g2858
I01
tp3563
a(g2851
I01
tp3564
a(g2866
I01
tp3565
a(g2859
I01
tp3566
a(g2853
I00
tp3567
a(g2852
I01
tp3568
atp3569
Rp3570
s(g2941
I00
tp3571
g61
((lp3572
tp3573
Rp3574
s(g3019
I00
tp3575
g61
((lp3576
tp3577
Rp3578
s(g3217
I00
tp3579
g61
((lp3580
(g2862
I00
tp3581
a(g3249
I00
tp3582
a(g3251
I00
tp3583
a(g3146
I00
tp3584
a(S'imaginary'
p3585
I00
tp3586
a(g2860
I00
tp3587
a(g2847
I00
tp3588
a(g3122
I00
tp3589
a(g2885
I00
tp3590
a(g3219
I00
tp3591
a(g2854
I00
tp3592
a(g3258
I00
tp3593
a(g2903
I00
tp3594
a(g2845
I00
tp3595
a(g2894
I00
tp3596
a(g2867
I00
tp3597
a(g2850
I00
tp3598
atp3599
Rp3600
s(g2859
I01
tp3601
g61
((lp3602
tp3603
Rp3604
s(g2863
I00
tp3605
g61
((lp3606
(g3103
I00
tp3607
atp3608
Rp3609
s(S'prime'
p3610
I01
tp3611
g61
((lp3612
(g3130
I01
tp3613
a(g2862
I00
tp3614
a(g2855
I00
tp3615
a(g3213
I01
tp3616
a(g2850
I00
tp3617
a(g3136
I01
tp3618
a(g2867
I01
tp3619
a(g2866
I01
tp3620
a(g2852
I01
tp3621
a(g3227
I01
tp3622
a(g3249
I01
tp3623
a(g2982
I00
tp3624
a(g2859
I01
tp3625
a(g2858
I01
tp3626
a(g2991
I01
tp3627
a(g2847
I00
tp3628
a(g2860
I01
tp3629
a(S'integer'
p3630
I01
tp3631
a(g2853
I00
tp3632
a(g3229
I01
tp3633
a(g3146
I00
tp3634
a(g3144
I01
tp3635
a(g3203
I00
tp3636
a(g2845
I00
tp3637
a(g2848
I00
tp3638
a(g2885
I00
tp3639
atp3640
Rp3641
s(S'positive'
p3642
I00
tp3643
g61
((lp3644
(g3251
I00
tp3645
a(g2847
I00
tp3646
atp3647
Rp3648
s(g3161
I00
tp3649
g61
((lp3650
tp3651
Rp3652
s(g2991
I01
tp3653
g61
((lp3654
(g2862
I00
tp3655
a(g3146
I00
tp3656
a(g2855
I00
tp3657
a(g2948
I01
tp3658
a(g2986
I01
tp3659
a(g2982
I00
tp3660
a(g2870
I01
tp3661
a(g3001
I00
tp3662
a(g2859
I01
tp3663
a(g2850
I00
tp3664
atp3665
Rp3666
s(g3053
I01
tp3667
g61
((lp3668
(g3069
I01
tp3669
a(g3071
I00
tp3670
a(g3251
I00
tp3671
a(g2868
I00
tp3672
a(g2858
I01
tp3673
a(g2855
I00
tp3674
a(g3107
I01
tp3675
a(g2866
I01
tp3676
a(g2848
I01
tp3677
a(g2847
I00
tp3678
a(g2859
I01
tp3679
a(g2853
I00
tp3680
a(g2852
I01
tp3681
atp3682
Rp3683
s(g2852
I01
tp3684
g61
((lp3685
tp3686
Rp3687
s(g2858
I01
tp3688
g61
((lp3689
(g2855
I00
tp3690
a(S'commutative'
p3691
I01
tp3692
atp3693
Rp3694
s(g2846
I00
tp3695
g61
((lp3696
(g3220
I00
tp3697
atp3698
Rp3699
s(g2863
I01
tp3700
g61
((lp3701
(g2862
I00
tp3702
a(g3249
I00
tp3703
a(g2847
I00
tp3704
a(g2855
I00
tp3705
a(g2948
I01
tp3706
a(g3122
I00
tp3707
a(g2976
I01
tp3708
a(g3251
I00
tp3709
a(g2978
I01
tp3710
a(g2868
I00
tp3711
a(g2859
I01
tp3712
a(g3011
I00
tp3713
atp3714
Rp3715
s(g3431
I00
tp3716
g61
((lp3717
(g2862
I00
tp3718
atp3719
Rp3720
s(g2890
I01
tp3721
g61
((lp3722
(g3227
I01
tp3723
a(g3229
I01
tp3724
a(g2855
I00
tp3725
a(g2858
I01
tp3726
a(g2860
I01
tp3727
a(g3203
I00
tp3728
a(g2866
I01
tp3729
a(g2845
I00
tp3730
a(g2859
I01
tp3731
a(S'rational'
p3732
I01
tp3733
a(g2853
I00
tp3734
a(g2885
I00
tp3735
a(g2852
I01
tp3736
atp3737
Rp3738
s(g2859
I00
tp3739
g61
((lp3740
(g2862
I00
tp3741
a(g2843
I00
tp3742
a(g2855
I00
tp3743
a(g3122
I00
tp3744
a(g2850
I00
tp3745
a(g3251
I00
tp3746
a(g2868
I00
tp3747
a(g2879
I00
tp3748
a(g2851
I00
tp3749
a(g2982
I00
tp3750
a(S'complex'
p3751
I00
tp3752
a(g3249
I00
tp3753
a(g2847
I00
tp3754
a(g2903
I00
tp3755
a(g2848
I00
tp3756
a(g3258
I00
tp3757
a(g3146
I00
tp3758
a(S'extended_real'
p3759
I00
tp3760
a(g2885
I00
tp3761
a(g3203
I00
tp3762
a(g2854
I00
tp3763
a(g2845
I00
tp3764
a(g2894
I00
tp3765
a(g3118
I00
tp3766
a(g2867
I00
tp3767
atp3768
Rp3769
s(g2848
I00
tp3770
g61
((lp3771
(g3140
I00
tp3772
a(g3112
I00
tp3773
a(g2982
I00
tp3774
a(g2850
I00
tp3775
atp3776
Rp3777
s(g2845
I01
tp3778
g61
((lp3779
(g3189
I01
tp3780
a(g2862
I00
tp3781
a(g2858
I01
tp3782
a(g2855
I00
tp3783
a(g2847
I00
tp3784
a(g3213
I01
tp3785
a(g3130
I01
tp3786
a(g3229
I01
tp3787
a(g2854
I00
tp3788
a(g2903
I00
tp3789
a(g2866
I01
tp3790
a(g2894
I00
tp3791
a(g2859
I01
tp3792
a(g3203
I01
tp3793
a(g2853
I00
tp3794
a(g2867
I00
tp3795
a(g2852
I01
tp3796
a(g3251
I00
tp3797
atp3798
Rp3799
s(g2909
I00
tp3800
g61
((lp3801
tp3802
Rp3803
s(g3144
I01
tp3804
g61
((lp3805
(g3079
I01
tp3806
a(g3116
I01
tp3807
a(g2855
I00
tp3808
a(g2852
I01
tp3809
a(g2858
I01
tp3810
a(g2866
I01
tp3811
a(g2982
I00
tp3812
a(g3118
I01
tp3813
a(g2859
I01
tp3814
a(g2853
I00
tp3815
a(g3081
I00
tp3816
atp3817
Rp3818
s(g3051
I00
tp3819
g61
((lp3820
(g3065
I00
tp3821
a(g3251
I00
tp3822
a(g2850
I00
tp3823
a(g2847
I00
tp3824
atp3825
Rp3826
s(g3146
I00
tp3827
g61
((lp3828
(g3150
I00
tp3829
a(g2850
I00
tp3830
atp3831
Rp3832
s(g2885
I00
tp3833
g61
((lp3834
tp3835
Rp3836
s(g2847
I01
tp3837
g61
((lp3838
(g3130
I01
tp3839
a(g2862
I00
tp3840
a(g2855
I00
tp3841
a(g2860
I01
tp3842
a(g2850
I00
tp3843
a(g3136
I01
tp3844
a(g2867
I01
tp3845
a(g2866
I01
tp3846
a(g2852
I01
tp3847
a(g3227
I01
tp3848
a(g3610
I00
tp3849
a(g3642
I01
tp3850
a(g2982
I00
tp3851
a(g2859
I01
tp3852
a(g2991
I01
tp3853
a(g2858
I01
tp3854
a(g3213
I01
tp3855
a(g2854
I01
tp3856
a(g2853
I00
tp3857
a(g3229
I01
tp3858
a(g3146
I00
tp3859
a(g3144
I01
tp3860
a(g3203
I00
tp3861
a(g2845
I00
tp3862
a(g2848
I00
tp3863
a(g2885
I00
tp3864
atp3865
Rp3866
s(g3454
I00
tp3867
g61
((lp3868
(g2862
I00
tp3869
a(g2861
I00
tp3870
a(g3251
I00
tp3871
a(g3112
I00
tp3872
a(g2855
I00
tp3873
a(g2879
I00
tp3874
a(g2847
I00
tp3875
a(g3122
I00
tp3876
a(g2867
I00
tp3877
a(g3130
I00
tp3878
a(g2854
I00
tp3879
a(g2937
I00
tp3880
a(g2903
I00
tp3881
a(g2845
I00
tp3882
a(g2894
I00
tp3883
a(g3404
I00
tp3884
a(g2885
I00
tp3885
a(g3103
I00
tp3886
atp3887
Rp3888
s(g2844
I01
tp3889
g61
((lp3890
tp3891
Rp3892
s(g3203
I00
tp3893
g61
((lp3894
tp3895
Rp3896
s(g2997
I00
tp3897
g61
((lp3898
(g3258
I00
tp3899
a(g2941
I00
tp3900
a(g3249
I00
tp3901
a(g2937
I00
tp3902
a(g3146
I00
tp3903
a(g2868
I00
tp3904
a(g3213
I00
tp3905
a(g2847
I00
tp3906
a(g3122
I00
tp3907
a(g3203
I00
tp3908
a(g2854
I00
tp3909
a(g3251
I00
tp3910
a(g2903
I00
tp3911
a(g2943
I00
tp3912
a(g2845
I00
tp3913
a(g2894
I00
tp3914
a(g3011
I00
tp3915
a(g2867
I00
tp3916
a(g2850
I00
tp3917
a(g3001
I00
tp3918
atp3919
Rp3920
s(g2854
I00
tp3921
g61
((lp3922
(g2862
I00
tp3923
a(g2847
I00
tp3924
a(g2903
I00
tp3925
a(g3251
I00
tp3926
a(g2894
I00
tp3927
atp3928
Rp3929
s(g3203
I01
tp3930
g61
((lp3931
(g2862
I00
tp3932
a(g3199
I01
tp3933
a(g2855
I00
tp3934
a(g2847
I00
tp3935
a(g3213
I01
tp3936
a(g3197
I00
tp3937
a(g2903
I00
tp3938
a(g2894
I00
tp3939
a(g2859
I01
tp3940
a(g3251
I00
tp3941
atp3942
Rp3943
s(g2856
I00
tp3944
g61
((lp3945
tp3946
Rp3947
s(g2853
I01
tp3948
g61
((lp3949
(g3218
I00
tp3950
a(g2862
I00
tp3951
a(g3249
I00
tp3952
a(g3251
I00
tp3953
a(g3146
I00
tp3954
a(g2855
I00
tp3955
a(g2879
I00
tp3956
a(g2847
I00
tp3957
a(g3122
I00
tp3958
a(g2885
I00
tp3959
a(g2843
I00
tp3960
a(g2854
I00
tp3961
a(g3258
I00
tp3962
a(g2903
I00
tp3963
a(g2845
I00
tp3964
a(g2894
I00
tp3965
a(g3217
I00
tp3966
a(g2867
I00
tp3967
a(g2850
I00
tp3968
atp3969
Rp3970
s(g2870
I00
tp3971
g61
((lp3972
(g3140
I00
tp3973
a(g3249
I00
tp3974
a(g3251
I00
tp3975
a(g2991
I00
tp3976
a(g2847
I00
tp3977
a(g3122
I00
tp3978
atp3979
Rp3980
s(g3419
I00
tp3981
g61
((lp3982
(g2862
I00
tp3983
a(g3251
I00
tp3984
a(g2847
I00
tp3985
a(g2854
I00
tp3986
a(g2903
I00
tp3987
a(g2894
I00
tp3988
a(S'rational'
p3989
I00
tp3990
atp3991
Rp3992
ssg1186
g409
(g61
tp3993
Rp3994
g3146
g61
((lp3995
g2843
ag3610
ag2997
ag2859
ag2847
ag2861
ag2848
ag2850
ag3220
ag3150
ag3217
ag2853
ag2852
ag3454
ag2991
atp3996
Rp3997
sg2862
g61
((lp3998
g3146
ag2852
ag2894
ag2845
ag3431
ag2859
ag2861
ag3203
ag2850
ag2863
ag3217
ag2867
ag3454
ag2870
ag2843
ag3130
ag2885
ag2847
ag2848
ag3213
ag2853
ag2854
ag3220
ag3610
ag2997
ag3419
ag2864
ag2991
atp3999
Rp4000
sg2894
g61
((lp4001
g2843
ag2849
ag2997
ag2845
ag3203
ag2852
ag3419
ag3150
ag3217
ag2867
ag2853
ag2854
ag3220
ag2885
ag3454
ag2859
atp4002
Rp4003
sg3258
g61
((lp4004
g2843
ag3610
ag2997
ag2845
ag2847
ag2861
ag2850
ag2851
ag3150
ag3217
ag2853
ag2852
ag3454
ag2894
ag3220
ag2859
atp4005
Rp4006
sg2859
g61
((lp4007
g3053
ag3150
ag2894
ag3130
ag2861
ag3203
ag2850
ag2863
ag3404
ag2867
ag3136
ag3219
ag2849
ag2845
ag2847
ag2848
ag2860
ag2890
ag3220
ag3610
ag2858
ag3213
ag3144
ag2991
ag2885
atp4008
Rp4009
sg3249
g61
((lp4010
g2843
ag3610
ag2997
ag2859
ag3053
ag2847
ag3454
ag2848
ag2850
ag2863
ag2864
ag3220
ag2851
ag3150
ag3217
ag2870
ag2853
ag2852
ag3051
ag2868
atp4011
Rp4012
sg3203
g61
((lp4013
g2849
ag3610
ag2997
ag2859
ag2847
ag3150
ag2890
ag3220
ag2894
ag2845
atp4014
Rp4015
sg2850
g61
((lp4016
g2843
ag3610
ag2997
ag2859
ag3146
ag2847
ag2861
ag3136
ag2852
ag2863
ag3144
ag2851
ag3150
ag3217
ag2848
ag2853
ag3454
ag2991
ag3051
ag3220
atp4017
Rp4018
sg3007
g61
((lp4019
g3610
ag2997
ag2859
ag2847
ag2861
ag3136
ag2850
ag3144
ag2851
ag3150
ag2848
ag3220
ag2991
atp4020
Rp4021
sg2866
g61
((lp4022
g3219
ag3610
ag3454
ag2885
ag2845
ag3053
ag2847
ag2861
ag2849
ag2850
ag3144
ag2860
ag3150
ag2867
ag2853
ag2890
ag3220
ag3130
ag2894
ag2859
atp4023
Rp4024
sg2867
g61
((lp4025
g2843
ag3610
ag2997
ag2845
ag2847
ag2849
ag2852
ag3419
ag3150
ag3217
ag2885
ag2853
ag2890
ag3220
ag3454
ag2894
ag2859
atp4026
Rp4027
sg3229
g61
((lp4028
g3219
ag3610
ag2845
ag3053
ag2847
ag2861
ag2849
ag2850
ag3144
ag2860
ag3150
ag3404
ag2867
ag2853
ag2890
ag3220
ag3130
ag2894
ag2885
atp4029
Rp4030
sg3118
g61
((lp4031
g3610
ag2997
ag2859
ag2847
ag2861
ag2850
ag2863
ag3144
ag3150
ag3220
ag2991
atp4032
Rp4033
sg3227
g61
((lp4034
g3130
ag2849
ag2997
ag2845
ag3053
ag2847
ag2861
ag2850
ag3144
ag3610
ag3150
ag3217
ag2867
ag2853
ag2890
ag2852
ag3454
ag2894
ag3220
ag2859
atp4035
Rp4036
sg2844
g61
((lp4037
tp4038
Rp4039
sg2845
g61
((lp4040
g2849
ag2843
ag2997
ag2859
ag2847
ag3610
ag3150
ag2852
ag3217
ag2867
ag2853
ag2890
ag3220
ag3454
ag2894
atp4041
Rp4042
sg2846
g61
((lp4043
g3220
atp4044
Rp4045
sg2847
g61
((lp4046
g3053
ag3150
ag2845
ag3051
ag2859
ag3642
ag3203
ag2850
ag2863
ag3217
ag2867
ag3454
ag2848
ag2843
ag2885
ag2870
ag2851
ag2853
ag2854
ag3220
ag3610
ag2997
ag3419
ag2852
ag2864
ag2868
atp4047
Rp4048
sg2848
g61
((lp4049
g3610
ag2997
ag2859
ag3053
ag2847
ag2861
ag2850
ag2863
ag3150
ag3220
ag2991
atp4050
Rp4051
sg2903
g61
((lp4052
g2843
ag2997
ag2845
ag3203
ag2852
ag3419
ag3150
ag3217
ag2867
ag2853
ag2854
ag3220
ag2885
ag2894
ag3454
ag2859
atp4053
Rp4054
sg2860
g61
((lp4055
g2849
ag3610
ag2867
ag2847
ag3150
ag3217
ag2885
ag2853
ag2890
ag3454
ag2894
ag2859
atp4056
Rp4057
sg2853
g61
((lp4058
g3219
ag3610
ag3218
ag2845
ag3053
ag2847
ag2861
ag2849
ag2850
ag3144
ag2860
ag3150
ag3404
ag2867
ag2890
ag3220
ag3130
ag2894
ag2885
atp4059
Rp4060
sg2898
g61
((lp4061
g2843
ag3610
ag2997
ag2845
ag2847
ag3454
ag2849
ag3203
ag3419
ag3150
ag3217
ag2867
ag2853
ag2852
ag2885
ag2894
ag3220
ag2859
atp4062
Rp4063
sg2855
g61
((lp4064
g3053
ag3150
ag2894
ag3130
ag2859
ag2861
ag3203
ag2850
ag2863
ag3217
ag2867
ag3454
ag3136
ag3219
ag2849
ag2845
ag2846
ag2847
ag2848
ag3213
ag2853
ag2890
ag3610
ag2858
ag3144
ag2991
atp4065
Rp4066
sg3251
g61
((lp4067
g3053
ag3150
ag2845
ag3051
ag2859
ag3642
ag3203
ag2850
ag2863
ag3217
ag2867
ag3454
ag2848
ag2843
ag2885
ag2847
ag2870
ag2851
ag2853
ag2854
ag3220
ag2997
ag3419
ag2852
ag2864
ag2868
atp4068
Rp4069
sg2858
g61
((lp4070
g3053
ag3150
ag2894
ag3130
ag2859
ag2861
ag3203
ag2850
ag2863
ag2867
ag3136
ag3219
ag2849
ag2845
ag2847
ag2848
ag3213
ag2890
ag3220
ag3610
ag3144
ag2991
atp4071
Rp4072
sg3213
g61
((lp4073
g3130
ag3610
ag2997
ag2859
ag2847
ag2861
ag3203
ag2850
ag2863
ag3150
ag3220
ag2894
ag2991
ag2845
atp4074
Rp4075
sg2852
g61
((lp4076
g2849
ag3219
ag2845
ag3053
ag2847
ag2861
ag2850
ag3144
ag3610
ag3150
ag2867
ag2890
ag3130
ag2894
atp4077
Rp4078
sg3122
g61
((lp4079
g2843
ag3610
ag2997
ag2859
ag2847
ag2861
ag2870
ag2850
ag2863
ag3150
ag3217
ag2853
ag2852
ag3454
ag3220
atp4080
Rp4081
sg2868
g61
((lp4082
g3610
ag2997
ag2859
ag3053
ag2847
ag2861
ag2848
ag2850
ag2863
ag2851
ag3150
ag3220
ag2870
atp4083
Rp4084
sg2885
g61
((lp4085
g2849
ag3610
ag2859
ag2847
ag2860
ag3150
ag3217
ag2867
ag2853
ag2890
ag3454
ag2894
atp4086
Rp4087
ssg1282
g409
(g61
tp4088
Rp4089
(g2849
I01
tp4090
(lp4091
I8
aI9
aI10
aI13
aI14
aI16
aI17
aI18
aI21
aI22
aI23
aI24
aI25
aI26
aI27
aI30
aI31
aI33
aI36
as(g2852
I00
tp4092
(lp4093
I3
aI4
aI7
aI8
aI10
aI35
aI36
as(g2843
I00
tp4094
(lp4095
I3
aI4
aI7
aI8
aI10
aI35
aI36
as(g3136
I01
tp4096
(lp4097
I4
aI5
aI6
aI9
aI10
aI12
aI13
aI15
aI17
aI18
aI22
aI26
aI28
aI35
aI36
as(g2850
I01
tp4098
(lp4099
I0
aI34
aI35
as(g3220
I00
tp4100
g61
((lp4101
tp4102
Rp4103
s(g2864
I00
tp4104
(lp4105
I7
aI8
aI10
aI15
aI16
aI21
aI36
as(g2860
I01
tp4106
(lp4107
I3
aI5
aI6
aI23
aI24
aI25
aI26
aI27
as(g3218
I01
tp4108
(lp4109
I3
aI5
aI6
aI23
aI24
aI25
aI26
aI27
as(g2894
I01
tp4110
(lp4111
I8
aI10
aI11
aI12
aI13
aI14
aI16
aI18
aI19
aI20
aI21
aI22
aI23
aI24
aI25
aI26
as(g2867
I00
tp4112
(lp4113
I7
aI8
aI10
aI15
aI16
aI18
aI34
aI35
aI36
as(g2848
I01
tp4114
(lp4115
I4
aI5
aI6
aI8
aI9
aI11
aI14
aI15
aI16
aI17
aI21
aI25
aI28
aI35
aI36
as(g2885
I01
tp4116
(lp4117
I3
aI5
aI6
aI7
aI8
aI10
aI15
aI16
aI18
aI23
aI24
aI25
aI26
aI27
aI34
aI35
aI36
as(g3404
I01
tp4118
(lp4119
I0
aI3
aI5
aI6
aI23
aI24
aI25
aI26
aI27
as(g2867
I01
tp4120
(lp4121
I8
aI9
aI10
aI13
aI14
aI16
aI17
aI18
aI21
aI22
aI23
aI24
aI25
aI26
aI27
aI35
aI36
as(g3150
I01
tp4122
(lp4123
s(g3219
I01
tp4124
(lp4125
I0
aI8
aI9
aI10
aI13
aI14
aI16
aI17
aI18
aI21
aI22
aI23
aI24
aI25
aI26
aI27
aI34
aI35
aI36
as(g2865
I00
tp4126
(lp4127
I30
aI32
aI33
as(g2861
I01
tp4128
(lp4129
I0
aI30
aI31
aI32
aI34
aI35
as(g3220
I01
tp4130
(lp4131
I0
as(g3213
I01
tp4132
(lp4133
I4
aI5
aI6
aI8
aI10
aI11
aI12
aI13
aI14
aI15
aI16
aI18
aI27
aI35
as(g2868
I00
tp4134
(lp4135
I7
aI8
aI9
aI13
aI15
aI16
aI17
aI21
as(g2851
I00
tp4136
(lp4137
I7
aI9
aI13
aI14
aI15
aI17
aI21
aI22
as(g3130
I01
tp4138
(lp4139
I0
aI8
aI10
aI11
aI12
aI13
aI14
aI16
aI18
aI19
aI20
aI21
aI22
aI23
aI24
aI25
aI26
aI34
aI35
as(g2941
I00
tp4140
(lp4141
I7
aI8
aI10
aI15
aI16
aI18
aI36
as(g3019
I00
tp4142
(lp4143
I15
aI17
aI18
aI22
as(g3217
I00
tp4144
(lp4145
I3
aI4
aI7
aI8
aI10
aI35
aI36
as(g2859
I01
tp4146
g61
((lp4147
tp4148
Rp4149
s(g2863
I00
tp4150
(lp4151
I7
aI9
aI10
aI14
aI15
aI17
aI18
aI22
as(g3610
I01
tp4152
(lp4153
I1
aI2
as(g3642
I00
tp4154
(lp4155
I15
aI16
aI17
aI21
as(g3161
I00
tp4156
(lp4157
I31
aI32
aI33
as(g2991
I01
tp4158
(lp4159
I4
aI5
aI6
aI15
aI18
aI22
aI23
aI26
aI27
aI35
as(g3053
I01
tp4160
(lp4161
I0
aI8
aI9
aI11
aI14
aI16
aI17
aI19
aI22
aI24
aI26
aI27
aI28
aI29
aI34
aI35
aI36
as(g2852
I01
tp4162
g61
((lp4163
tp4164
Rp4165
s(g2858
I01
tp4166
(lp4167
I4
aI5
aI6
aI8
aI9
aI10
aI13
aI14
aI35
aI36
as(g2846
I00
tp4168
(lp4169
s(g2863
I01
tp4170
(lp4171
I4
aI5
aI6
aI15
aI16
aI21
aI24
aI25
aI27
aI35
as(g3431
I00
tp4172
(lp4173
I1
aI7
aI8
aI10
aI15
aI16
aI18
aI36
as(g2890
I01
tp4174
(lp4175
I1
aI2
aI8
aI9
aI10
aI13
aI14
aI16
aI17
aI18
aI21
aI22
aI23
aI24
aI25
aI26
aI27
aI36
as(g2859
I00
tp4176
(lp4177
s(g2848
I00
tp4178
(lp4179
I7
aI10
aI14
aI15
aI18
aI22
aI36
as(g2845
I01
tp4180
(lp4181
I0
aI8
aI10
aI11
aI12
aI13
aI14
aI16
aI18
aI19
aI20
aI21
aI22
aI23
aI24
aI25
aI26
as(g2909
I00
tp4182
(lp4183
I3
aI5
as(g3144
I01
tp4184
(lp4185
I0
aI9
aI10
aI12
aI13
aI17
aI18
aI20
aI21
aI23
aI25
aI27
aI28
aI29
aI34
aI35
aI36
as(g3051
I00
tp4186
(lp4187
I15
aI17
aI21
aI22
as(g3146
I00
tp4188
(lp4189
I7
aI8
aI10
aI15
aI18
aI22
aI36
as(g2885
I00
tp4190
g61
((lp4191
tp4192
Rp4193
s(g2847
I01
tp4194
(lp4195
I1
aI2
as(g3454
I00
tp4196
(lp4197
I3
aI4
aI7
aI8
aI10
aI35
aI36
as(g2844
I01
tp4198
g61
((lp4199
tp4200
Rp4201
s(g3203
I00
tp4202
g61
((lp4203
tp4204
Rp4205
s(g2997
I00
tp4206
(lp4207
s(g2854
I00
tp4208
(lp4209
I7
aI8
aI10
aI15
aI16
aI18
aI35
aI36
as(g3203
I01
tp4210
(lp4211
I4
aI5
aI6
aI8
aI10
aI11
aI12
aI13
aI14
aI15
aI16
aI18
aI27
as(g2856
I00
tp4212
(lp4213
I2
as(g2853
I01
tp4214
(lp4215
I7
aI8
aI10
aI35
aI36
as(g2870
I00
tp4216
(lp4217
I7
aI8
aI13
aI15
aI16
aI21
aI36
as(g3419
I00
tp4218
(lp4219
I0
aI7
aI8
aI10
aI15
aI16
aI18
aI34
aI35
aI36
assbsg1415
(dp4220
g2857
I01
sS'finite'
p4221
I01
ssbsbg7
(g11
(I6
tp4222
Rp4223
(dp4224
bg2818
tp4225
Rp4226
(dp4227
bg7
(g1
(g16
g2
(g11
(I4
tp4228
Rp4229
(dp4230
bg7
(g18
(S'\\gamma'
p4231
tp4232
Rp4233
(dp4234
g23
g24
(g25
g26
(dp4235
g458
I01
sg1024
Nsg30
Nsg31
Nsg405
Nsg49
Nsg29
Nsg33
Nsg34
I01
sg416
I00
sg36
Nsg418
I00
sg84
NsS'nonzero'
p4236
I01
sg39
I01
sg404
I01
sg438
I00
sg313
I01
sg42
Nsg43
Nsg44
Nsg246
Nsg341
Nsg430
I01
sg46
Nsg47
Nsg311
I01
sg32
Nstp4237
Rp4238
(dp4239
g53
g57
sg1415
(dp4240
g4236
I01
sS'finite'
p4241
I01
ssbsbg13
tp4242
Rp4243
(dp4244
btp4245
Rp4246
(dp4247
btp4248
Rp4249
(dp4250
bg3
(I-1
I2
tp4251
Rp4252
(dp4253
btp4254
Rp4255
(dp4256
btp4257
Rp4258
(dp4259
bg2
(g4252
g9
g18
(S'a5'
p4260
tp4261
Rp4262
(dp4263
g23
g24
(g25
g26
(dp4264
g1435
Nsg1436
Nsg1437
Nsg1438
Nsg1439
Nsg1440
Nsg1441
Nsg1442
Nsg1443
Nsg1444
Nsg1445
Nsg1446
Nsg1447
Nsg1448
I01
sg1449
Nsg1450
Nsg1451
Nsg1452
Nsg1453
Nsg1530
Nsg1455
Nsg1456
Nstp4265
Rp4266
(dp4267
g53
g1461
sg1415
(dp4268
sbsbg18
(S'a7'
p4269
tp4270
Rp4271
(dp4272
g23
g24
(g25
g26
(dp4273
g1435
Nsg1436
Nsg1437
Nsg1438
Nsg1439
Nsg1440
Nsg1441
Nsg1442
Nsg1443
Nsg1444
Nsg1445
Nsg1446
Nsg1447
Nsg1448
I01
sg1449
Nsg1450
Nsg1451
Nsg1452
Nsg1453
Nsg1530
Nsg1455
Nsg1456
Nstp4274
Rp4275
(dp4276
g53
g1461
sg1415
(dp4277
sbsbg2840
g4226
g7
(g1
(g2
(g4229
g7
(g18
(S'\\alpha'
p4278
tp4279
Rp4280
(dp4281
g23
g24
(g25
g26
(dp4282
g1857
I01
sg2480
Nsg1436
Nsg1437
Nsg1806
Nsg1438
Nsg1446
Nsg1439
Nsg1714
I01
sg1441
I01
sg1829
I00
sg1443
Nsg1817
I00
sg1445
NsS'nonzero'
p4283
I01
sg1447
I01
sg1805
I01
sg1440
Nsg1449
Nsg1837
I00
sg1451
Nsg1647
Nsg1743
Nsg1822
I01
sg1453
Nsg1530
Nsg1712
I01
sg1456
Nstp4284
Rp4285
(dp4286
g53
g1461
sg1415
(dp4287
g4283
I01
sS'finite'
p4288
I01
ssbsbg4223
tp4289
Rp4290
(dp4291
btp4292
Rp4293
(dp4294
bg2
(g4229
g7
(g2840
g4223
tp4295
Rp4296
(dp4297
btp4298
Rp4299
(dp4300
bg2
(g16
g7
(g18
(S'\\alpha'
p4301
tp4302
Rp4303
(dp4304
g23
g24
(g25
g26
(dp4305
g458
I01
sg1024
Nsg30
Nsg31
Nsg405
Nsg49
Nsg29
Nsg33
Nsg34
I01
sg416
I00
sg36
Nsg418
I00
sg84
Nsg4236
I01
sg39
I01
sg404
I01
sg438
I00
sg313
I01
sg42
Nsg43
Nsg44
Nsg246
Nsg341
Nsg430
I01
sg46
Nsg47
Nsg311
I01
sg32
Nstp4306
Rp4307
(dp4308
g53
g57
sg1415
(dp4309
g4236
I01
sg4241
I01
ssbsbg4229
tp4310
Rp4311
(dp4312
btp4313
Rp4314
(dp4315
bg2
(g16
g7
(g4233
g4229
tp4316
Rp4317
(dp4318
btp4319
Rp4320
(dp4321
bg2
(g11
(I12
tp4322
Rp4323
(dp4324
bg7
(g4303
g13
tp4325
Rp4326
(dp4327
bg4317
tp4328
Rp4329
(dp4330
bg2
(g4323
g4311
g4243
tp4331
Rp4332
(dp4333
bg2
(g13
g16
g4326
g4243
tp4334
Rp4335
(dp4336
btp4337
Rp4338
(dp4339
bg3
(I-1
I2
tp4340
Rp4341
(dp4342
btp4343
Rp4344
(dp4345
bg1
(g4326
g4243
tp4346
Rp4347
(dp4348
btp4349
Rp4350
(dp4351
btp4352
Rp4353
(dp4354
bag1
(g2
(g3
(I-1
I3
tp4355
Rp4356
(dp4357
bg2822
g1422
g1
(g16
g2
(g11
(I3
tp4358
Rp4359
(dp4360
bg4243
tp4361
Rp4362
(dp4363
btp4364
Rp4365
(dp4366
btp4367
Rp4368
(dp4369
bg2
(g3
(I-1
I6
tp4370
Rp4371
(dp4372
bg18
(S'a4'
p4373
tp4374
Rp4375
(dp4376
g23
g24
(g25
g26
(dp4377
g1435
Nsg1436
Nsg1437
Nsg1438
Nsg1439
Nsg1440
Nsg1441
Nsg1442
Nsg1443
Nsg1444
Nsg1445
Nsg1446
Nsg1447
Nsg1448
I01
sg1449
Nsg1450
Nsg1451
Nsg1452
Nsg1453
Nsg1530
Nsg1455
Nsg1456
Nstp4378
Rp4379
(dp4380
g53
g1461
sg1415
(dp4381
sbsbg18
(S'a6'
p4382
tp4383
Rp4384
(dp4385
g23
g24
(g25
g26
(dp4386
g1435
Nsg1436
Nsg1437
Nsg1438
Nsg1439
Nsg1440
Nsg1441
Nsg1442
Nsg1443
Nsg1444
Nsg1445
Nsg1446
Nsg1447
Nsg1448
I01
sg1449
Nsg1450
Nsg1451
Nsg1452
Nsg1453
Nsg1530
Nsg1455
Nsg1456
Nstp4387
Rp4388
(dp4389
g53
g1461
sg1415
(dp4390
sbsbg4226
g4243
g7
(g4347
g4252
tp4391
Rp4392
(dp4393
btp4394
Rp4395
(dp4396
bg2
(g3
(I5
I9
tp4397
Rp4398
(dp4399
bg18
(S'a3'
p4400
tp4401
Rp4402
(dp4403
g23
g24
(g25
g26
(dp4404
g1435
Nsg1436
Nsg1437
Nsg1438
Nsg1439
Nsg1440
Nsg1441
Nsg1442
Nsg1443
Nsg1444
Nsg1445
Nsg1446
Nsg1447
Nsg1448
I01
sg1449
Nsg1450
Nsg1451
Nsg1452
Nsg1453
Nsg1530
Nsg1455
Nsg1456
Nstp4405
Rp4406
(dp4407
g53
g1461
sg1415
(dp4408
sbsbg4262
g4226
g4243
g4392
tp4409
Rp4410
(dp4411
bg2
(g4252
g9
g1432
g2831
g2840
g4226
g4255
tp4412
Rp4413
(dp4414
bg2
(g4252
g9
g2831
g18
(S'a8'
p4415
tp4416
Rp4417
(dp4418
g23
g24
(g25
g26
(dp4419
g1435
Nsg1436
Nsg1437
Nsg1438
Nsg1439
Nsg1440
Nsg1441
Nsg1442
Nsg1443
Nsg1444
Nsg1445
Nsg1446
Nsg1447
Nsg1448
I01
sg1449
Nsg1450
Nsg1451
Nsg1452
Nsg1453
Nsg1530
Nsg1455
Nsg1456
Nstp4420
Rp4421
(dp4422
g53
g1461
sg1415
(dp4423
sbsbg2840
g4226
g4255
tp4424
Rp4425
(dp4426
bg2
(g4371
g9
g4375
g4271
g4280
g2840
g4226
g7
(g1
(g2
(g4229
g4311
tp4427
Rp4428
(dp4429
bg2
(g4229
g4317
tp4430
Rp4431
(dp4432
bg2
(g16
g4326
tp4433
Rp4434
(dp4435
bg2
(g16
g4243
tp4436
Rp4437
(dp4438
bg2
(g11
(I8
tp4439
Rp4440
(dp4441
bg4326
g4243
tp4442
Rp4443
(dp4444
btp4445
Rp4446
(dp4447
bg4252
tp4448
Rp4449
(dp4450
btp4451
Rp4452
(dp4453
btp4454
Rp4455
(dp4456
bag1
(g2
(g1428
g2831
g1422
g1
(g16
g4246
tp4457
Rp4458
(dp4459
btp4460
Rp4461
(dp4462
bg2
(g4371
g4402
g4271
g4226
g4243
g7
(g1
(g2
(g11
(I16
tp4463
Rp4464
(dp4465
bg4296
tp4466
Rp4467
(dp4468
bg2
(g7
(g9
g4229
tp4469
Rp4470
(dp4471
bg4326
tp4472
Rp4473
(dp4474
bg2
(g4470
g4243
tp4475
Rp4476
(dp4477
bg2
(g4229
g16
g4311
tp4478
Rp4479
(dp4480
bg2
(g4440
g16
g4317
tp4481
Rp4482
(dp4483
bg2
(g4464
g4311
g4243
tp4484
Rp4485
(dp4486
bg2
(g11
(I32
tp4487
Rp4488
(dp4489
bg4326
g4317
tp4490
Rp4491
(dp4492
bg2
(g4323
g16
g4326
g4243
tp4493
Rp4494
(dp4495
btp4496
Rp4497
(dp4498
bg4341
tp4499
Rp4500
(dp4501
bg1
(g16
g2
(g4323
g4326
tp4502
Rp4503
(dp4504
bg2
(g4323
g4243
tp4505
Rp4506
(dp4507
btp4508
Rp4509
(dp4510
btp4511
Rp4512
(dp4513
bg2
(g3
(I1
I8
tp4514
Rp4515
(dp4516
bg4402
g4271
g4226
g16
g4500
g1
(g2
(g4229
g4326
tp4517
Rp4518
(dp4519
bg2
(g3
(I8
I3
tp4520
Rp4521
(dp4522
bg4243
tp4523
Rp4524
(dp4525
btp4526
Rp4527
(dp4528
btp4529
Rp4530
(dp4531
bg2
(g3
(I1
I3
tp4532
Rp4533
(dp4534
bg9
g4402
g4384
g4280
g2840
g4226
g4255
g4392
tp4535
Rp4536
(dp4537
bg2
(g4533
g9
g4375
g4262
g4280
g2840
g4226
g4255
g4392
tp4538
Rp4539
(dp4540
btp4541
Rp4542
(dp4543
bag1
(g2
(g4356
g4402
g1422
g1
(g16
g2
(g4359
g4326
tp4544
Rp4545
(dp4546
btp4547
Rp4548
(dp4549
btp4550
Rp4551
(dp4552
bg2
(g4371
g1432
g4375
g4280
g4226
tp4553
Rp4554
(dp4555
bg2
(g4371
g4375
g4417
g4280
g4226
tp4556
Rp4557
(dp4558
bg2
(g3
(I-5
I9
tp4559
Rp4560
(dp4561
bg2822
g4262
g4226
g4326
g4392
tp4562
Rp4563
(dp4564
bg2
(g3
(I-1
I8
tp4565
Rp4566
(dp4567
bg2831
g4271
g4226
g16
g4500
g4527
tp4568
Rp4569
(dp4570
bg2
(g4533
g2831
g4271
g4226
g16
g4243
g4500
tp4571
Rp4572
(dp4573
bg2
(g4252
g9
g2831
g4384
g4280
g2840
g4226
g4255
g4392
tp4574
Rp4575
(dp4576
btp4577
Rp4578
(dp4579
bag1
(g2
(g1428
g4375
g1422
g1
(g16
g4518
tp4580
Rp4581
(dp4582
btp4583
Rp4584
(dp4585
bg2
(g3
(I1
I6
tp4586
Rp4587
(dp4588
bg1432
g4402
g4280
g4226
tp4589
Rp4590
(dp4591
bg2
(g4587
g4402
g4417
g4280
g4226
tp4592
Rp4593
(dp4594
bg2
(g4587
g2822
g4384
g4226
g4326
g4392
tp4595
Rp4596
(dp4597
bg2
(g4371
g9
g2822
g4271
g4280
g2840
g4226
g4449
tp4598
Rp4599
(dp4600
bg2
(g4533
g9
g2831
g4262
g4280
g2840
g4226
g4255
g4392
tp4601
Rp4602
(dp4603
btp4604
Rp4605
(dp4606
bag1
(g2
(g4560
g2822
g4402
g4226
g4243
g4392
tp4607
Rp4608
(dp4609
bg2
(g4356
g4262
g1422
g7
(g1
(g4311
g4317
g2
(g13
g4326
g4243
tp4610
Rp4611
(dp4612
btp4613
Rp4614
(dp4615
bg4341
tp4616
Rp4617
(dp4618
bg4347
g1
(g16
g4545
g4362
tp4619
Rp4620
(dp4621
btp4622
Rp4623
(dp4624
bg2
(g4398
g2822
g4402
g4226
g4326
g4392
tp4625
Rp4626
(dp4627
bg2
(g4587
g1432
g4384
g4280
g4226
g4617
g4347
tp4628
Rp4629
(dp4630
bg2
(g4587
g4384
g4417
g4280
g4226
g4617
g4347
tp4631
Rp4632
(dp4633
bg2
(g2818
g9
g1432
g4271
g2840
g4226
g4344
g4347
tp4634
Rp4635
(dp4636
bg2
(g2818
g9
g4271
g4417
g2840
g4226
g4344
g4347
tp4637
Rp4638
(dp4639
bg2
(g3
(I-2
I3
tp4640
Rp4641
(dp4642
bg9
g2831
g4375
g4280
g2840
g4226
g4255
g4392
tp4643
Rp4644
(dp4645
btp4646
Rp4647
(dp4648
bag1
(g2
(g1428
g4384
g1422
g1
(g16
g4518
g4246
tp4649
Rp4650
(dp4651
btp4652
Rp4653
(dp4654
bg2
(g4371
g2822
g4375
g4226
g4326
g4392
tp4655
Rp4656
(dp4657
bg2
(g4587
g2822
g4375
g4226
g4243
g4392
tp4658
Rp4659
(dp4660
bg2
(g4371
g1432
g4262
g4280
g4226
g4617
g4347
tp4661
Rp4662
(dp4663
bg2
(g4371
g4262
g4417
g4280
g4226
g4617
g4347
tp4664
Rp4665
(dp4666
bg2
(g4587
g9
g2831
g4402
g4280
g2840
g4226
g4255
g4392
tp4667
Rp4668
(dp4669
btp4670
Rp4671
(dp4672
bag1
(g2
(g1428
g4271
g1422
g4650
tp4673
Rp4674
(dp4675
bg2
(g4356
g2831
g4402
g4226
g16
g4243
g4500
tp4676
Rp4677
(dp4678
bg2
(g4587
g2831
g4402
g4226
g4243
g4500
g4509
tp4679
Rp4680
(dp4681
bg2
(g4533
g9
g2822
g4375
g4280
g2840
g4226
g4449
tp4682
Rp4683
(dp4684
btp4685
Rp4686
(dp4687
bag1
(g2
(g3
(I-9
I4
tp4688
Rp4689
(dp4690
bg4417
g16
g1422
tp4691
Rp4692
(dp4693
bg2
(g2818
g9
g2822
g2831
g2840
g4226
g4255
tp4694
Rp4695
(dp4696
bg2
(g4252
g9
g4262
g4271
g2840
g4226
g4344
g4347
tp4697
Rp4698
(dp4699
btp4700
Rp4701
(dp4702
ba.