(lp0
csympy.core.add
Add
p1
(csympy.core.mul
Mul
p2
(csympy.core.numbers
Rational
p3
(I1
I4
tp4
Rp5
(dp6
bcsympy.core.power
Pow
p7
(csympy.core.numbers
Pi
p8
(tRp9
(dp10
bcsympy.core.numbers
Integer
p11
(I2
tp12
Rp13
(dp14
btp15
Rp16
(dp17
bg7
(csympy.core.symbol
Symbol
p18
(S'Re'
p19
tp20
Rp21
(dp22
S'_assumptions'
p23
ccopy_reg
_reconstructor
p24
(csympy.core.assumptions
StdFactKB
p25
c__builtin__
dict
p26
(dp27
S'real'
p28
NsS'even'
p29
NsS'irrational'
p30
NsS'antihermitian'
p31
NsS'extended_nonpositive'
p32
NsS'algebraic'
p33
NsS'hermitian'
p34
NsS'infinite'
p35
NsS'integer'
p36
NsS'imaginary'
p37
NsS'nonzero'
p38
NsS'extended_real'
p39
NsS'commutative'
p40
I01
sS'zero'
p41
NsS'positive'
p42
NsS'negative'
p43
NsS'extended_negative'
p44
NsS'complex'
p45
NsS'rational'
p46
NsS'extended_positive'
p47
NsS'finite'
p48
NsS'extended_nonnegative'
p49
Nstp50
Rp51
(dp52
S'rules'
p53
g24
(csympy.core.facts
FactRules
p54
c__builtin__
object
p55
Ntp56
Rp57
(dp58
S'beta_rules'
p59
(lp60
(c__builtin__
set
p61
((lp62
(S'algebraic'
p63
I00
tp64
a(S'complex'
p65
I01
tp66
atp67
Rp68
(S'transcendental'
p69
I01
tp70
tp71
a(g61
((lp72
(g29
I00
tp73
a(S'integer'
p74
I01
tp75
atp76
Rp77
(S'odd'
p78
I01
tp79
tp80
a(g61
((lp81
(S'integer'
p82
I01
tp83
a(S'odd'
p84
I00
tp85
atp86
Rp87
(S'even'
p88
I01
tp89
tp90
a(g61
((lp91
(g35
I00
tp92
a(S'real'
p93
I00
tp94
atp95
Rp96
(S'extended_real'
p97
I00
tp98
tp99
a(g61
((lp100
(g97
I01
tp101
a(g93
I00
tp102
atp103
Rp104
(g35
I01
tp105
tp106
a(g61
((lp107
(g97
I01
tp108
a(g35
I00
tp109
atp110
Rp111
(g93
I01
tp112
tp113
a(g61
((lp114
(S'extended_real'
p115
I01
tp116
a(S'finite'
p117
I01
tp118
atp119
Rp120
(S'real'
p121
I01
tp122
tp123
a(g61
((lp124
(S'zero'
p125
I00
tp126
a(S'extended_negative'
p127
I00
tp128
a(g47
I00
tp129
atp130
Rp131
(S'extended_real'
p132
I00
tp133
tp134
a(g61
((lp135
(g125
I00
tp136
a(g132
I01
tp137
a(g47
I00
tp138
atp139
Rp140
(g127
I01
tp141
tp142
a(g61
((lp143
(g47
I00
tp144
a(g132
I01
tp145
a(g127
I00
tp146
atp147
Rp148
(g125
I01
tp149
tp150
a(g61
((lp151
(g125
I00
tp152
a(g132
I01
tp153
a(g127
I00
tp154
atp155
Rp156
(g47
I01
tp157
tp158
a(g61
((lp159
(S'extended_nonzero'
p160
I01
tp161
a(S'extended_nonpositive'
p162
I01
tp163
atp164
Rp165
(S'extended_negative'
p166
I01
tp167
tp168
a(g61
((lp169
(S'extended_nonzero'
p170
I01
tp171
a(g49
I01
tp172
atp173
Rp174
(S'extended_positive'
p175
I01
tp176
tp177
a(g61
((lp178
(S'extended_positive'
p179
I00
tp180
a(S'extended_real'
p181
I01
tp182
atp183
Rp184
(S'extended_nonpositive'
p185
I01
tp186
tp187
a(g61
((lp188
(S'extended_real'
p189
I01
tp190
a(S'extended_negative'
p191
I00
tp192
atp193
Rp194
(S'extended_nonnegative'
p195
I01
tp196
tp197
a(g61
((lp198
(S'zero'
p199
I00
tp200
a(S'positive'
p201
I00
tp202
a(S'negative'
p203
I00
tp204
atp205
Rp206
(S'real'
p207
I00
tp208
tp209
a(g61
((lp210
(g207
I01
tp211
a(g199
I00
tp212
a(g201
I00
tp213
atp214
Rp215
(g203
I01
tp216
tp217
a(g61
((lp218
(g207
I01
tp219
a(g201
I00
tp220
a(g203
I00
tp221
atp222
Rp223
(g199
I01
tp224
tp225
a(g61
((lp226
(g207
I01
tp227
a(g199
I00
tp228
a(g203
I00
tp229
atp230
Rp231
(g201
I01
tp232
tp233
a(g61
((lp234
(S'nonzero'
p235
I01
tp236
a(S'nonpositive'
p237
I01
tp238
atp239
Rp240
(g43
I01
tp241
tp242
a(g61
((lp243
(S'nonzero'
p244
I01
tp245
a(S'nonnegative'
p246
I01
tp247
atp248
Rp249
(S'positive'
p250
I01
tp251
tp252
a(g61
((lp253
(S'real'
p254
I01
tp255
a(S'positive'
p256
I00
tp257
atp258
Rp259
(S'nonpositive'
p260
I01
tp261
tp262
a(g61
((lp263
(S'real'
p264
I01
tp265
a(S'negative'
p266
I00
tp267
atp268
Rp269
(S'nonnegative'
p270
I01
tp271
tp272
a(g61
((lp273
(S'finite'
p274
I01
tp275
a(S'extended_positive'
p276
I01
tp277
atp278
Rp279
(g42
I01
tp280
tp281
a(g61
((lp282
(g44
I01
tp283
a(S'finite'
p284
I01
tp285
atp286
Rp287
(S'negative'
p288
I01
tp289
tp290
a(g61
((lp291
(S'finite'
p292
I01
tp293
a(g32
I01
tp294
atp295
Rp296
(S'nonpositive'
p297
I01
tp298
tp299
a(g61
((lp300
(S'finite'
p301
I01
tp302
a(S'extended_nonnegative'
p303
I01
tp304
atp305
Rp306
(S'nonnegative'
p307
I01
tp308
tp309
a(g61
((lp310
(S'finite'
p311
I01
tp312
a(S'extended_nonzero'
p313
I01
tp314
atp315
Rp316
(g38
I01
tp317
tp318
a(g61
((lp319
(S'extended_nonnegative'
p320
I01
tp321
a(S'extended_nonpositive'
p322
I01
tp323
atp324
Rp325
(S'zero'
p326
I01
tp327
tp328
a(g61
((lp329
(S'nonpositive'
p330
I01
tp331
a(S'nonnegative'
p332
I01
tp333
atp334
Rp335
(g41
I01
tp336
tp337
a(g61
((lp338
(S'even'
p339
I01
tp340
a(S'prime'
p341
I00
tp342
a(S'positive'
p343
I01
tp344
atp345
Rp346
(S'composite'
p347
I01
tp348
tp349
a(g61
((lp350
(g339
I01
tp351
a(g347
I00
tp352
a(g343
I01
tp353
atp354
Rp355
(g341
I01
tp356
tp357
a(g61
((lp358
(g347
I00
tp359
a(g341
I00
tp360
a(g343
I01
tp361
atp362
Rp363
(g339
I00
tp364
tp365
a(g61
((lp366
(g339
I01
tp367
a(g347
I00
tp368
a(g341
I00
tp369
atp370
Rp371
(g343
I00
tp372
tp373
a(g61
((lp374
(S'real'
p375
I01
tp376
a(g46
I00
tp377
atp378
Rp379
(g30
I01
tp380
tp381
a(g61
((lp382
(S'integer'
p383
I00
tp384
a(S'extended_real'
p385
I01
tp386
atp387
Rp388
(S'noninteger'
p389
I01
tp390
tp391
a(g61
((lp392
(S'zero'
p393
I00
tp394
a(S'extended_real'
p395
I01
tp396
atp397
Rp398
(S'extended_nonzero'
p399
I01
tp400
tp401
asS'defined_facts'
p402
g61
((lp403
g330
ag34
ag84
ag29
aS'commutative'
p404
ag42
ag389
ag43
ag44
ag45
ag46
ag48
ag49
ag28
ag38
ag30
ag31
aS'composite'
p405
ag32
ag313
ag35
ag36
ag37
ag341
ag39
ag33
ag41
ag246
ag47
ag69
atp406
Rp407
sS'full_implications'
p408
ccollections
defaultdict
p409
(g61
tp410
Rp411
(g29
I01
tp412
g61
((lp413
(S'real'
p414
I01
tp415
a(S'infinite'
p416
I00
tp417
a(S'imaginary'
p418
I00
tp419
a(g39
I01
tp420
a(g33
I01
tp421
a(g389
I00
tp422
a(S'finite'
p423
I01
tp424
a(g82
I01
tp425
a(g30
I00
tp426
a(g78
I00
tp427
a(g404
I01
tp428
a(g46
I01
tp429
a(S'complex'
p430
I01
tp431
a(g69
I00
tp432
a(g34
I01
tp433
atp434
Rp435
s(g34
I00
tp436
g61
((lp437
(S'zero'
p438
I00
tp439
a(S'positive'
p440
I00
tp441
a(S'prime'
p442
I00
tp443
a(g330
I00
tp444
a(g405
I00
tp445
a(g307
I00
tp446
a(S'nonzero'
p447
I00
tp448
a(g36
I00
tp449
a(g414
I00
tp450
a(g88
I00
tp451
a(g30
I00
tp452
a(g78
I00
tp453
a(g46
I00
tp454
a(g43
I00
tp455
atp456
Rp457
s(S'real'
p458
I00
tp459
g61
((lp460
(g199
I00
tp461
a(g201
I00
tp462
a(g447
I00
tp463
a(g260
I00
tp464
a(g405
I00
tp465
a(g270
I00
tp466
a(g36
I00
tp467
a(g442
I00
tp468
a(g88
I00
tp469
a(g30
I00
tp470
a(g78
I00
tp471
a(S'rational'
p472
I00
tp473
a(g203
I00
tp474
atp475
Rp476
s(g320
I01
tp477
g61
((lp478
(g418
I00
tp479
a(g189
I01
tp480
a(g191
I00
tp481
a(g43
I00
tp482
a(g404
I01
tp483
atp484
Rp485
s(g43
I01
tp486
g61
((lp487
(g207
I01
tp488
a(g235
I01
tp489
a(g440
I00
tp490
a(g442
I00
tp491
a(g416
I00
tp492
a(g237
I01
tp493
a(g39
I01
tp494
a(g47
I00
tp495
a(g405
I00
tp496
a(g270
I00
tp497
a(g399
I01
tp498
a(g418
I00
tp499
a(g44
I01
tp500
a(g284
I01
tp501
a(g438
I00
tp502
a(g32
I01
tp503
a(g404
I01
tp504
a(g303
I00
tp505
a(g430
I01
tp506
a(g34
I01
tp507
atp508
Rp509
s(g37
I00
tp510
g61
((lp511
tp512
Rp513
s(g246
I00
tp514
g61
((lp515
(g442
I00
tp516
a(g250
I00
tp517
a(g405
I00
tp518
a(g41
I00
tp519
atp520
Rp521
s(g33
I01
tp522
g61
((lp523
(g404
I01
tp524
a(g416
I00
tp525
a(g430
I01
tp526
a(g69
I00
tp527
a(g423
I01
tp528
atp529
Rp530
s(g235
I00
tp531
g61
((lp532
(g250
I00
tp533
a(g442
I00
tp534
a(g43
I00
tp535
a(g405
I00
tp536
atp537
Rp538
s(g78
I01
tp539
g61
((lp540
(g414
I01
tp541
a(g438
I00
tp542
a(g416
I00
tp543
a(g418
I00
tp544
a(g39
I01
tp545
a(g29
I00
tp546
a(g33
I01
tp547
a(g38
I01
tp548
a(g399
I01
tp549
a(g389
I00
tp550
a(g423
I01
tp551
a(g74
I01
tp552
a(g30
I00
tp553
a(g404
I01
tp554
a(g46
I01
tp555
a(g430
I01
tp556
a(g69
I00
tp557
a(g34
I01
tp558
atp559
Rp560
s(g32
I01
tp561
g61
((lp562
(g440
I00
tp563
a(g405
I00
tp564
a(g179
I00
tp565
a(g181
I01
tp566
a(g442
I00
tp567
a(g418
I00
tp568
a(g404
I01
tp569
atp570
Rp571
s(g46
I01
tp572
g61
((lp573
(S'real'
p574
I01
tp575
a(g416
I00
tp576
a(g418
I00
tp577
a(g39
I01
tp578
a(S'algebraic'
p579
I01
tp580
a(g423
I01
tp581
a(g30
I00
tp582
a(g404
I01
tp583
a(g430
I01
tp584
a(g69
I00
tp585
a(g34
I01
tp586
atp587
Rp588
s(S'complex'
p589
I01
tp590
g61
((lp591
(g404
I01
tp592
a(g416
I00
tp593
a(g423
I01
tp594
atp595
Rp596
s(g69
I01
tp597
g61
((lp598
(g438
I00
tp599
a(g416
I00
tp600
a(g63
I00
tp601
a(g405
I00
tp602
a(g88
I00
tp603
a(g36
I00
tp604
a(g442
I00
tp605
a(g78
I00
tp606
a(g404
I01
tp607
a(g65
I01
tp608
a(g46
I00
tp609
a(g423
I01
tp610
atp611
Rp612
s(g41
I01
tp613
g61
((lp614
(S'even'
p615
I01
tp616
a(g320
I01
tp617
a(g418
I00
tp618
a(g33
I01
tp619
a(g322
I01
tp620
a(g46
I01
tp621
a(g430
I01
tp622
a(g43
I00
tp623
a(g207
I01
tp624
a(g442
I00
tp625
a(g47
I00
tp626
a(g399
I00
tp627
a(g34
I01
tp628
a(g404
I01
tp629
a(g166
I00
tp630
a(g440
I00
tp631
a(g405
I00
tp632
a(g330
I01
tp633
a(g132
I01
tp634
a(S'finite'
p635
I01
tp636
a(g74
I01
tp637
a(g416
I00
tp638
a(g447
I00
tp639
a(g332
I01
tp640
a(g389
I00
tp641
a(g30
I00
tp642
a(g78
I00
tp643
a(g69
I00
tp644
atp645
Rp646
s(g28
I01
tp647
g61
((lp648
(S'complex'
p649
I01
tp650
a(g418
I00
tp651
a(g115
I01
tp652
a(g117
I01
tp653
a(g404
I01
tp654
a(g416
I00
tp655
a(g34
I01
tp656
atp657
Rp658
s(g341
I00
tp659
g61
((lp660
tp661
Rp662
s(g31
I00
tp663
g61
((lp664
(g37
I00
tp665
atp666
Rp667
s(g42
I01
tp668
g61
((lp669
(g207
I01
tp670
a(g438
I00
tp671
a(g416
I00
tp672
a(g260
I00
tp673
a(g276
I01
tp674
a(g418
I00
tp675
a(g39
I01
tp676
a(g399
I01
tp677
a(g244
I01
tp678
a(g246
I01
tp679
a(g274
I01
tp680
a(g43
I00
tp681
a(g320
I01
tp682
a(g404
I01
tp683
a(g32
I00
tp684
a(g430
I01
tp685
a(g34
I01
tp686
a(g166
I00
tp687
atp688
Rp689
s(g37
I01
tp690
g61
((lp691
(g438
I00
tp692
a(g458
I00
tp693
a(g307
I00
tp694
a(g447
I00
tp695
a(g45
I01
tp696
a(g43
I00
tp697
a(g442
I00
tp698
a(g47
I00
tp699
a(g31
I01
tp700
a(g166
I00
tp701
a(g404
I01
tp702
a(g440
I00
tp703
a(g405
I00
tp704
a(g423
I01
tp705
a(g32
I00
tp706
a(g416
I00
tp707
a(g88
I00
tp708
a(g330
I00
tp709
a(g39
I00
tp710
a(g46
I00
tp711
a(g389
I00
tp712
a(g36
I00
tp713
a(g30
I00
tp714
a(g78
I00
tp715
a(g303
I00
tp716
a(g313
I00
tp717
atp718
Rp719
s(g47
I00
tp720
g61
((lp721
(g442
I00
tp722
a(g42
I00
tp723
a(g405
I00
tp724
atp725
Rp726
s(g313
I00
tp727
g61
((lp728
(g440
I00
tp729
a(g38
I00
tp730
a(g175
I00
tp731
a(g405
I00
tp732
a(g442
I00
tp733
a(g166
I00
tp734
a(g43
I00
tp735
atp736
Rp737
s(g34
I01
tp738
g61
((lp739
tp740
Rp741
s(g38
I01
tp742
g61
((lp743
(g458
I01
tp744
a(g438
I00
tp745
a(g416
I00
tp746
a(g418
I00
tp747
a(g39
I01
tp748
a(g313
I01
tp749
a(g311
I01
tp750
a(g404
I01
tp751
a(g430
I01
tp752
a(g34
I01
tp753
atp754
Rp755
s(g125
I00
tp756
g61
((lp757
tp758
Rp759
s(g203
I00
tp760
g61
((lp761
tp762
Rp763
s(g45
I00
tp764
g61
((lp765
(g438
I00
tp766
a(g440
I00
tp767
a(g442
I00
tp768
a(g330
I00
tp769
a(S'imaginary'
p770
I00
tp771
a(g33
I00
tp772
a(g405
I00
tp773
a(g307
I00
tp774
a(g46
I00
tp775
a(g447
I00
tp776
a(g36
I00
tp777
a(g28
I00
tp778
a(g88
I00
tp779
a(g30
I00
tp780
a(g78
I00
tp781
a(g69
I00
tp782
a(g43
I00
tp783
atp784
Rp785
s(g404
I01
tp786
g61
((lp787
tp788
Rp789
s(g44
I00
tp790
g61
((lp791
(g288
I00
tp792
atp793
Rp794
s(S'prime'
p795
I01
tp796
g61
((lp797
(g38
I01
tp798
a(g438
I00
tp799
a(g418
I00
tp800
a(g399
I01
tp801
a(g320
I01
tp802
a(g46
I01
tp803
a(g430
I01
tp804
a(g43
I00
tp805
a(g414
I01
tp806
a(g440
I01
tp807
a(g166
I00
tp808
a(g404
I01
tp809
a(g39
I01
tp810
a(g175
I01
tp811
a(g34
I01
tp812
a(g405
I00
tp813
a(g33
I01
tp814
a(S'integer'
p815
I01
tp816
a(g416
I00
tp817
a(g423
I01
tp818
a(g330
I00
tp819
a(g332
I01
tp820
a(g389
I00
tp821
a(g30
I00
tp822
a(g32
I00
tp823
a(g69
I00
tp824
atp825
Rp826
s(g579
I00
tp827
g61
((lp828
(g438
I00
tp829
a(g442
I00
tp830
a(g405
I00
tp831
a(g36
I00
tp832
a(g88
I00
tp833
a(g78
I00
tp834
a(S'rational'
p835
I00
tp836
atp837
Rp838
s(S'positive'
p839
I00
tp840
g61
((lp841
(g405
I00
tp842
a(g442
I00
tp843
atp844
Rp845
s(g39
I01
tp846
g61
((lp847
(g418
I00
tp848
a(S'commutative'
p849
I01
tp850
atp851
Rp852
s(g175
I01
tp853
g61
((lp854
(g438
I00
tp855
a(g330
I00
tp856
a(g418
I00
tp857
a(g132
I01
tp858
a(g170
I01
tp859
a(g166
I00
tp860
a(g49
I01
tp861
a(g404
I01
tp862
a(g185
I00
tp863
a(g43
I00
tp864
atp865
Rp866
s(g237
I01
tp867
g61
((lp868
(g254
I01
tp869
a(g256
I00
tp870
a(g416
I00
tp871
a(g39
I01
tp872
a(g47
I00
tp873
a(g405
I00
tp874
a(g442
I00
tp875
a(g32
I01
tp876
a(g418
I00
tp877
a(g404
I01
tp878
a(g430
I01
tp879
a(g34
I01
tp880
a(g292
I01
tp881
atp882
Rp883
s(g635
I00
tp884
g61
((lp885
(g438
I00
tp886
a(g42
I00
tp887
a(g442
I00
tp888
a(g297
I00
tp889
a(g418
I00
tp890
a(g63
I00
tp891
a(g405
I00
tp892
a(g307
I00
tp893
a(g69
I00
tp894
a(g121
I00
tp895
a(g36
I00
tp896
a(g38
I00
tp897
a(g88
I00
tp898
a(g30
I00
tp899
a(g78
I00
tp900
a(g589
I00
tp901
a(g46
I00
tp902
a(g288
I00
tp903
atp904
Rp905
s(g347
I00
tp906
g61
((lp907
tp908
Rp909
s(g399
I01
tp910
g61
((lp911
(g404
I01
tp912
a(g395
I01
tp913
a(g393
I00
tp914
a(g418
I00
tp915
atp916
Rp917
s(g44
I01
tp918
g61
((lp919
(g438
I00
tp920
a(g440
I00
tp921
a(g132
I01
tp922
a(g404
I01
tp923
a(g418
I00
tp924
a(g405
I00
tp925
a(g307
I00
tp926
a(g160
I01
tp927
a(g442
I00
tp928
a(g162
I01
tp929
a(g47
I00
tp930
a(g195
I00
tp931
atp932
Rp933
s(g615
I00
tp934
g61
((lp935
(g438
I00
tp936
atp937
Rp938
s(g74
I01
tp939
g61
((lp940
(g414
I01
tp941
a(g416
I00
tp942
a(g418
I00
tp943
a(g39
I01
tp944
a(g33
I01
tp945
a(g389
I00
tp946
a(g423
I01
tp947
a(g30
I00
tp948
a(g404
I01
tp949
a(S'rational'
p950
I01
tp951
a(g430
I01
tp952
a(g69
I00
tp953
a(g34
I01
tp954
atp955
Rp956
s(g404
I00
tp957
g61
((lp958
(g438
I00
tp959
a(g458
I00
tp960
a(g418
I00
tp961
a(g307
I00
tp962
a(g43
I00
tp963
a(g442
I00
tp964
a(g47
I00
tp965
a(g63
I00
tp966
a(g313
I00
tp967
a(g166
I00
tp968
a(S'complex'
p969
I00
tp970
a(g440
I00
tp971
a(g405
I00
tp972
a(g447
I00
tp973
a(g303
I00
tp974
a(g88
I00
tp975
a(g330
I00
tp976
a(S'extended_real'
p977
I00
tp978
a(g46
I00
tp979
a(g389
I00
tp980
a(g36
I00
tp981
a(g30
I00
tp982
a(g78
I00
tp983
a(g32
I00
tp984
a(g69
I00
tp985
atp986
Rp987
s(g49
I00
tp988
g61
((lp989
(g326
I00
tp990
a(g440
I00
tp991
a(g442
I00
tp992
a(g175
I00
tp993
a(g405
I00
tp994
a(g307
I00
tp995
atp996
Rp997
s(g30
I01
tp998
g61
((lp999
(g375
I01
tp1000
a(g438
I00
tp1001
a(g39
I01
tp1002
a(g442
I00
tp1003
a(g416
I00
tp1004
a(g418
I00
tp1005
a(g405
I00
tp1006
a(g88
I00
tp1007
a(g399
I01
tp1008
a(g38
I01
tp1009
a(g36
I00
tp1010
a(g389
I01
tp1011
a(g78
I00
tp1012
a(g404
I01
tp1013
a(g430
I01
tp1014
a(g46
I00
tp1015
a(g34
I01
tp1016
a(g423
I01
tp1017
atp1018
Rp1019
s(g35
I00
tp1020
g61
((lp1021
tp1022
Rp1023
s(S'polar'
p1024
I01
tp1025
g61
((lp1026
tp1027
Rp1028
s(g48
I01
tp1029
g61
((lp1030
(g416
I00
tp1031
atp1032
Rp1033
s(g330
I00
tp1034
g61
((lp1035
(g41
I00
tp1036
a(g43
I00
tp1037
atp1038
Rp1039
s(g69
I00
tp1040
g61
((lp1041
tp1042
Rp1043
s(g405
I01
tp1044
g61
((lp1045
(g38
I01
tp1046
a(g438
I00
tp1047
a(g418
I00
tp1048
a(g33
I01
tp1049
a(g320
I01
tp1050
a(g46
I01
tp1051
a(g430
I01
tp1052
a(g43
I00
tp1053
a(g414
I01
tp1054
a(g795
I00
tp1055
a(g839
I01
tp1056
a(g166
I00
tp1057
a(g404
I01
tp1058
a(g175
I01
tp1059
a(g34
I01
tp1060
a(g39
I01
tp1061
a(g399
I01
tp1062
a(g36
I01
tp1063
a(g416
I00
tp1064
a(g423
I01
tp1065
a(g330
I00
tp1066
a(g332
I01
tp1067
a(g389
I00
tp1068
a(g30
I00
tp1069
a(g32
I00
tp1070
a(g69
I00
tp1071
atp1072
Rp1073
s(g332
I01
tp1074
g61
((lp1075
(g264
I01
tp1076
a(g416
I00
tp1077
a(g418
I00
tp1078
a(g39
I01
tp1079
a(g266
I00
tp1080
a(g301
I01
tp1081
a(g166
I00
tp1082
a(g303
I01
tp1083
a(g404
I01
tp1084
a(g430
I01
tp1085
a(g34
I01
tp1086
atp1087
Rp1088
s(g389
I00
tp1089
g61
((lp1090
tp1091
Rp1092
s(g181
I00
tp1093
g61
((lp1094
(g125
I00
tp1095
a(g440
I00
tp1096
a(g442
I00
tp1097
a(g330
I00
tp1098
a(g121
I00
tp1099
a(g47
I00
tp1100
a(g399
I00
tp1101
a(g405
I00
tp1102
a(g307
I00
tp1103
a(g389
I00
tp1104
a(g36
I00
tp1105
a(g447
I00
tp1106
a(g88
I00
tp1107
a(g127
I00
tp1108
a(g30
I00
tp1109
a(g78
I00
tp1110
a(g195
I00
tp1111
a(g46
I00
tp1112
a(g43
I00
tp1113
a(g185
I00
tp1114
atp1115
Rp1116
s(g36
I00
tp1117
g61
((lp1118
(g438
I00
tp1119
a(g405
I00
tp1120
a(g442
I00
tp1121
a(g88
I00
tp1122
a(g78
I00
tp1123
atp1124
Rp1125
s(g389
I01
tp1126
g61
((lp1127
(g438
I00
tp1128
a(g385
I01
tp1129
a(g418
I00
tp1130
a(g405
I00
tp1131
a(g88
I00
tp1132
a(g399
I01
tp1133
a(g383
I00
tp1134
a(g442
I00
tp1135
a(g78
I00
tp1136
a(g404
I01
tp1137
atp1138
Rp1139
s(g84
I00
tp1140
g61
((lp1141
tp1142
Rp1143
s(g416
I01
tp1144
g61
((lp1145
(g48
I00
tp1146
a(g438
I00
tp1147
a(g440
I00
tp1148
a(g442
I00
tp1149
a(g330
I00
tp1150
a(g418
I00
tp1151
a(g63
I00
tp1152
a(g405
I00
tp1153
a(g307
I00
tp1154
a(g46
I00
tp1155
a(g447
I00
tp1156
a(g36
I00
tp1157
a(g458
I00
tp1158
a(g88
I00
tp1159
a(g30
I00
tp1160
a(g78
I00
tp1161
a(g45
I00
tp1162
a(g69
I00
tp1163
a(g43
I00
tp1164
atp1165
Rp1166
s(g32
I00
tp1167
g61
((lp1168
(g326
I00
tp1169
a(g297
I00
tp1170
a(g166
I00
tp1171
a(g43
I00
tp1172
atp1173
Rp1174
s(g46
I00
tp1175
g61
((lp1176
(g438
I00
tp1177
a(g88
I00
tp1178
a(g405
I00
tp1179
a(S'integer'
p1180
I00
tp1181
a(g442
I00
tp1182
a(g78
I00
tp1183
atp1184
Rp1185
ssS'prereq'
p1186
g409
(g61
tp1187
Rp1188
g330
g61
((lp1189
g458
ag795
ag181
ag404
ag405
ag42
ag32
ag43
ag41
ag45
ag416
ag175
ag34
ag635
ag37
atp1190
Rp1191
sg438
g61
((lp1192
g458
ag615
ag69
ag330
ag405
ag32
ag579
ag34
ag416
ag36
ag37
ag78
ag30
ag38
ag181
ag404
ag399
ag42
ag389
ag43
ag44
ag246
ag795
ag45
ag46
ag175
ag635
ag49
atp1193
Rp1194
sg78
g61
((lp1195
g458
ag69
ag579
ag41
ag416
ag36
ag37
ag30
ag29
ag181
ag404
ag389
ag34
ag45
ag46
ag635
atp1196
Rp1197
sg30
g61
((lp1198
g29
ag458
ag181
ag404
ag405
ag795
ag34
ag41
ag45
ag46
ag416
ag74
ag37
ag635
ag78
atp1199
Rp1200
sg447
g61
((lp1201
g458
ag30
ag405
ag313
ag41
ag416
ag34
ag78
ag37
ag795
ag181
ag404
ag42
ag43
ag45
ag635
atp1202
Rp1203
sg1024
g61
((lp1204
tp1205
Rp1206
sg404
g61
((lp1207
g28
ag38
ag30
ag237
ag405
ag32
ag399
ag41
ag74
ag37
ag332
ag78
ag29
ag39
ag33
ag42
ag389
ag43
ag44
ag46
ag795
ag589
ag69
ag175
ag320
atp1208
Rp1209
sg440
g61
((lp1210
g458
ag795
ag237
ag405
ag32
ag313
ag41
ag416
ag34
ag37
ag235
ag181
ag404
ag43
ag44
ag246
ag45
ag47
ag635
ag49
atp1211
Rp1212
sg389
g61
((lp1213
g29
ag795
ag181
ag404
ag405
ag41
ag74
ag37
ag78
ag30
atp1214
Rp1215
sg43
g61
((lp1216
g458
ag795
ag330
ag405
ag320
ag313
ag41
ag416
ag37
ag235
ag181
ag404
ag42
ag34
ag44
ag332
ag45
ag175
ag635
ag32
atp1217
Rp1218
sg191
g61
((lp1219
g795
ag181
ag404
ag405
ag42
ag320
ag43
ag332
ag313
ag41
ag175
ag37
ag32
atp1220
Rp1221
sg430
g61
((lp1222
g28
ag795
ag30
ag237
ag405
ag33
ag41
ag38
ag416
ag74
ag37
ag78
ag404
ag29
ag69
ag42
ag43
ag332
ag46
ag635
atp1223
Rp1224
sg46
g61
((lp1225
g458
ag795
ag30
ag405
ag579
ag41
ag416
ag74
ag37
ag78
ag29
ag181
ag404
ag34
ag45
ag69
ag635
atp1226
Rp1227
sg423
g61
((lp1228
g28
ag795
ag46
ag237
ag405
ag33
ag41
ag416
ag74
ag37
ag78
ag30
ag29
ag42
ag43
ag332
ag589
ag69
ag38
atp1229
Rp1230
sg32
g61
((lp1231
g795
ag181
ag404
ag237
ag405
ag42
ag43
ag44
ag41
ag37
ag175
atp1232
Rp1233
sg414
g61
((lp1234
g38
ag30
ag237
ag405
ag41
ag416
ag74
ag34
ag78
ag37
ag29
ag181
ag404
ag42
ag43
ag332
ag795
ag45
ag46
ag635
atp1235
Rp1236
sg88
g61
((lp1237
g458
ag69
ag579
ag41
ag416
ag36
ag37
ag78
ag30
ag181
ag404
ag389
ag34
ag45
ag46
ag635
atp1238
Rp1239
sg69
g61
((lp1240
g29
ag795
ag404
ag405
ag33
ag41
ag45
ag46
ag416
ag74
ag635
ag78
atp1241
Rp1242
sg31
g61
((lp1243
g37
atp1244
Rp1245
sg405
g61
((lp1246
g458
ag795
ag34
ag69
ag237
ag49
ag579
ag41
ag416
ag36
ag37
ag30
ag235
ag181
ag404
ag313
ag839
ag389
ag43
ag44
ag246
ag45
ag46
ag47
ag635
ag32
atp1247
Rp1248
sg303
g61
((lp1249
g795
ag181
ag404
ag405
ag42
ag43
ag44
ag332
ag41
ag37
ag175
atp1250
Rp1251
sg33
g61
((lp1252
g29
ag795
ag69
ag405
ag41
ag45
ag46
ag416
ag74
ag635
ag78
ag404
atp1253
Rp1254
sg416
g61
((lp1255
g28
ag795
ag46
ag237
ag405
ag33
ag41
ag38
ag74
ag37
ag78
ag30
ag29
ag42
ag43
ag332
ag589
ag69
ag48
atp1256
Rp1257
sg82
g61
((lp1258
g458
ag795
ag69
ag405
ag579
ag41
ag416
ag37
ag78
ag30
ag29
ag181
ag404
ag389
ag34
ag45
ag46
ag635
atp1259
Rp1260
sg418
g61
((lp1261
g28
ag38
ag30
ag31
ag237
ag405
ag32
ag399
ag41
ag416
ag74
ag78
ag29
ag39
ag404
ag42
ag389
ag43
ag44
ag332
ag795
ag45
ag46
ag175
ag635
ag320
atp1262
Rp1263
sg442
g61
((lp1264
g458
ag34
ag69
ag237
ag405
ag49
ag579
ag41
ag416
ag36
ag37
ag30
ag235
ag181
ag404
ag313
ag839
ag389
ag43
ag44
ag246
ag45
ag46
ag47
ag635
ag32
atp1265
Rp1266
sg39
g61
((lp1267
g28
ag38
ag30
ag237
ag405
ag32
ag399
ag41
ag74
ag37
ag78
ag29
ag404
ag42
ag389
ag43
ag44
ag332
ag795
ag46
ag175
ag320
atp1268
Rp1269
sg399
g61
((lp1270
g38
ag795
ag181
ag404
ag405
ag42
ag389
ag43
ag44
ag41
ag37
ag78
ag175
ag30
atp1271
Rp1272
sg34
g61
((lp1273
g29
ag28
ag30
ag237
ag405
ag42
ag43
ag332
ag795
ag41
ag46
ag74
ag38
ag78
atp1274
Rp1275
sg307
g61
((lp1276
g458
ag795
ag181
ag404
ag405
ag42
ag49
ag43
ag44
ag41
ag45
ag416
ag34
ag635
ag37
atp1277
Rp1278
sg47
g61
((lp1279
g795
ag181
ag404
ag237
ag405
ag42
ag32
ag43
ag44
ag313
ag41
ag37
ag49
atp1280
Rp1281
ssS'beta_triggers'
p1282
g409
(g61
tp1283
Rp1284
(g29
I01
tp1285
(lp1286
I8
aI9
aI10
aI13
aI14
aI16
aI17
aI18
aI21
aI22
aI23
aI24
aI25
aI26
aI27
aI30
aI31
aI33
aI36
as(g34
I00
tp1287
(lp1288
I3
aI4
aI7
aI8
aI10
aI35
aI36
as(g458
I00
tp1289
(lp1290
I3
aI4
aI7
aI8
aI10
aI35
aI36
as(g320
I01
tp1291
(lp1292
I4
aI5
aI6
aI9
aI10
aI12
aI13
aI15
aI17
aI18
aI22
aI26
aI28
aI35
aI36
as(g43
I01
tp1293
(lp1294
I0
aI34
aI35
as(g37
I00
tp1295
g61
((lp1296
tp1297
Rp1298
s(g246
I00
tp1299
(lp1300
I7
aI8
aI10
aI15
aI16
aI21
aI36
as(g33
I01
tp1301
(lp1302
I3
aI5
aI6
aI23
aI24
aI25
aI26
aI27
as(g235
I00
tp1303
(lp1304
I15
aI17
aI21
aI22
as(g78
I01
tp1305
(lp1306
I8
aI10
aI11
aI12
aI13
aI14
aI16
aI18
aI19
aI20
aI21
aI22
aI23
aI24
aI25
aI26
as(g32
I01
tp1307
(lp1308
I4
aI5
aI6
aI8
aI9
aI11
aI14
aI15
aI16
aI17
aI21
aI25
aI28
aI35
aI36
as(g46
I01
tp1309
(lp1310
I8
aI9
aI10
aI13
aI14
aI16
aI17
aI18
aI21
aI22
aI23
aI24
aI25
aI26
aI27
aI35
aI36
as(g589
I01
tp1311
(lp1312
I0
aI3
aI5
aI6
aI23
aI24
aI25
aI26
aI27
as(g69
I01
tp1313
(lp1314
I3
aI5
aI6
aI7
aI8
aI10
aI15
aI16
aI18
aI23
aI24
aI25
aI26
aI27
aI34
aI35
aI36
as(g41
I01
tp1315
(lp1316
s(g28
I01
tp1317
(lp1318
I0
aI8
aI9
aI10
aI13
aI14
aI16
aI17
aI18
aI21
aI22
aI23
aI24
aI25
aI26
aI27
aI34
aI35
aI36
as(g341
I00
tp1319
(lp1320
I30
aI32
aI33
as(g31
I00
tp1321
(lp1322
s(g42
I01
tp1323
(lp1324
I0
aI30
aI31
aI32
aI34
aI35
as(g37
I01
tp1325
(lp1326
I0
as(g47
I00
tp1327
(lp1328
I7
aI8
aI9
aI13
aI15
aI16
aI17
aI21
as(g313
I00
tp1329
(lp1330
I7
aI9
aI13
aI14
aI15
aI17
aI21
aI22
as(g34
I01
tp1331
g61
((lp1332
tp1333
Rp1334
s(g38
I01
tp1335
(lp1336
I0
aI8
aI10
aI11
aI12
aI13
aI14
aI16
aI18
aI19
aI20
aI21
aI22
aI23
aI24
aI25
aI26
aI34
aI35
as(g125
I00
tp1337
(lp1338
I7
aI8
aI10
aI15
aI16
aI18
aI36
as(g203
I00
tp1339
(lp1340
I15
aI17
aI18
aI22
as(g45
I00
tp1341
(lp1342
I3
aI4
aI7
aI8
aI10
aI35
aI36
as(g404
I01
tp1343
g61
((lp1344
tp1345
Rp1346
s(g44
I00
tp1347
(lp1348
I7
aI9
aI10
aI14
aI15
aI17
aI18
aI22
as(g795
I01
tp1349
(lp1350
I1
aI2
as(g579
I00
tp1351
(lp1352
I0
aI7
aI8
aI10
aI15
aI16
aI18
aI34
aI35
aI36
as(g839
I00
tp1353
(lp1354
I15
aI16
aI17
aI21
as(g39
I01
tp1355
(lp1356
I4
aI5
aI6
aI8
aI9
aI10
aI13
aI14
aI35
aI36
as(g175
I01
tp1357
(lp1358
I4
aI5
aI6
aI15
aI18
aI22
aI23
aI26
aI27
aI35
as(g237
I01
tp1359
(lp1360
I0
aI8
aI9
aI11
aI14
aI16
aI17
aI19
aI22
aI24
aI26
aI27
aI28
aI29
aI34
aI35
aI36
as(g635
I00
tp1361
(lp1362
I3
aI4
aI7
aI8
aI10
aI35
aI36
as(g347
I00
tp1363
(lp1364
I31
aI32
aI33
as(g399
I01
tp1365
(lp1366
I4
aI5
aI6
aI8
aI10
aI11
aI12
aI13
aI14
aI15
aI16
aI18
aI27
aI35
as(g44
I01
tp1367
(lp1368
I4
aI5
aI6
aI15
aI16
aI21
aI24
aI25
aI27
aI35
as(g615
I00
tp1369
(lp1370
I1
aI7
aI8
aI10
aI15
aI16
aI18
aI36
as(g74
I01
tp1371
(lp1372
I1
aI2
aI8
aI9
aI10
aI13
aI14
aI16
aI17
aI18
aI21
aI22
aI23
aI24
aI25
aI26
aI27
aI36
as(g404
I00
tp1373
(lp1374
s(g49
I00
tp1375
(lp1376
I7
aI8
aI13
aI15
aI16
aI21
aI36
as(g30
I01
tp1377
(lp1378
I0
aI8
aI10
aI11
aI12
aI13
aI14
aI16
aI18
aI19
aI20
aI21
aI22
aI23
aI24
aI25
aI26
as(g35
I00
tp1379
(lp1380
I3
aI5
as(g1024
I01
tp1381
g61
((lp1382
tp1383
Rp1384
s(g48
I01
tp1385
(lp1386
I3
aI5
aI6
aI23
aI24
aI25
aI26
aI27
as(g330
I00
tp1387
(lp1388
I7
aI8
aI10
aI15
aI18
aI22
aI36
as(g69
I00
tp1389
g61
((lp1390
tp1391
Rp1392
s(g405
I01
tp1393
(lp1394
I1
aI2
as(g332
I01
tp1395
(lp1396
I0
aI9
aI10
aI12
aI13
aI17
aI18
aI20
aI21
aI23
aI25
aI27
aI28
aI29
aI34
aI35
aI36
as(g389
I00
tp1397
g61
((lp1398
tp1399
Rp1400
s(g181
I00
tp1401
(lp1402
s(g36
I00
tp1403
(lp1404
I7
aI8
aI10
aI15
aI16
aI18
aI35
aI36
as(g389
I01
tp1405
(lp1406
I4
aI5
aI6
aI8
aI10
aI11
aI12
aI13
aI14
aI15
aI16
aI18
aI27
as(g84
I00
tp1407
(lp1408
I2
as(g416
I01
tp1409
(lp1410
I7
aI8
aI10
aI35
aI36
as(g32
I00
tp1411
(lp1412
I7
aI10
aI14
aI15
aI18
aI22
aI36
as(g46
I00
tp1413
(lp1414
I7
aI8
aI10
aI15
aI16
aI18
aI34
aI35
aI36
assbsS'_generator'
p1415
(dp1416
sbsbcsympy.core.numbers
NegativeOne
p1417
(I-1
tp1418
Rp1419
(dp1420
btp1421
Rp1422
(dp1423
btp1424
Rp1425
(dp1426
bg2
(g3
(I-1
I4
tp1427
Rp1428
(dp1429
bg18
(S'a0'
p1430
tp1431
Rp1432
(dp1433
g23
g24
(g25
g26
(dp1434
g28
Nsg30
Nsg31
Nsg49
Nsg33
Nsg34
Nsg35
Nsg36
Nsg37
Nsg84
Nsg29
Nsg39
Nsg40
I01
sg41
Nsg42
Nsg43
Nsg44
Nsg45
Nsg46
Nsg175
Nsg48
Nsg32
Nstp1435
Rp1436
(dp1437
g53
g57
sg1415
(dp1438
sbsbg16
g1422
tp1439
Rp1440
(dp1441
bg2
(csympy.core.numbers
Half
p1442
(I1
I2
tp1443
Rp1444
(dp1445
bg9
g18
(S'a1'
p1446
tp1447
Rp1448
(dp1449
g23
g24
(g25
g26
(dp1450
g28
Nsg30
Nsg31
Nsg49
Nsg33
Nsg34
Nsg35
Nsg36
Nsg37
Nsg84
Nsg29
Nsg39
Nsg40
I01
sg41
Nsg42
Nsg43
Nsg44
Nsg45
Nsg46
Nsg47
Nsg48
Nsg32
Nstp1451
Rp1452
(dp1453
g53
g57
sg1415
(dp1454
sbsbg18
(S'a2'
p1455
tp1456
Rp1457
(dp1458
g23
g24
(g25
g26
(dp1459
g28
Nsg30
Nsg31
Nsg49
Nsg33
Nsg34
Nsg35
Nsg36
Nsg37
Nsg84
Nsg29
Nsg39
Nsg40
I01
sg41
Nsg42
Nsg43
Nsg44
Nsg45
Nsg46
Nsg47
Nsg48
Nsg32
Nstp1460
Rp1461
(dp1462
g53
g57
sg1415
(dp1463
sbsbg18
(S'\\gamma'
p1464
tp1465
Rp1466
(dp1467
g23
g24
(g25
g26
(dp1468
g458
I01
sg1024
Nsg30
Nsg31
Nsg405
Nsg49
Nsg29
Nsg33
Nsg34
I01
sg416
I00
sg36
Nsg418
I00
sg84
NsS'nonzero'
p1469
I01
sg39
I01
sg404
I01
sg438
I00
sg313
I01
sg42
Nsg43
Nsg44
Nsg246
Nsg341
Nsg430
I01
sg46
Nsg47
Nsg311
I01
sg32
Nstp1470
Rp1471
(dp1472
g53
g57
sg1415
(dp1473
g1469
I01
sS'finite'
p1474
I01
ssbsbg7
(g11
(I6
tp1475
Rp1476
(dp1477
bg1444
tp1478
Rp1479
(dp1480
bg7
(g1
(g16
g2
(g11
(I4
tp1481
Rp1482
(dp1483
bg7
(g1466
g13
tp1484
Rp1485
(dp1486
btp1487
Rp1488
(dp1489
btp1490
Rp1491
(dp1492
bg3
(I-1
I2
tp1493
Rp1494
(dp1495
btp1496
Rp1497
(dp1498
btp1499
Rp1500
(dp1501
bg2
(g3
(I-1
I2
tp1502
Rp1503
(dp1504
bg9
g18
(S'a5'
p1505
tp1506
Rp1507
(dp1508
g23
g24
(g25
g26
(dp1509
g28
Nsg30
Nsg31
Nsg49
Nsg33
Nsg34
Nsg35
Nsg36
Nsg37
Nsg84
Nsg29
Nsg39
Nsg40
I01
sg41
Nsg42
Nsg43
Nsg44
Nsg45
Nsg46
Nsg47
Nsg48
Nsg32
Nstp1510
Rp1511
(dp1512
g53
g57
sg1415
(dp1513
sbsbg18
(S'a7'
p1514
tp1515
Rp1516
(dp1517
g23
g24
(g25
g26
(dp1518
g28
Nsg30
Nsg31
Nsg49
Nsg33
Nsg34
Nsg35
Nsg36
Nsg37
Nsg84
Nsg29
Nsg39
Nsg40
I01
sg41
Nsg42
Nsg43
Nsg44
Nsg45
Nsg46
Nsg47
Nsg48
Nsg32
Nstp1519
Rp1520
(dp1521
g53
g57
sg1415
(dp1522
sbsbg1466
g1479
g7
(g1
(g2
(g1482
g7
(g18
(S'\\alpha'
p1523
tp1524
Rp1525
(dp1526
g23
g24
(g25
g26
(dp1527
S'real'
p1528
I01
sS'polar'
p1529
NsS'irrational'
p1530
NsS'antihermitian'
p1531
NsS'composite'
p1532
NsS'extended_nonnegative'
p1533
NsS'even'
p1534
NsS'negative'
p1535
NsS'algebraic'
p1536
NsS'hermitian'
p1537
I01
sS'infinite'
p1538
I00
sS'integer'
p1539
NsS'imaginary'
p1540
I00
sS'odd'
p1541
NsS'nonzero'
p1542
I01
sS'extended_real'
p1543
I01
sS'commutative'
p1544
I01
sS'extended_nonzero'
p1545
I01
sS'positive'
p1546
NsS'zero'
p1547
I00
sS'extended_negative'
p1548
NsS'nonnegative'
p1549
NsS'prime'
p1550
NsS'complex'
p1551
I01
sS'rational'
p1552
NsS'extended_positive'
p1553
NsS'finite'
p1554
I01
sS'extended_nonpositive'
p1555
Nstp1556
Rp1557
(dp1558
g53
g24
(g54
g55
Ntp1559
Rp1560
(dp1561
g59
(lp1562
(g61
((lp1563
(S'algebraic'
p1564
I00
tp1565
a(S'complex'
p1566
I01
tp1567
atp1568
Rp1569
(S'transcendental'
p1570
I01
tp1571
tp1572
a(g61
((lp1573
(g1534
I00
tp1574
a(S'integer'
p1575
I01
tp1576
atp1577
Rp1578
(S'odd'
p1579
I01
tp1580
tp1581
a(g61
((lp1582
(S'integer'
p1583
I01
tp1584
a(g1541
I00
tp1585
atp1586
Rp1587
(S'even'
p1588
I01
tp1589
tp1590
a(g61
((lp1591
(S'infinite'
p1592
I00
tp1593
a(S'real'
p1594
I00
tp1595
atp1596
Rp1597
(S'extended_real'
p1598
I00
tp1599
tp1600
a(g61
((lp1601
(g1598
I01
tp1602
a(g1594
I00
tp1603
atp1604
Rp1605
(g1592
I01
tp1606
tp1607
a(g61
((lp1608
(g1598
I01
tp1609
a(g1592
I00
tp1610
atp1611
Rp1612
(g1594
I01
tp1613
tp1614
a(g61
((lp1615
(S'extended_real'
p1616
I01
tp1617
a(S'finite'
p1618
I01
tp1619
atp1620
Rp1621
(S'real'
p1622
I01
tp1623
tp1624
a(g61
((lp1625
(S'zero'
p1626
I00
tp1627
a(S'extended_negative'
p1628
I00
tp1629
a(g1553
I00
tp1630
atp1631
Rp1632
(S'extended_real'
p1633
I00
tp1634
tp1635
a(g61
((lp1636
(g1626
I00
tp1637
a(g1633
I01
tp1638
a(g1553
I00
tp1639
atp1640
Rp1641
(g1628
I01
tp1642
tp1643
a(g61
((lp1644
(g1553
I00
tp1645
a(g1633
I01
tp1646
a(g1628
I00
tp1647
atp1648
Rp1649
(g1626
I01
tp1650
tp1651
a(g61
((lp1652
(g1626
I00
tp1653
a(g1633
I01
tp1654
a(g1628
I00
tp1655
atp1656
Rp1657
(g1553
I01
tp1658
tp1659
a(g61
((lp1660
(S'extended_nonzero'
p1661
I01
tp1662
a(S'extended_nonpositive'
p1663
I01
tp1664
atp1665
Rp1666
(S'extended_negative'
p1667
I01
tp1668
tp1669
a(g61
((lp1670
(S'extended_nonzero'
p1671
I01
tp1672
a(g1533
I01
tp1673
atp1674
Rp1675
(S'extended_positive'
p1676
I01
tp1677
tp1678
a(g61
((lp1679
(S'extended_positive'
p1680
I00
tp1681
a(S'extended_real'
p1682
I01
tp1683
atp1684
Rp1685
(S'extended_nonpositive'
p1686
I01
tp1687
tp1688
a(g61
((lp1689
(S'extended_real'
p1690
I01
tp1691
a(S'extended_negative'
p1692
I00
tp1693
atp1694
Rp1695
(S'extended_nonnegative'
p1696
I01
tp1697
tp1698
a(g61
((lp1699
(S'zero'
p1700
I00
tp1701
a(S'positive'
p1702
I00
tp1703
a(S'negative'
p1704
I00
tp1705
atp1706
Rp1707
(S'real'
p1708
I00
tp1709
tp1710
a(g61
((lp1711
(g1708
I01
tp1712
a(g1700
I00
tp1713
a(g1702
I00
tp1714
atp1715
Rp1716
(g1704
I01
tp1717
tp1718
a(g61
((lp1719
(g1708
I01
tp1720
a(g1702
I00
tp1721
a(g1704
I00
tp1722
atp1723
Rp1724
(g1700
I01
tp1725
tp1726
a(g61
((lp1727
(g1708
I01
tp1728
a(g1700
I00
tp1729
a(g1704
I00
tp1730
atp1731
Rp1732
(g1702
I01
tp1733
tp1734
a(g61
((lp1735
(S'nonzero'
p1736
I01
tp1737
a(S'nonpositive'
p1738
I01
tp1739
atp1740
Rp1741
(g1535
I01
tp1742
tp1743
a(g61
((lp1744
(S'nonzero'
p1745
I01
tp1746
a(g1549
I01
tp1747
atp1748
Rp1749
(S'positive'
p1750
I01
tp1751
tp1752
a(g61
((lp1753
(S'real'
p1754
I01
tp1755
a(S'positive'
p1756
I00
tp1757
atp1758
Rp1759
(S'nonpositive'
p1760
I01
tp1761
tp1762
a(g61
((lp1763
(S'real'
p1764
I01
tp1765
a(S'negative'
p1766
I00
tp1767
atp1768
Rp1769
(S'nonnegative'
p1770
I01
tp1771
tp1772
a(g61
((lp1773
(S'finite'
p1774
I01
tp1775
a(S'extended_positive'
p1776
I01
tp1777
atp1778
Rp1779
(g1546
I01
tp1780
tp1781
a(g61
((lp1782
(g1548
I01
tp1783
a(S'finite'
p1784
I01
tp1785
atp1786
Rp1787
(S'negative'
p1788
I01
tp1789
tp1790
a(g61
((lp1791
(S'finite'
p1792
I01
tp1793
a(g1555
I01
tp1794
atp1795
Rp1796
(S'nonpositive'
p1797
I01
tp1798
tp1799
a(g61
((lp1800
(S'finite'
p1801
I01
tp1802
a(S'extended_nonnegative'
p1803
I01
tp1804
atp1805
Rp1806
(S'nonnegative'
p1807
I01
tp1808
tp1809
a(g61
((lp1810
(g1554
I01
tp1811
a(g1545
I01
tp1812
atp1813
Rp1814
(S'nonzero'
p1815
I01
tp1816
tp1817
a(g61
((lp1818
(S'extended_nonnegative'
p1819
I01
tp1820
a(S'extended_nonpositive'
p1821
I01
tp1822
atp1823
Rp1824
(S'zero'
p1825
I01
tp1826
tp1827
a(g61
((lp1828
(S'nonpositive'
p1829
I01
tp1830
a(S'nonnegative'
p1831
I01
tp1832
atp1833
Rp1834
(S'zero'
p1835
I01
tp1836
tp1837
a(g61
((lp1838
(S'even'
p1839
I01
tp1840
a(g1550
I00
tp1841
a(S'positive'
p1842
I01
tp1843
atp1844
Rp1845
(S'composite'
p1846
I01
tp1847
tp1848
a(g61
((lp1849
(g1839
I01
tp1850
a(g1846
I00
tp1851
a(g1842
I01
tp1852
atp1853
Rp1854
(g1550
I01
tp1855
tp1856
a(g61
((lp1857
(g1846
I00
tp1858
a(g1550
I00
tp1859
a(g1842
I01
tp1860
atp1861
Rp1862
(g1839
I00
tp1863
tp1864
a(g61
((lp1865
(g1839
I01
tp1866
a(g1846
I00
tp1867
a(g1550
I00
tp1868
atp1869
Rp1870
(g1842
I00
tp1871
tp1872
a(g61
((lp1873
(S'real'
p1874
I01
tp1875
a(g1552
I00
tp1876
atp1877
Rp1878
(g1530
I01
tp1879
tp1880
a(g61
((lp1881
(S'integer'
p1882
I00
tp1883
a(S'extended_real'
p1884
I01
tp1885
atp1886
Rp1887
(S'noninteger'
p1888
I01
tp1889
tp1890
a(g61
((lp1891
(S'zero'
p1892
I00
tp1893
a(S'extended_real'
p1894
I01
tp1895
atp1896
Rp1897
(S'extended_nonzero'
p1898
I01
tp1899
tp1900
asg402
g61
((lp1901
g1829
ag1537
ag1541
ag1534
ag1544
ag1546
ag1888
ag1535
ag1548
aS'complex'
p1902
ag1552
aS'finite'
p1903
ag1533
aS'real'
p1904
ag1815
ag1530
ag1531
ag1532
ag1555
ag1545
ag1592
ag1539
aS'imaginary'
p1905
ag1550
ag1543
ag1536
ag1835
ag1549
ag1553
ag1570
atp1906
Rp1907
sg408
g409
(g61
tp1908
Rp1909
(g1534
I01
tp1910
g61
((lp1911
(S'real'
p1912
I01
tp1913
a(S'finite'
p1914
I01
tp1915
a(g1540
I00
tp1916
a(g1543
I01
tp1917
a(g1536
I01
tp1918
a(g1888
I00
tp1919
a(g1538
I00
tp1920
a(g1583
I01
tp1921
a(g1530
I00
tp1922
a(g1579
I00
tp1923
a(g1544
I01
tp1924
a(g1552
I01
tp1925
a(g1551
I01
tp1926
a(g1570
I00
tp1927
a(g1537
I01
tp1928
atp1929
Rp1930
s(g1537
I00
tp1931
g61
((lp1932
(g1547
I00
tp1933
a(S'positive'
p1934
I00
tp1935
a(S'prime'
p1936
I00
tp1937
a(g1829
I00
tp1938
a(g1532
I00
tp1939
a(g1807
I00
tp1940
a(S'nonzero'
p1941
I00
tp1942
a(g1539
I00
tp1943
a(g1912
I00
tp1944
a(g1588
I00
tp1945
a(g1530
I00
tp1946
a(g1579
I00
tp1947
a(g1552
I00
tp1948
a(g1535
I00
tp1949
atp1950
Rp1951
s(g1528
I00
tp1952
g61
((lp1953
(g1700
I00
tp1954
a(g1702
I00
tp1955
a(g1941
I00
tp1956
a(g1760
I00
tp1957
a(g1532
I00
tp1958
a(g1770
I00
tp1959
a(g1539
I00
tp1960
a(g1936
I00
tp1961
a(g1588
I00
tp1962
a(g1530
I00
tp1963
a(g1579
I00
tp1964
a(S'rational'
p1965
I00
tp1966
a(g1704
I00
tp1967
atp1968
Rp1969
s(g1819
I01
tp1970
g61
((lp1971
(g1540
I00
tp1972
a(g1690
I01
tp1973
a(g1692
I00
tp1974
a(g1535
I00
tp1975
a(g1544
I01
tp1976
atp1977
Rp1978
s(g1535
I01
tp1979
g61
((lp1980
(g1708
I01
tp1981
a(g1736
I01
tp1982
a(g1934
I00
tp1983
a(g1936
I00
tp1984
a(g1738
I01
tp1985
a(g1532
I00
tp1986
a(g1553
I00
tp1987
a(g1543
I01
tp1988
a(g1770
I00
tp1989
a(g1898
I01
tp1990
a(g1551
I01
tp1991
a(g1548
I01
tp1992
a(g1784
I01
tp1993
a(g1547
I00
tp1994
a(g1555
I01
tp1995
a(g1540
I00
tp1996
a(g1544
I01
tp1997
a(g1538
I00
tp1998
a(g1537
I01
tp1999
a(g1803
I00
tp2000
atp2001
Rp2002
s(g1905
I00
tp2003
g61
((lp2004
tp2005
Rp2006
s(g1549
I00
tp2007
g61
((lp2008
(g1835
I00
tp2009
a(g1750
I00
tp2010
a(g1936
I00
tp2011
a(g1532
I00
tp2012
atp2013
Rp2014
s(g1536
I01
tp2015
g61
((lp2016
(g1544
I01
tp2017
a(g1538
I00
tp2018
a(g1551
I01
tp2019
a(g1570
I00
tp2020
a(g1914
I01
tp2021
atp2022
Rp2023
s(g1736
I00
tp2024
g61
((lp2025
(g1750
I00
tp2026
a(g1936
I00
tp2027
a(g1535
I00
tp2028
a(g1532
I00
tp2029
atp2030
Rp2031
s(g1579
I01
tp2032
g61
((lp2033
(g1912
I01
tp2034
a(g1547
I00
tp2035
a(g1534
I00
tp2036
a(g1540
I00
tp2037
a(g1543
I01
tp2038
a(g1536
I01
tp2039
a(g1815
I01
tp2040
a(g1898
I01
tp2041
a(g1888
I00
tp2042
a(g1538
I00
tp2043
a(g1914
I01
tp2044
a(g1575
I01
tp2045
a(g1530
I00
tp2046
a(g1544
I01
tp2047
a(g1552
I01
tp2048
a(g1551
I01
tp2049
a(g1570
I00
tp2050
a(g1537
I01
tp2051
atp2052
Rp2053
s(g1555
I01
tp2054
g61
((lp2055
(g1934
I00
tp2056
a(g1532
I00
tp2057
a(g1680
I00
tp2058
a(g1682
I01
tp2059
a(g1936
I00
tp2060
a(g1540
I00
tp2061
a(g1544
I01
tp2062
atp2063
Rp2064
s(g1570
I01
tp2065
g61
((lp2066
(g1547
I00
tp2067
a(g1936
I00
tp2068
a(g1538
I00
tp2069
a(g1564
I00
tp2070
a(g1532
I00
tp2071
a(g1539
I00
tp2072
a(g1588
I00
tp2073
a(g1579
I00
tp2074
a(g1544
I01
tp2075
a(g1566
I01
tp2076
a(g1552
I00
tp2077
a(g1914
I01
tp2078
atp2079
Rp2080
s(S'complex'
p2081
I01
tp2082
g61
((lp2083
(g1544
I01
tp2084
a(g1538
I00
tp2085
a(g1914
I01
tp2086
atp2087
Rp2088
s(g1552
I01
tp2089
g61
((lp2090
(S'real'
p2091
I01
tp2092
a(g1914
I01
tp2093
a(g1540
I00
tp2094
a(g1543
I01
tp2095
a(S'algebraic'
p2096
I01
tp2097
a(g1538
I00
tp2098
a(g1530
I00
tp2099
a(g1544
I01
tp2100
a(g1551
I01
tp2101
a(g1570
I00
tp2102
a(g1537
I01
tp2103
atp2104
Rp2105
s(g1835
I01
tp2106
g61
((lp2107
(S'even'
p2108
I01
tp2109
a(g1819
I01
tp2110
a(g1540
I00
tp2111
a(g1536
I01
tp2112
a(g1821
I01
tp2113
a(g1552
I01
tp2114
a(g1551
I01
tp2115
a(g1535
I00
tp2116
a(g1708
I01
tp2117
a(g1936
I00
tp2118
a(g1553
I00
tp2119
a(g1898
I00
tp2120
a(g1537
I01
tp2121
a(g1544
I01
tp2122
a(g1667
I00
tp2123
a(g1934
I00
tp2124
a(g1532
I00
tp2125
a(g1829
I01
tp2126
a(g1633
I01
tp2127
a(S'finite'
p2128
I01
tp2129
a(g1575
I01
tp2130
a(g1538
I00
tp2131
a(g1941
I00
tp2132
a(g1831
I01
tp2133
a(g1888
I00
tp2134
a(g1530
I00
tp2135
a(g1579
I00
tp2136
a(g1570
I00
tp2137
atp2138
Rp2139
s(g1904
I01
tp2140
g61
((lp2141
(S'complex'
p2142
I01
tp2143
a(g1540
I00
tp2144
a(g1616
I01
tp2145
a(g1618
I01
tp2146
a(g1544
I01
tp2147
a(g1538
I00
tp2148
a(g1537
I01
tp2149
atp2150
Rp2151
s(g1550
I00
tp2152
g61
((lp2153
tp2154
Rp2155
s(g1531
I00
tp2156
g61
((lp2157
(g1905
I00
tp2158
atp2159
Rp2160
s(g1546
I01
tp2161
g61
((lp2162
(g1708
I01
tp2163
a(g1547
I00
tp2164
a(g1774
I01
tp2165
a(g1760
I00
tp2166
a(g1776
I01
tp2167
a(g1540
I00
tp2168
a(g1543
I01
tp2169
a(g1898
I01
tp2170
a(g1745
I01
tp2171
a(g1549
I01
tp2172
a(g1538
I00
tp2173
a(g1535
I00
tp2174
a(g1819
I01
tp2175
a(g1544
I01
tp2176
a(g1555
I00
tp2177
a(g1551
I01
tp2178
a(g1537
I01
tp2179
a(g1667
I00
tp2180
atp2181
Rp2182
s(g1905
I01
tp2183
g61
((lp2184
(g1547
I00
tp2185
a(g1528
I00
tp2186
a(g1807
I00
tp2187
a(g1902
I01
tp2188
a(g1535
I00
tp2189
a(g1936
I00
tp2190
a(g1553
I00
tp2191
a(g1531
I01
tp2192
a(g1667
I00
tp2193
a(g1544
I01
tp2194
a(g1914
I01
tp2195
a(g1934
I00
tp2196
a(g1532
I00
tp2197
a(g1588
I00
tp2198
a(g1555
I00
tp2199
a(g1538
I00
tp2200
a(g1941
I00
tp2201
a(g1829
I00
tp2202
a(g1543
I00
tp2203
a(g1552
I00
tp2204
a(g1888
I00
tp2205
a(g1539
I00
tp2206
a(g1530
I00
tp2207
a(g1579
I00
tp2208
a(g1803
I00
tp2209
a(g1545
I00
tp2210
atp2211
Rp2212
s(g1553
I00
tp2213
g61
((lp2214
(g1546
I00
tp2215
a(g1936
I00
tp2216
a(g1532
I00
tp2217
atp2218
Rp2219
s(g1545
I00
tp2220
g61
((lp2221
(g1934
I00
tp2222
a(g1815
I00
tp2223
a(g1676
I00
tp2224
a(g1532
I00
tp2225
a(g1936
I00
tp2226
a(g1667
I00
tp2227
a(g1535
I00
tp2228
atp2229
Rp2230
s(g1815
I01
tp2231
g61
((lp2232
(g1528
I01
tp2233
a(g1547
I00
tp2234
a(g1554
I01
tp2235
a(g1540
I00
tp2236
a(g1543
I01
tp2237
a(g1545
I01
tp2238
a(g1538
I00
tp2239
a(g1544
I01
tp2240
a(g1551
I01
tp2241
a(g1537
I01
tp2242
atp2243
Rp2244
s(g1626
I00
tp2245
g61
((lp2246
tp2247
Rp2248
s(g1704
I00
tp2249
g61
((lp2250
tp2251
Rp2252
s(g1902
I00
tp2253
g61
((lp2254
(g1547
I00
tp2255
a(g1934
I00
tp2256
a(g1936
I00
tp2257
a(g1829
I00
tp2258
a(S'imaginary'
p2259
I00
tp2260
a(g1536
I00
tp2261
a(g1532
I00
tp2262
a(g1807
I00
tp2263
a(g1552
I00
tp2264
a(g1941
I00
tp2265
a(g1539
I00
tp2266
a(g1904
I00
tp2267
a(g1588
I00
tp2268
a(g1530
I00
tp2269
a(g1579
I00
tp2270
a(g1570
I00
tp2271
a(g1535
I00
tp2272
atp2273
Rp2274
s(g1544
I01
tp2275
g61
((lp2276
tp2277
Rp2278
s(g1548
I00
tp2279
g61
((lp2280
(g1788
I00
tp2281
atp2282
Rp2283
s(S'prime'
p2284
I01
tp2285
g61
((lp2286
(g1815
I01
tp2287
a(g1547
I00
tp2288
a(g1540
I00
tp2289
a(g1898
I01
tp2290
a(g1535
I00
tp2291
a(g1819
I01
tp2292
a(g1552
I01
tp2293
a(g1551
I01
tp2294
a(g1537
I01
tp2295
a(g1912
I01
tp2296
a(g1934
I01
tp2297
a(g1667
I00
tp2298
a(g1544
I01
tp2299
a(g1543
I01
tp2300
a(g1676
I01
tp2301
a(g1532
I00
tp2302
a(g1536
I01
tp2303
a(S'integer'
p2304
I01
tp2305
a(g1538
I00
tp2306
a(g1914
I01
tp2307
a(g1829
I00
tp2308
a(g1831
I01
tp2309
a(g1888
I00
tp2310
a(g1530
I00
tp2311
a(g1555
I00
tp2312
a(g1570
I00
tp2313
atp2314
Rp2315
s(g2096
I00
tp2316
g61
((lp2317
(g1547
I00
tp2318
a(g1936
I00
tp2319
a(g1532
I00
tp2320
a(g1539
I00
tp2321
a(g1588
I00
tp2322
a(g1579
I00
tp2323
a(S'rational'
p2324
I00
tp2325
atp2326
Rp2327
s(S'positive'
p2328
I00
tp2329
g61
((lp2330
(g1532
I00
tp2331
a(g1936
I00
tp2332
atp2333
Rp2334
s(g1543
I01
tp2335
g61
((lp2336
(g1540
I00
tp2337
a(S'commutative'
p2338
I01
tp2339
atp2340
Rp2341
s(g1676
I01
tp2342
g61
((lp2343
(g1547
I00
tp2344
a(g1829
I00
tp2345
a(g1540
I00
tp2346
a(g1633
I01
tp2347
a(g1671
I01
tp2348
a(g1667
I00
tp2349
a(g1533
I01
tp2350
a(g1544
I01
tp2351
a(g1686
I00
tp2352
a(g1535
I00
tp2353
atp2354
Rp2355
s(g1738
I01
tp2356
g61
((lp2357
(g1754
I01
tp2358
a(g1756
I00
tp2359
a(g1936
I00
tp2360
a(g1543
I01
tp2361
a(g1553
I00
tp2362
a(g1532
I00
tp2363
a(g1538
I00
tp2364
a(g1792
I01
tp2365
a(g1555
I01
tp2366
a(g1540
I00
tp2367
a(g1544
I01
tp2368
a(g1551
I01
tp2369
a(g1537
I01
tp2370
atp2371
Rp2372
s(g1537
I01
tp2373
g61
((lp2374
tp2375
Rp2376
s(g1846
I00
tp2377
g61
((lp2378
tp2379
Rp2380
s(g1898
I01
tp2381
g61
((lp2382
(g1540
I00
tp2383
a(g1894
I01
tp2384
a(g1892
I00
tp2385
a(g1544
I01
tp2386
atp2387
Rp2388
s(g1548
I01
tp2389
g61
((lp2390
(g1547
I00
tp2391
a(g1934
I00
tp2392
a(g1532
I00
tp2393
a(g1540
I00
tp2394
a(g1633
I01
tp2395
a(g1807
I00
tp2396
a(g1661
I01
tp2397
a(g1936
I00
tp2398
a(g1663
I01
tp2399
a(g1553
I00
tp2400
a(g1544
I01
tp2401
a(g1696
I00
tp2402
atp2403
Rp2404
s(g2108
I00
tp2405
g61
((lp2406
(g1547
I00
tp2407
atp2408
Rp2409
s(g1575
I01
tp2410
g61
((lp2411
(g1912
I01
tp2412
a(g1914
I01
tp2413
a(g1540
I00
tp2414
a(g1543
I01
tp2415
a(g1536
I01
tp2416
a(g1888
I00
tp2417
a(g1538
I00
tp2418
a(g1530
I00
tp2419
a(g1544
I01
tp2420
a(S'rational'
p2421
I01
tp2422
a(g1551
I01
tp2423
a(g1570
I00
tp2424
a(g1537
I01
tp2425
atp2426
Rp2427
s(g1544
I00
tp2428
g61
((lp2429
(g1547
I00
tp2430
a(g1528
I00
tp2431
a(g1540
I00
tp2432
a(g1807
I00
tp2433
a(g1535
I00
tp2434
a(g1936
I00
tp2435
a(g1553
I00
tp2436
a(g1564
I00
tp2437
a(g1545
I00
tp2438
a(g1667
I00
tp2439
a(S'complex'
p2440
I00
tp2441
a(g1934
I00
tp2442
a(g1532
I00
tp2443
a(g1588
I00
tp2444
a(g1803
I00
tp2445
a(g1941
I00
tp2446
a(g1829
I00
tp2447
a(S'extended_real'
p2448
I00
tp2449
a(g1552
I00
tp2450
a(g1888
I00
tp2451
a(g1539
I00
tp2452
a(g1530
I00
tp2453
a(g1579
I00
tp2454
a(g1555
I00
tp2455
a(g1570
I00
tp2456
atp2457
Rp2458
s(g1533
I00
tp2459
g61
((lp2460
(g1825
I00
tp2461
a(g1934
I00
tp2462
a(g1936
I00
tp2463
a(g1676
I00
tp2464
a(g1532
I00
tp2465
a(g1807
I00
tp2466
atp2467
Rp2468
s(g1530
I01
tp2469
g61
((lp2470
(g1874
I01
tp2471
a(g1547
I00
tp2472
a(g1532
I00
tp2473
a(g1538
I00
tp2474
a(g1540
I00
tp2475
a(g1543
I01
tp2476
a(g1588
I00
tp2477
a(g1898
I01
tp2478
a(g1815
I01
tp2479
a(g1539
I00
tp2480
a(g1936
I00
tp2481
a(g1579
I00
tp2482
a(g1544
I01
tp2483
a(g1888
I01
tp2484
a(g1551
I01
tp2485
a(g1552
I00
tp2486
a(g1537
I01
tp2487
a(g1914
I01
tp2488
atp2489
Rp2490
s(g1592
I00
tp2491
g61
((lp2492
tp2493
Rp2494
s(g1529
I01
tp2495
g61
((lp2496
tp2497
Rp2498
s(g1903
I01
tp2499
g61
((lp2500
(g1538
I00
tp2501
atp2502
Rp2503
s(g1829
I00
tp2504
g61
((lp2505
(g1835
I00
tp2506
a(g1535
I00
tp2507
atp2508
Rp2509
s(g1570
I00
tp2510
g61
((lp2511
tp2512
Rp2513
s(g1532
I01
tp2514
g61
((lp2515
(g1815
I01
tp2516
a(g1547
I00
tp2517
a(g1540
I00
tp2518
a(g1536
I01
tp2519
a(g1535
I00
tp2520
a(g1819
I01
tp2521
a(g1552
I01
tp2522
a(g1551
I01
tp2523
a(g1537
I01
tp2524
a(g1912
I01
tp2525
a(g2284
I00
tp2526
a(g2328
I01
tp2527
a(g1667
I00
tp2528
a(g1544
I01
tp2529
a(g1676
I01
tp2530
a(g1543
I01
tp2531
a(g1898
I01
tp2532
a(g1539
I01
tp2533
a(g1538
I00
tp2534
a(g1914
I01
tp2535
a(g1829
I00
tp2536
a(g1831
I01
tp2537
a(g1888
I00
tp2538
a(g1530
I00
tp2539
a(g1555
I00
tp2540
a(g1570
I00
tp2541
atp2542
Rp2543
s(g2128
I00
tp2544
g61
((lp2545
(g1547
I00
tp2546
a(g1546
I00
tp2547
a(g1936
I00
tp2548
a(g1797
I00
tp2549
a(g1540
I00
tp2550
a(g1564
I00
tp2551
a(g1532
I00
tp2552
a(g1807
I00
tp2553
a(g1570
I00
tp2554
a(g1622
I00
tp2555
a(g1539
I00
tp2556
a(g1815
I00
tp2557
a(g1588
I00
tp2558
a(g1530
I00
tp2559
a(g1579
I00
tp2560
a(g2081
I00
tp2561
a(g1552
I00
tp2562
a(g1788
I00
tp2563
atp2564
Rp2565
s(g1831
I01
tp2566
g61
((lp2567
(g1764
I01
tp2568
a(g1801
I01
tp2569
a(g1540
I00
tp2570
a(g1543
I01
tp2571
a(g1766
I00
tp2572
a(g1538
I00
tp2573
a(g1667
I00
tp2574
a(g1803
I01
tp2575
a(g1544
I01
tp2576
a(g1551
I01
tp2577
a(g1537
I01
tp2578
atp2579
Rp2580
s(g1888
I00
tp2581
g61
((lp2582
tp2583
Rp2584
s(g1682
I00
tp2585
g61
((lp2586
(g1626
I00
tp2587
a(g1934
I00
tp2588
a(g1622
I00
tp2589
a(g1829
I00
tp2590
a(g1553
I00
tp2591
a(g1898
I00
tp2592
a(g1532
I00
tp2593
a(g1807
I00
tp2594
a(g1936
I00
tp2595
a(g1888
I00
tp2596
a(g1539
I00
tp2597
a(g1941
I00
tp2598
a(g1588
I00
tp2599
a(g1628
I00
tp2600
a(g1530
I00
tp2601
a(g1579
I00
tp2602
a(g1696
I00
tp2603
a(g1552
I00
tp2604
a(g1535
I00
tp2605
a(g1686
I00
tp2606
atp2607
Rp2608
s(g1539
I00
tp2609
g61
((lp2610
(g1547
I00
tp2611
a(g1532
I00
tp2612
a(g1588
I00
tp2613
a(g1936
I00
tp2614
a(g1579
I00
tp2615
atp2616
Rp2617
s(g1888
I01
tp2618
g61
((lp2619
(g1547
I00
tp2620
a(g1884
I01
tp2621
a(g1540
I00
tp2622
a(g1532
I00
tp2623
a(g1898
I01
tp2624
a(g1882
I00
tp2625
a(g1588
I00
tp2626
a(g1579
I00
tp2627
a(g1544
I01
tp2628
a(g1936
I00
tp2629
atp2630
Rp2631
s(g1541
I00
tp2632
g61
((lp2633
tp2634
Rp2635
s(g1538
I01
tp2636
g61
((lp2637
(g1903
I00
tp2638
a(g1547
I00
tp2639
a(g1934
I00
tp2640
a(g1936
I00
tp2641
a(g1829
I00
tp2642
a(g1540
I00
tp2643
a(g1564
I00
tp2644
a(g1532
I00
tp2645
a(g1807
I00
tp2646
a(g1552
I00
tp2647
a(g1941
I00
tp2648
a(g1539
I00
tp2649
a(g1528
I00
tp2650
a(g1588
I00
tp2651
a(g1530
I00
tp2652
a(g1579
I00
tp2653
a(g1902
I00
tp2654
a(g1570
I00
tp2655
a(g1535
I00
tp2656
atp2657
Rp2658
s(g1555
I00
tp2659
g61
((lp2660
(g1825
I00
tp2661
a(g1797
I00
tp2662
a(g1667
I00
tp2663
a(g1535
I00
tp2664
atp2665
Rp2666
s(g1552
I00
tp2667
g61
((lp2668
(g1547
I00
tp2669
a(g1588
I00
tp2670
a(g1532
I00
tp2671
a(S'integer'
p2672
I00
tp2673
a(g1936
I00
tp2674
a(g1579
I00
tp2675
atp2676
Rp2677
ssg1186
g409
(g61
tp2678
Rp2679
g1829
g61
((lp2680
g1528
ag2284
ag1682
ag1544
ag1835
ag1532
ag1546
ag1555
ag1535
ag1537
ag1902
ag1538
ag1676
ag2128
ag1905
atp2681
Rp2682
sg1547
g61
((lp2683
g1829
ag1537
ag1579
ag1530
ag2108
ag1544
ag1546
ag1888
ag1535
ag1548
ag1902
ag1552
ag2128
ag1555
ag1528
ag1815
ag1570
ag1532
ag1533
ag1898
ag1538
ag1539
ag1905
ag2284
ag1682
ag2096
ag1549
ag1676
atp2684
Rp2685
sg1579
g61
((lp2686
g1528
ag1534
ag1682
ag1530
ag1888
ag1835
ag2096
ag1537
ag1902
ag1552
ag1538
ag1539
ag1905
ag1570
ag2128
ag1544
atp2687
Rp2688
sg1941
g61
((lp2689
g1528
ag2284
ag1682
ag1530
ag1835
ag1532
ag1546
ag1535
ag1545
ag1537
ag1902
ag1538
ag1905
ag2128
ag1579
ag1544
atp2690
Rp2691
sg1544
g61
((lp2692
g1738
ag1835
ag1579
ag1815
ag1546
ag1888
ag1535
ag1548
ag2081
ag1552
ag1555
ag1904
ag1534
ag1530
ag1532
ag1819
ag1536
ag1575
ag1905
ag2284
ag1543
ag1898
ag1831
ag1676
ag1570
atp2693
Rp2694
sg1934
g61
((lp2695
g1528
ag2284
ag1682
ag1544
ag1835
ag1738
ag1532
ag1736
ag1555
ag1535
ag1548
ag1549
ag1545
ag1537
ag1902
ag1538
ag1553
ag1905
ag2128
ag1533
atp2696
Rp2697
sg1888
g61
((lp2698
g1534
ag2284
ag1682
ag1544
ag1532
ag1835
ag1575
ag1905
ag1579
ag1530
atp2699
Rp2700
sg1535
g61
((lp2701
g1528
ag2284
ag1682
ag1544
ag1736
ag1829
ag1532
ag1546
ag1819
ag1835
ag1548
ag1831
ag1545
ag1537
ag1902
ag1538
ag1676
ag1905
ag2128
ag1555
atp2702
Rp2703
sg1692
g61
((lp2704
g2284
ag1682
ag1544
ag1532
ag1546
ag1819
ag1535
ag1831
ag1905
ag1545
ag1835
ag1676
ag1555
atp2705
Rp2706
sg1551
g61
((lp2707
g1904
ag2284
ag1530
ag1738
ag1532
ag1546
ag1534
ag1535
ag1831
ag1544
ag1536
ag1835
ag1815
ag1552
ag1538
ag1575
ag1905
ag2128
ag1579
ag1570
atp2708
Rp2709
sg1552
g61
((lp2710
g1528
ag2284
ag1682
ag1530
ag1532
ag1534
ag1835
ag2096
ag1537
ag1902
ag1570
ag1538
ag1575
ag1905
ag2128
ag1579
ag1544
atp2711
Rp2712
sg1914
g61
((lp2713
g1904
ag2284
ag1530
ag1738
ag1532
ag1546
ag1534
ag1535
ag1831
ag1536
ag1835
ag2081
ag1552
ag1538
ag1575
ag1905
ag1815
ag1579
ag1570
atp2714
Rp2715
sg1555
g61
((lp2716
g2284
ag1682
ag1544
ag1738
ag1532
ag1546
ag1535
ag1548
ag1835
ag1905
ag1676
atp2717
Rp2718
sg1912
g61
((lp2719
g1815
ag1534
ag1682
ag1530
ag1835
ag1738
ag1532
ag1546
ag1535
ag1831
ag2284
ag1537
ag1902
ag1552
ag1538
ag1575
ag1905
ag2128
ag1579
ag1544
atp2720
Rp2721
sg1529
g61
((lp2722
tp2723
Rp2724
sg1530
g61
((lp2725
g1534
ag1528
ag1682
ag1544
ag1532
ag2284
ag1537
ag1835
ag1902
ag1552
ag1538
ag1575
ag1905
ag2128
ag1579
atp2726
Rp2727
sg1531
g61
((lp2728
g1905
atp2729
Rp2730
sg1532
g61
((lp2731
g1738
ag1835
ag1530
ag1736
ag1544
ag2328
ag1888
ag1535
ag1548
ag1902
ag1552
ag2128
ag1533
ag1528
ag1570
ag1555
ag1545
ag1538
ag1539
ag1905
ag2284
ag1682
ag2096
ag1537
ag1549
ag1553
atp2732
Rp2733
sg1803
g61
((lp2734
g2284
ag1682
ag1544
ag1532
ag1546
ag1535
ag1548
ag1831
ag1835
ag1905
ag1676
atp2735
Rp2736
sg1588
g61
((lp2737
g1528
ag1682
ag1530
ag1888
ag1835
ag2096
ag1537
ag1902
ag1552
ag1538
ag1539
ag1905
ag1570
ag1579
ag2128
ag1544
atp2738
Rp2739
sg1536
g61
((lp2740
g1534
ag2284
ag1570
ag1532
ag1835
ag1902
ag1552
ag1538
ag1575
ag2128
ag1579
ag1544
atp2741
Rp2742
sg1538
g61
((lp2743
g1904
ag2284
ag1530
ag1815
ag1738
ag1532
ag1546
ag1534
ag1535
ag1831
ag1536
ag1835
ag2081
ag1552
ag1575
ag1905
ag1903
ag1579
ag1570
atp2744
Rp2745
sg1583
g61
((lp2746
g1528
ag2284
ag1682
ag1530
ag1835
ag1532
ag1534
ag1888
ag2096
ag1537
ag1902
ag1552
ag1538
ag1905
ag1570
ag1579
ag2128
ag1544
atp2747
Rp2748
sg1540
g61
((lp2749
g1738
ag1835
ag1579
ag1815
ag1544
ag1546
ag1888
ag1535
ag1548
ag1902
ag1552
ag2128
ag1555
ag1904
ag1534
ag1530
ag1531
ag1532
ag1819
ag1898
ag1538
ag1575
ag2284
ag1543
ag1831
ag1676
atp2750
Rp2751
sg1936
g61
((lp2752
g1738
ag1835
ag1530
ag1736
ag1544
ag2328
ag1888
ag1535
ag1548
ag1902
ag1552
ag2128
ag1533
ag1528
ag1570
ag1532
ag1555
ag1545
ag1538
ag1539
ag1905
ag1682
ag2096
ag1537
ag1549
ag1553
atp2753
Rp2754
sg1543
g61
((lp2755
g1738
ag1835
ag1579
ag1815
ag1544
ag1546
ag1888
ag1535
ag1548
ag1552
ag1555
ag1904
ag1534
ag1530
ag1532
ag1819
ag1898
ag1575
ag1905
ag2284
ag1831
ag1676
atp2756
Rp2757
sg1898
g61
((lp2758
g1815
ag2284
ag1682
ag1544
ag1532
ag1546
ag1888
ag1535
ag1548
ag1835
ag1905
ag1579
ag1676
ag1530
atp2759
Rp2760
sg1537
g61
((lp2761
g1534
ag1904
ag1530
ag1738
ag1532
ag1546
ag1535
ag1831
ag2284
ag1835
ag1552
ag1575
ag1815
ag1579
atp2762
Rp2763
sg1807
g61
((lp2764
g1528
ag2284
ag1682
ag1544
ag1532
ag1546
ag1533
ag1535
ag1548
ag1835
ag1902
ag1538
ag1537
ag2128
ag1905
atp2765
Rp2766
sg1553
g61
((lp2767
g2284
ag1682
ag1544
ag1738
ag1532
ag1546
ag1555
ag1535
ag1548
ag1545
ag1835
ag1905
ag1533
atp2768
Rp2769
sg1570
g61
((lp2770
g1534
ag2284
ag1544
ag1532
ag1536
ag1835
ag1902
ag1552
ag1538
ag1575
ag2128
ag1579
atp2771
Rp2772
ssg1282
g409
(g61
tp2773
Rp2774
(g1534
I01
tp2775
(lp2776
I8
aI9
aI10
aI13
aI14
aI16
aI17
aI18
aI21
aI22
aI23
aI24
aI25
aI26
aI27
aI30
aI31
aI33
aI36
as(g1537
I00
tp2777
(lp2778
I3
aI4
aI7
aI8
aI10
aI35
aI36
as(g1528
I00
tp2779
(lp2780
I3
aI4
aI7
aI8
aI10
aI35
aI36
as(g1819
I01
tp2781
(lp2782
I4
aI5
aI6
aI9
aI10
aI12
aI13
aI15
aI17
aI18
aI22
aI26
aI28
aI35
aI36
as(g1535
I01
tp2783
(lp2784
I0
aI34
aI35
as(g1905
I00
tp2785
g61
((lp2786
tp2787
Rp2788
s(g1549
I00
tp2789
(lp2790
I7
aI8
aI10
aI15
aI16
aI21
aI36
as(g1536
I01
tp2791
(lp2792
I3
aI5
aI6
aI23
aI24
aI25
aI26
aI27
as(g1736
I00
tp2793
(lp2794
I15
aI17
aI21
aI22
as(g1579
I01
tp2795
(lp2796
I8
aI10
aI11
aI12
aI13
aI14
aI16
aI18
aI19
aI20
aI21
aI22
aI23
aI24
aI25
aI26
as(g1555
I01
tp2797
(lp2798
I4
aI5
aI6
aI8
aI9
aI11
aI14
aI15
aI16
aI17
aI21
aI25
aI28
aI35
aI36
as(g1570
I01
tp2799
(lp2800
I3
aI5
aI6
aI7
aI8
aI10
aI15
aI16
aI18
aI23
aI24
aI25
aI26
aI27
aI34
aI35
aI36
as(g2081
I01
tp2801
(lp2802
I0
aI3
aI5
aI6
aI23
aI24
aI25
aI26
aI27
as(g1552
I01
tp2803
(lp2804
I8
aI9
aI10
aI13
aI14
aI16
aI17
aI18
aI21
aI22
aI23
aI24
aI25
aI26
aI27
aI35
aI36
as(g1835
I01
tp2805
(lp2806
s(g1904
I01
tp2807
(lp2808
I0
aI8
aI9
aI10
aI13
aI14
aI16
aI17
aI18
aI21
aI22
aI23
aI24
aI25
aI26
aI27
aI34
aI35
aI36
as(g1550
I00
tp2809
(lp2810
I30
aI32
aI33
as(g1531
I00
tp2811
(lp2812
s(g1546
I01
tp2813
(lp2814
I0
aI30
aI31
aI32
aI34
aI35
as(g1905
I01
tp2815
(lp2816
I0
as(g1553
I00
tp2817
(lp2818
I7
aI8
aI9
aI13
aI15
aI16
aI17
aI21
as(g1545
I00
tp2819
(lp2820
I7
aI9
aI13
aI14
aI15
aI17
aI21
aI22
as(g1815
I01
tp2821
(lp2822
I0
aI8
aI10
aI11
aI12
aI13
aI14
aI16
aI18
aI19
aI20
aI21
aI22
aI23
aI24
aI25
aI26
aI34
aI35
as(g1626
I00
tp2823
(lp2824
I7
aI8
aI10
aI15
aI16
aI18
aI36
as(g1704
I00
tp2825
(lp2826
I15
aI17
aI18
aI22
as(g1902
I00
tp2827
(lp2828
I3
aI4
aI7
aI8
aI10
aI35
aI36
as(g1544
I01
tp2829
g61
((lp2830
tp2831
Rp2832
s(g1548
I00
tp2833
(lp2834
I7
aI9
aI10
aI14
aI15
aI17
aI18
aI22
as(g2284
I01
tp2835
(lp2836
I1
aI2
as(g2096
I00
tp2837
(lp2838
I0
aI7
aI8
aI10
aI15
aI16
aI18
aI34
aI35
aI36
as(g2328
I00
tp2839
(lp2840
I15
aI16
aI17
aI21
as(g1543
I01
tp2841
(lp2842
I4
aI5
aI6
aI8
aI9
aI10
aI13
aI14
aI35
aI36
as(g1676
I01
tp2843
(lp2844
I4
aI5
aI6
aI15
aI18
aI22
aI23
aI26
aI27
aI35
as(g1738
I01
tp2845
(lp2846
I0
aI8
aI9
aI11
aI14
aI16
aI17
aI19
aI22
aI24
aI26
aI27
aI28
aI29
aI34
aI35
aI36
as(g1537
I01
tp2847
g61
((lp2848
tp2849
Rp2850
s(g1846
I00
tp2851
(lp2852
I31
aI32
aI33
as(g1898
I01
tp2853
(lp2854
I4
aI5
aI6
aI8
aI10
aI11
aI12
aI13
aI14
aI15
aI16
aI18
aI27
aI35
as(g1548
I01
tp2855
(lp2856
I4
aI5
aI6
aI15
aI16
aI21
aI24
aI25
aI27
aI35
as(g2108
I00
tp2857
(lp2858
I1
aI7
aI8
aI10
aI15
aI16
aI18
aI36
as(g1575
I01
tp2859
(lp2860
I1
aI2
aI8
aI9
aI10
aI13
aI14
aI16
aI17
aI18
aI21
aI22
aI23
aI24
aI25
aI26
aI27
aI36
as(g1544
I00
tp2861
(lp2862
s(g1533
I00
tp2863
(lp2864
I7
aI8
aI13
aI15
aI16
aI21
aI36
as(g1530
I01
tp2865
(lp2866
I0
aI8
aI10
aI11
aI12
aI13
aI14
aI16
aI18
aI19
aI20
aI21
aI22
aI23
aI24
aI25
aI26
as(g1592
I00
tp2867
(lp2868
I3
aI5
as(g1529
I01
tp2869
g61
((lp2870
tp2871
Rp2872
s(g1903
I01
tp2873
(lp2874
I3
aI5
aI6
aI23
aI24
aI25
aI26
aI27
as(g1829
I00
tp2875
(lp2876
I7
aI8
aI10
aI15
aI18
aI22
aI36
as(g1570
I00
tp2877
g61
((lp2878
tp2879
Rp2880
s(g1532
I01
tp2881
(lp2882
I1
aI2
as(g2128
I00
tp2883
(lp2884
I3
aI4
aI7
aI8
aI10
aI35
aI36
as(g1831
I01
tp2885
(lp2886
I0
aI9
aI10
aI12
aI13
aI17
aI18
aI20
aI21
aI23
aI25
aI27
aI28
aI29
aI34
aI35
aI36
as(g1888
I00
tp2887
g61
((lp2888
tp2889
Rp2890
s(g1682
I00
tp2891
(lp2892
s(g1539
I00
tp2893
(lp2894
I7
aI8
aI10
aI15
aI16
aI18
aI35
aI36
as(g1888
I01
tp2895
(lp2896
I4
aI5
aI6
aI8
aI10
aI11
aI12
aI13
aI14
aI15
aI16
aI18
aI27
as(g1541
I00
tp2897
(lp2898
I2
as(g1538
I01
tp2899
(lp2900
I7
aI8
aI10
aI35
aI36
as(g1555
I00
tp2901
(lp2902
I7
aI10
aI14
aI15
aI18
aI22
aI36
as(g1552
I00
tp2903
(lp2904
I7
aI8
aI10
aI15
aI16
aI18
aI34
aI35
aI36
assbsg1415
(dp2905
g1542
I01
sS'finite'
p2906
I01
ssbsbg1476
tp2907
Rp2908
(dp2909
btp2910
Rp2911
(dp2912
bg2
(g1482
g7
(g18
(S'\\gamma'
p2913
tp2914
Rp2915
(dp2916
g23
g24
(g25
g26
(dp2917
g1528
I01
sg1529
Nsg1530
Nsg1531
Nsg1532
Nsg1533
Nsg1534
Nsg1535
Nsg1536
Nsg1537
I01
sg1538
I00
sg1539
Nsg1540
I00
sg1541
Nsg1542
I01
sg1543
I01
sg1544
I01
sg1545
I01
sg1546
Nsg1547
I00
sg1548
Nsg1549
Nsg1550
Nsg1551
I01
sg1552
Nsg1553
Nsg1554
I01
sg1555
Nstp2918
Rp2919
(dp2920
g53
g1560
sg1415
(dp2921
g1542
I01
sg2906
I01
ssbsbg1476
tp2922
Rp2923
(dp2924
btp2925
Rp2926
(dp2927
bg2
(g16
g7
(g18
(S'\\alpha'
p2928
tp2929
Rp2930
(dp2931
g23
g24
(g25
g26
(dp2932
g458
I01
sg1024
Nsg30
Nsg31
Nsg405
Nsg49
Nsg29
Nsg33
Nsg34
I01
sg416
I00
sg36
Nsg418
I00
sg84
Nsg1469
I01
sg39
I01
sg404
I01
sg438
I00
sg313
I01
sg42
Nsg43
Nsg44
Nsg246
Nsg341
Nsg430
I01
sg46
Nsg47
Nsg311
I01
sg32
Nstp2933
Rp2934
(dp2935
g53
g57
sg1415
(dp2936
g1469
I01
sg1474
I01
ssbsbg1482
tp2937
Rp2938
(dp2939
btp2940
Rp2941
(dp2942
bg2
(g16
g7
(g1466
g1482
tp2943
Rp2944
(dp2945
btp2946
Rp2947
(dp2948
bg2
(g11
(I12
tp2949
Rp2950
(dp2951
bg7
(g2930
g13
tp2952
Rp2953
(dp2954
bg2944
tp2955
Rp2956
(dp2957
bg2
(g2950
g2938
g1485
tp2958
Rp2959
(dp2960
bg2
(g13
g16
g2953
g1485
tp2961
Rp2962
(dp2963
btp2964
Rp2965
(dp2966
bg3
(I-1
I2
tp2967
Rp2968
(dp2969
btp2970
Rp2971
(dp2972
bg1
(g2953
g1485
tp2973
Rp2974
(dp2975
btp2976
Rp2977
(dp2978
btp2979
Rp2980
(dp2981
bag1
(g2
(g3
(I-1
I3
tp2982
Rp2983
(dp2984
bg1448
g1422
g1
(g16
g2
(g11
(I3
tp2985
Rp2986
(dp2987
bg1485
tp2988
Rp2989
(dp2990
btp2991
Rp2992
(dp2993
btp2994
Rp2995
(dp2996
bg2
(g3
(I-1
I6
tp2997
Rp2998
(dp2999
bg18
(S'a4'
p3000
tp3001
Rp3002
(dp3003
g23
g24
(g25
g26
(dp3004
g28
Nsg30
Nsg31
Nsg49
Nsg33
Nsg34
Nsg35
Nsg36
Nsg37
Nsg84
Nsg29
Nsg39
Nsg40
I01
sg41
Nsg42
Nsg43
Nsg44
Nsg45
Nsg46
Nsg47
Nsg48
Nsg32
Nstp3005
Rp3006
(dp3007
g53
g57
sg1415
(dp3008
sbsbg18
(S'a6'
p3009
tp3010
Rp3011
(dp3012
g23
g24
(g25
g26
(dp3013
g28
Nsg30
Nsg31
Nsg49
Nsg33
Nsg34
Nsg35
Nsg36
Nsg37
Nsg84
Nsg29
Nsg39
Nsg40
I01
sg41
Nsg42
Nsg43
Nsg44
Nsg45
Nsg46
Nsg47
Nsg48
Nsg32
Nstp3014
Rp3015
(dp3016
g53
g57
sg1415
(dp3017
sbsbg1479
g1485
g7
(g2974
g1494
tp3018
Rp3019
(dp3020
btp3021
Rp3022
(dp3023
bg2
(g3
(I5
I9
tp3024
Rp3025
(dp3026
bg18
(S'a3'
p3027
tp3028
Rp3029
(dp3030
g23
g24
(g25
g26
(dp3031
g28
Nsg30
Nsg31
Nsg49
Nsg33
Nsg34
Nsg35
Nsg36
Nsg37
Nsg84
Nsg29
Nsg39
Nsg40
I01
sg41
Nsg42
Nsg43
Nsg44
Nsg45
Nsg46
Nsg47
Nsg48
Nsg32
Nstp3032
Rp3033
(dp3034
g53
g57
sg1415
(dp3035
sbsbg1507
g1479
g1485
g3019
tp3036
Rp3037
(dp3038
bg2
(g1503
g9
g1432
g1457
g1466
g1479
g1497
tp3039
Rp3040
(dp3041
bg2
(g1503
g9
g1457
g18
(S'a8'
p3042
tp3043
Rp3044
(dp3045
g23
g24
(g25
g26
(dp3046
g28
Nsg30
Nsg31
Nsg49
Nsg33
Nsg34
Nsg35
Nsg36
Nsg37
Nsg84
Nsg29
Nsg39
Nsg40
I01
sg41
Nsg42
Nsg43
Nsg44
Nsg45
Nsg46
Nsg47
Nsg48
Nsg32
Nstp3047
Rp3048
(dp3049
g53
g57
sg1415
(dp3050
sbsbg1466
g1479
g1497
tp3051
Rp3052
(dp3053
bg2
(g2998
g9
g3002
g1516
g2930
g1466
g1479
g7
(g1
(g2
(g1482
g2938
tp3054
Rp3055
(dp3056
bg2
(g1482
g2944
tp3057
Rp3058
(dp3059
bg2
(g16
g2953
tp3060
Rp3061
(dp3062
bg2
(g16
g1485
tp3063
Rp3064
(dp3065
bg2
(g11
(I8
tp3066
Rp3067
(dp3068
bg2953
g1485
tp3069
Rp3070
(dp3071
btp3072
Rp3073
(dp3074
bg1494
tp3075
Rp3076
(dp3077
btp3078
Rp3079
(dp3080
btp3081
Rp3082
(dp3083
bag1
(g2
(g1428
g1457
g1422
g1
(g16
g1488
tp3084
Rp3085
(dp3086
btp3087
Rp3088
(dp3089
bg2
(g2998
g3029
g1516
g1479
g1485
g7
(g1
(g2
(g11
(I16
tp3090
Rp3091
(dp3092
bg2923
tp3093
Rp3094
(dp3095
bg2
(g7
(g9
g1482
tp3096
Rp3097
(dp3098
bg2953
tp3099
Rp3100
(dp3101
bg2
(g3097
g1485
tp3102
Rp3103
(dp3104
bg2
(g1482
g16
g2938
tp3105
Rp3106
(dp3107
bg2
(g3067
g16
g2944
tp3108
Rp3109
(dp3110
bg2
(g3091
g2938
g1485
tp3111
Rp3112
(dp3113
bg2
(g11
(I32
tp3114
Rp3115
(dp3116
bg2953
g2944
tp3117
Rp3118
(dp3119
bg2
(g2950
g16
g2953
g1485
tp3120
Rp3121
(dp3122
btp3123
Rp3124
(dp3125
bg2968
tp3126
Rp3127
(dp3128
bg1
(g16
g2
(g2950
g2953
tp3129
Rp3130
(dp3131
bg2
(g2950
g1485
tp3132
Rp3133
(dp3134
btp3135
Rp3136
(dp3137
btp3138
Rp3139
(dp3140
bg2
(g3
(I1
I8
tp3141
Rp3142
(dp3143
bg3029
g1516
g1479
g16
g3127
g1
(g2
(g1482
g2953
tp3144
Rp3145
(dp3146
bg2
(g3
(I8
I3
tp3147
Rp3148
(dp3149
bg1485
tp3150
Rp3151
(dp3152
btp3153
Rp3154
(dp3155
btp3156
Rp3157
(dp3158
bg2
(g3
(I1
I3
tp3159
Rp3160
(dp3161
bg9
g3029
g3011
g2930
g1466
g1479
g1497
g3019
tp3162
Rp3163
(dp3164
bg2
(g3160
g9
g3002
g1507
g2930
g1466
g1479
g1497
g3019
tp3165
Rp3166
(dp3167
btp3168
Rp3169
(dp3170
bag1
(g2
(g2983
g3029
g1422
g1
(g16
g2
(g2986
g2953
tp3171
Rp3172
(dp3173
btp3174
Rp3175
(dp3176
btp3177
Rp3178
(dp3179
bg2
(g2998
g1432
g3002
g2930
g1479
tp3180
Rp3181
(dp3182
bg2
(g2998
g3002
g3044
g2930
g1479
tp3183
Rp3184
(dp3185
bg2
(g3
(I-5
I9
tp3186
Rp3187
(dp3188
bg1448
g1507
g1479
g2953
g3019
tp3189
Rp3190
(dp3191
bg2
(g3
(I-1
I8
tp3192
Rp3193
(dp3194
bg1457
g1516
g1479
g16
g3127
g3154
tp3195
Rp3196
(dp3197
bg2
(g3
(I1
I3
tp3198
Rp3199
(dp3200
bg1457
g1516
g1479
g16
g1485
g3127
tp3201
Rp3202
(dp3203
bg2
(g3
(I-1
I2
tp3204
Rp3205
(dp3206
bg9
g1457
g3011
g2930
g1466
g1479
g1497
g3019
tp3207
Rp3208
(dp3209
btp3210
Rp3211
(dp3212
bag1
(g2
(g1428
g3002
g1422
g1
(g16
g3145
tp3213
Rp3214
(dp3215
btp3216
Rp3217
(dp3218
bg2
(g3
(I1
I6
tp3219
Rp3220
(dp3221
bg1432
g3029
g2930
g1479
tp3222
Rp3223
(dp3224
bg2
(g3220
g3029
g3044
g2930
g1479
tp3225
Rp3226
(dp3227
bg2
(g3220
g1448
g3011
g1479
g2953
g3019
tp3228
Rp3229
(dp3230
bg2
(g2998
g9
g1448
g1516
g2930
g1466
g1479
g3076
tp3231
Rp3232
(dp3233
bg2
(g3
(I1
I3
tp3234
Rp3235
(dp3236
bg9
g1457
g1507
g2930
g1466
g1479
g1497
g3019
tp3237
Rp3238
(dp3239
btp3240
Rp3241
(dp3242
bag1
(g2
(g3187
g1448
g3029
g1479
g1485
g3019
tp3243
Rp3244
(dp3245
bg2
(g2983
g1507
g1422
g7
(g1
(g2938
g2944
g2
(g13
g2953
g1485
tp3246
Rp3247
(dp3248
btp3249
Rp3250
(dp3251
bg2968
tp3252
Rp3253
(dp3254
bg2974
g1
(g16
g3172
g2989
tp3255
Rp3256
(dp3257
btp3258
Rp3259
(dp3260
bg2
(g3025
g1448
g3029
g1479
g2953
g3019
tp3261
Rp3262
(dp3263
bg2
(g3220
g1432
g3011
g2930
g1479
g3253
g2974
tp3264
Rp3265
(dp3266
bg2
(g3220
g3011
g3044
g2930
g1479
g3253
g2974
tp3267
Rp3268
(dp3269
bg2
(g1444
g9
g1432
g1516
g1466
g1479
g2971
g2974
tp3270
Rp3271
(dp3272
bg2
(g1444
g9
g1516
g3044
g1466
g1479
g2971
g2974
tp3273
Rp3274
(dp3275
bg2
(g3
(I-2
I3
tp3276
Rp3277
(dp3278
bg9
g1457
g3002
g2930
g1466
g1479
g1497
g3019
tp3279
Rp3280
(dp3281
btp3282
Rp3283
(dp3284
bag1
(g2
(g1428
g3011
g1422
g1
(g16
g3145
g1488
tp3285
Rp3286
(dp3287
btp3288
Rp3289
(dp3290
bg2
(g2998
g1448
g3002
g1479
g2953
g3019
tp3291
Rp3292
(dp3293
bg2
(g3220
g1448
g3002
g1479
g1485
g3019
tp3294
Rp3295
(dp3296
bg2
(g2998
g1432
g1507
g2930
g1479
g3253
g2974
tp3297
Rp3298
(dp3299
bg2
(g2998
g1507
g3044
g2930
g1479
g3253
g2974
tp3300
Rp3301
(dp3302
bg2
(g3
(I1
I6
tp3303
Rp3304
(dp3305
bg9
g1457
g3029
g2930
g1466
g1479
g1497
g3019
tp3306
Rp3307
(dp3308
btp3309
Rp3310
(dp3311
bag1
(g2
(g1428
g1516
g1422
g3286
tp3312
Rp3313
(dp3314
bg2
(g2983
g1457
g3029
g1479
g16
g1485
g3127
tp3315
Rp3316
(dp3317
bg2
(g3220
g1457
g3029
g1479
g1485
g3127
g3136
tp3318
Rp3319
(dp3320
bg2
(g3160
g9
g1448
g3002
g2930
g1466
g1479
g3076
tp3321
Rp3322
(dp3323
btp3324
Rp3325
(dp3326
bag1
(g2
(g3
(I-9
I4
tp3327
Rp3328
(dp3329
bg3044
g16
g1422
tp3330
Rp3331
(dp3332
bg2
(g1444
g9
g1448
g1457
g1466
g1479
g1497
tp3333
Rp3334
(dp3335
bg2
(g1503
g9
g1507
g1516
g1466
g1479
g2971
g2974
tp3336
Rp3337
(dp3338
btp3339
Rp3340
(dp3341
ba.