csympy.core.mul
Mul
p0
(csympy.core.numbers
Rational
p1
(I-4
I3
tp2
Rp3
(dp4
bcsympy.core.power
Pow
p5
(csympy.core.numbers
Integer
p6
(I6
tp7
Rp8
(dp9
bcsympy.core.numbers
Half
p10
(I1
I2
tp11
Rp12
(dp13
btp14
Rp15
(dp16
bg5
(csympy.core.numbers
Pi
p17
(tRp18
(dp19
bg6
(I3
tp20
Rp21
(dp22
btp23
Rp24
(dp25
bg5
(csympy.core.add
Add
p26
(g0
(g6
(I4
tp27
Rp28
(dp29
bg5
(csympy.core.symbol
Symbol
p30
(S'\\alpha'
p31
tp32
Rp33
(dp34
S'_assumptions'
p35
ccopy_reg
_reconstructor
p36
(csympy.core.assumptions
StdFactKB
p37
c__builtin__
dict
p38
(dp39
S'real'
p40
I01
sS'polar'
p41
NsS'irrational'
p42
NsS'antihermitian'
p43
NsS'composite'
p44
NsS'extended_nonnegative'
p45
NsS'even'
p46
NsS'algebraic'
p47
NsS'hermitian'
p48
I01
sS'infinite'
p49
I00
sS'integer'
p50
NsS'imaginary'
p51
I00
sS'odd'
p52
NsS'nonzero'
p53
I01
sS'extended_real'
p54
I01
sS'commutative'
p55
I01
sS'zero'
p56
I00
sS'extended_nonzero'
p57
I01
sS'positive'
p58
NsS'negative'
p59
NsS'extended_negative'
p60
NsS'nonnegative'
p61
NsS'prime'
p62
NsS'complex'
p63
I01
sS'rational'
p64
NsS'extended_positive'
p65
NsS'finite'
p66
I01
sS'extended_nonpositive'
p67
Nstp68
Rp69
(dp70
S'rules'
p71
g36
(csympy.core.facts
FactRules
p72
c__builtin__
object
p73
Ntp74
Rp75
(dp76
S'beta_rules'
p77
(lp78
(c__builtin__
set
p79
((lp80
(S'algebraic'
p81
I00
tp82
a(S'complex'
p83
I01
tp84
atp85
Rp86
(S'transcendental'
p87
I01
tp88
tp89
a(g79
((lp90
(g46
I00
tp91
a(S'integer'
p92
I01
tp93
atp94
Rp95
(S'odd'
p96
I01
tp97
tp98
a(g79
((lp99
(S'integer'
p100
I01
tp101
a(g52
I00
tp102
atp103
Rp104
(S'even'
p105
I01
tp106
tp107
a(g79
((lp108
(S'infinite'
p109
I00
tp110
a(S'real'
p111
I00
tp112
atp113
Rp114
(S'extended_real'
p115
I00
tp116
tp117
a(g79
((lp118
(g115
I01
tp119
a(g111
I00
tp120
atp121
Rp122
(g109
I01
tp123
tp124
a(g79
((lp125
(g115
I01
tp126
a(g109
I00
tp127
atp128
Rp129
(g111
I01
tp130
tp131
a(g79
((lp132
(S'extended_real'
p133
I01
tp134
a(S'finite'
p135
I01
tp136
atp137
Rp138
(S'real'
p139
I01
tp140
tp141
a(g79
((lp142
(S'zero'
p143
I00
tp144
a(S'extended_negative'
p145
I00
tp146
a(g65
I00
tp147
atp148
Rp149
(S'extended_real'
p150
I00
tp151
tp152
a(g79
((lp153
(g143
I00
tp154
a(g150
I01
tp155
a(g65
I00
tp156
atp157
Rp158
(g145
I01
tp159
tp160
a(g79
((lp161
(g65
I00
tp162
a(g150
I01
tp163
a(g145
I00
tp164
atp165
Rp166
(g143
I01
tp167
tp168
a(g79
((lp169
(g143
I00
tp170
a(g150
I01
tp171
a(g145
I00
tp172
atp173
Rp174
(g65
I01
tp175
tp176
a(g79
((lp177
(S'extended_nonzero'
p178
I01
tp179
a(S'extended_nonpositive'
p180
I01
tp181
atp182
Rp183
(S'extended_negative'
p184
I01
tp185
tp186
a(g79
((lp187
(S'extended_nonzero'
p188
I01
tp189
a(g45
I01
tp190
atp191
Rp192
(S'extended_positive'
p193
I01
tp194
tp195
a(g79
((lp196
(S'extended_positive'
p197
I00
tp198
a(S'extended_real'
p199
I01
tp200
atp201
Rp202
(S'extended_nonpositive'
p203
I01
tp204
tp205
a(g79
((lp206
(S'extended_real'
p207
I01
tp208
a(S'extended_negative'
p209
I00
tp210
atp211
Rp212
(S'extended_nonnegative'
p213
I01
tp214
tp215
a(g79
((lp216
(S'zero'
p217
I00
tp218
a(S'positive'
p219
I00
tp220
a(S'negative'
p221
I00
tp222
atp223
Rp224
(S'real'
p225
I00
tp226
tp227
a(g79
((lp228
(g225
I01
tp229
a(g217
I00
tp230
a(g219
I00
tp231
atp232
Rp233
(g221
I01
tp234
tp235
a(g79
((lp236
(g225
I01
tp237
a(g219
I00
tp238
a(g221
I00
tp239
atp240
Rp241
(g217
I01
tp242
tp243
a(g79
((lp244
(g225
I01
tp245
a(g217
I00
tp246
a(g221
I00
tp247
atp248
Rp249
(g219
I01
tp250
tp251
a(g79
((lp252
(S'nonzero'
p253
I01
tp254
a(S'nonpositive'
p255
I01
tp256
atp257
Rp258
(g59
I01
tp259
tp260
a(g79
((lp261
(S'nonzero'
p262
I01
tp263
a(g61
I01
tp264
atp265
Rp266
(S'positive'
p267
I01
tp268
tp269
a(g79
((lp270
(S'real'
p271
I01
tp272
a(S'positive'
p273
I00
tp274
atp275
Rp276
(S'nonpositive'
p277
I01
tp278
tp279
a(g79
((lp280
(S'real'
p281
I01
tp282
a(S'negative'
p283
I00
tp284
atp285
Rp286
(S'nonnegative'
p287
I01
tp288
tp289
a(g79
((lp290
(S'finite'
p291
I01
tp292
a(S'extended_positive'
p293
I01
tp294
atp295
Rp296
(g58
I01
tp297
tp298
a(g79
((lp299
(g60
I01
tp300
a(S'finite'
p301
I01
tp302
atp303
Rp304
(S'negative'
p305
I01
tp306
tp307
a(g79
((lp308
(S'finite'
p309
I01
tp310
a(g67
I01
tp311
atp312
Rp313
(S'nonpositive'
p314
I01
tp315
tp316
a(g79
((lp317
(S'finite'
p318
I01
tp319
a(S'extended_nonnegative'
p320
I01
tp321
atp322
Rp323
(S'nonnegative'
p324
I01
tp325
tp326
a(g79
((lp327
(g66
I01
tp328
a(g57
I01
tp329
atp330
Rp331
(S'nonzero'
p332
I01
tp333
tp334
a(g79
((lp335
(S'extended_nonnegative'
p336
I01
tp337
a(S'extended_nonpositive'
p338
I01
tp339
atp340
Rp341
(S'zero'
p342
I01
tp343
tp344
a(g79
((lp345
(S'nonpositive'
p346
I01
tp347
a(S'nonnegative'
p348
I01
tp349
atp350
Rp351
(S'zero'
p352
I01
tp353
tp354
a(g79
((lp355
(S'even'
p356
I01
tp357
a(g62
I00
tp358
a(S'positive'
p359
I01
tp360
atp361
Rp362
(S'composite'
p363
I01
tp364
tp365
a(g79
((lp366
(g356
I01
tp367
a(g363
I00
tp368
a(g359
I01
tp369
atp370
Rp371
(g62
I01
tp372
tp373
a(g79
((lp374
(g363
I00
tp375
a(g62
I00
tp376
a(g359
I01
tp377
atp378
Rp379
(g356
I00
tp380
tp381
a(g79
((lp382
(g356
I01
tp383
a(g363
I00
tp384
a(g62
I00
tp385
atp386
Rp387
(g359
I00
tp388
tp389
a(g79
((lp390
(S'real'
p391
I01
tp392
a(g64
I00
tp393
atp394
Rp395
(g42
I01
tp396
tp397
a(g79
((lp398
(S'integer'
p399
I00
tp400
a(S'extended_real'
p401
I01
tp402
atp403
Rp404
(S'noninteger'
p405
I01
tp406
tp407
a(g79
((lp408
(S'zero'
p409
I00
tp410
a(S'extended_real'
p411
I01
tp412
atp413
Rp414
(S'extended_nonzero'
p415
I01
tp416
tp417
asS'defined_facts'
p418
g79
((lp419
g346
ag48
ag52
ag46
ag55
ag58
ag405
ag59
ag60
aS'complex'
p420
ag64
aS'finite'
p421
ag45
aS'real'
p422
ag332
ag42
ag43
ag44
ag67
ag57
ag109
ag50
aS'imaginary'
p423
ag62
ag54
ag47
ag352
ag61
ag65
ag87
atp424
Rp425
sS'full_implications'
p426
ccollections
defaultdict
p427
(g79
tp428
Rp429
(g46
I01
tp430
g79
((lp431
(S'real'
p432
I01
tp433
a(g49
I00
tp434
a(g51
I00
tp435
a(g54
I01
tp436
a(g47
I01
tp437
a(g405
I00
tp438
a(S'finite'
p439
I01
tp440
a(g100
I01
tp441
a(g42
I00
tp442
a(g96
I00
tp443
a(g55
I01
tp444
a(g64
I01
tp445
a(g63
I01
tp446
a(g87
I00
tp447
a(g48
I01
tp448
atp449
Rp450
s(g48
I00
tp451
g79
((lp452
(g56
I00
tp453
a(S'positive'
p454
I00
tp455
a(S'prime'
p456
I00
tp457
a(g346
I00
tp458
a(g44
I00
tp459
a(g324
I00
tp460
a(S'nonzero'
p461
I00
tp462
a(g50
I00
tp463
a(g432
I00
tp464
a(g105
I00
tp465
a(g42
I00
tp466
a(g96
I00
tp467
a(g64
I00
tp468
a(g59
I00
tp469
atp470
Rp471
s(g40
I00
tp472
g79
((lp473
(g217
I00
tp474
a(g219
I00
tp475
a(g461
I00
tp476
a(g277
I00
tp477
a(g44
I00
tp478
a(g287
I00
tp479
a(g50
I00
tp480
a(g456
I00
tp481
a(g105
I00
tp482
a(g42
I00
tp483
a(g96
I00
tp484
a(S'rational'
p485
I00
tp486
a(g221
I00
tp487
atp488
Rp489
s(g336
I01
tp490
g79
((lp491
(g51
I00
tp492
a(g207
I01
tp493
a(g209
I00
tp494
a(g59
I00
tp495
a(g55
I01
tp496
atp497
Rp498
s(g59
I01
tp499
g79
((lp500
(g225
I01
tp501
a(g253
I01
tp502
a(g454
I00
tp503
a(g456
I00
tp504
a(g49
I00
tp505
a(g255
I01
tp506
a(g54
I01
tp507
a(g65
I00
tp508
a(g44
I00
tp509
a(g287
I00
tp510
a(g415
I01
tp511
a(g51
I00
tp512
a(g60
I01
tp513
a(g301
I01
tp514
a(g56
I00
tp515
a(g67
I01
tp516
a(g55
I01
tp517
a(g320
I00
tp518
a(g63
I01
tp519
a(g48
I01
tp520
atp521
Rp522
s(g423
I00
tp523
g79
((lp524
tp525
Rp526
s(g61
I00
tp527
g79
((lp528
(g456
I00
tp529
a(g267
I00
tp530
a(g44
I00
tp531
a(g352
I00
tp532
atp533
Rp534
s(g47
I01
tp535
g79
((lp536
(g55
I01
tp537
a(g49
I00
tp538
a(g63
I01
tp539
a(g87
I00
tp540
a(g439
I01
tp541
atp542
Rp543
s(g253
I00
tp544
g79
((lp545
(g267
I00
tp546
a(g456
I00
tp547
a(g59
I00
tp548
a(g44
I00
tp549
atp550
Rp551
s(g96
I01
tp552
g79
((lp553
(g432
I01
tp554
a(g56
I00
tp555
a(g49
I00
tp556
a(g51
I00
tp557
a(g54
I01
tp558
a(g46
I00
tp559
a(g47
I01
tp560
a(g332
I01
tp561
a(g415
I01
tp562
a(g405
I00
tp563
a(g439
I01
tp564
a(g92
I01
tp565
a(g42
I00
tp566
a(g55
I01
tp567
a(g64
I01
tp568
a(g63
I01
tp569
a(g87
I00
tp570
a(g48
I01
tp571
atp572
Rp573
s(g67
I01
tp574
g79
((lp575
(g454
I00
tp576
a(g44
I00
tp577
a(g197
I00
tp578
a(g199
I01
tp579
a(g456
I00
tp580
a(g51
I00
tp581
a(g55
I01
tp582
atp583
Rp584
s(g64
I01
tp585
g79
((lp586
(S'real'
p587
I01
tp588
a(g49
I00
tp589
a(g51
I00
tp590
a(g54
I01
tp591
a(S'algebraic'
p592
I01
tp593
a(g439
I01
tp594
a(g42
I00
tp595
a(g55
I01
tp596
a(g63
I01
tp597
a(g87
I00
tp598
a(g48
I01
tp599
atp600
Rp601
s(S'complex'
p602
I01
tp603
g79
((lp604
(g55
I01
tp605
a(g49
I00
tp606
a(g439
I01
tp607
atp608
Rp609
s(g87
I01
tp610
g79
((lp611
(g56
I00
tp612
a(g49
I00
tp613
a(g81
I00
tp614
a(g44
I00
tp615
a(g105
I00
tp616
a(g50
I00
tp617
a(g456
I00
tp618
a(g96
I00
tp619
a(g55
I01
tp620
a(g83
I01
tp621
a(g64
I00
tp622
a(g439
I01
tp623
atp624
Rp625
s(g352
I01
tp626
g79
((lp627
(S'even'
p628
I01
tp629
a(g336
I01
tp630
a(g51
I00
tp631
a(g47
I01
tp632
a(g338
I01
tp633
a(g64
I01
tp634
a(g63
I01
tp635
a(g59
I00
tp636
a(g225
I01
tp637
a(g456
I00
tp638
a(g65
I00
tp639
a(g415
I00
tp640
a(g48
I01
tp641
a(g55
I01
tp642
a(g184
I00
tp643
a(g454
I00
tp644
a(g44
I00
tp645
a(g346
I01
tp646
a(g150
I01
tp647
a(S'finite'
p648
I01
tp649
a(g92
I01
tp650
a(g49
I00
tp651
a(g461
I00
tp652
a(g348
I01
tp653
a(g405
I00
tp654
a(g42
I00
tp655
a(g96
I00
tp656
a(g87
I00
tp657
atp658
Rp659
s(g422
I01
tp660
g79
((lp661
(S'complex'
p662
I01
tp663
a(g51
I00
tp664
a(g133
I01
tp665
a(g135
I01
tp666
a(g55
I01
tp667
a(g49
I00
tp668
a(g48
I01
tp669
atp670
Rp671
s(g62
I00
tp672
g79
((lp673
tp674
Rp675
s(g43
I00
tp676
g79
((lp677
(g423
I00
tp678
atp679
Rp680
s(g58
I01
tp681
g79
((lp682
(g225
I01
tp683
a(g56
I00
tp684
a(g49
I00
tp685
a(g277
I00
tp686
a(g293
I01
tp687
a(g51
I00
tp688
a(g54
I01
tp689
a(g415
I01
tp690
a(g262
I01
tp691
a(g61
I01
tp692
a(g291
I01
tp693
a(g59
I00
tp694
a(g336
I01
tp695
a(g55
I01
tp696
a(g67
I00
tp697
a(g63
I01
tp698
a(g48
I01
tp699
a(g184
I00
tp700
atp701
Rp702
s(g423
I01
tp703
g79
((lp704
(g56
I00
tp705
a(g40
I00
tp706
a(g324
I00
tp707
a(g461
I00
tp708
a(g420
I01
tp709
a(g59
I00
tp710
a(g456
I00
tp711
a(g65
I00
tp712
a(g43
I01
tp713
a(g184
I00
tp714
a(g55
I01
tp715
a(g454
I00
tp716
a(g44
I00
tp717
a(g439
I01
tp718
a(g67
I00
tp719
a(g49
I00
tp720
a(g105
I00
tp721
a(g346
I00
tp722
a(g54
I00
tp723
a(g64
I00
tp724
a(g405
I00
tp725
a(g50
I00
tp726
a(g42
I00
tp727
a(g96
I00
tp728
a(g320
I00
tp729
a(g57
I00
tp730
atp731
Rp732
s(g65
I00
tp733
g79
((lp734
(g456
I00
tp735
a(g58
I00
tp736
a(g44
I00
tp737
atp738
Rp739
s(g57
I00
tp740
g79
((lp741
(g454
I00
tp742
a(g332
I00
tp743
a(g193
I00
tp744
a(g44
I00
tp745
a(g456
I00
tp746
a(g184
I00
tp747
a(g59
I00
tp748
atp749
Rp750
s(g48
I01
tp751
g79
((lp752
tp753
Rp754
s(g332
I01
tp755
g79
((lp756
(g40
I01
tp757
a(g56
I00
tp758
a(g49
I00
tp759
a(g51
I00
tp760
a(g54
I01
tp761
a(g57
I01
tp762
a(g66
I01
tp763
a(g55
I01
tp764
a(g63
I01
tp765
a(g48
I01
tp766
atp767
Rp768
s(g143
I00
tp769
g79
((lp770
tp771
Rp772
s(g221
I00
tp773
g79
((lp774
tp775
Rp776
s(g420
I00
tp777
g79
((lp778
(g56
I00
tp779
a(g454
I00
tp780
a(g456
I00
tp781
a(g346
I00
tp782
a(S'imaginary'
p783
I00
tp784
a(g47
I00
tp785
a(g44
I00
tp786
a(g324
I00
tp787
a(g64
I00
tp788
a(g461
I00
tp789
a(g50
I00
tp790
a(g422
I00
tp791
a(g105
I00
tp792
a(g42
I00
tp793
a(g96
I00
tp794
a(g87
I00
tp795
a(g59
I00
tp796
atp797
Rp798
s(g55
I01
tp799
g79
((lp800
tp801
Rp802
s(g60
I00
tp803
g79
((lp804
(g305
I00
tp805
atp806
Rp807
s(S'prime'
p808
I01
tp809
g79
((lp810
(g332
I01
tp811
a(g56
I00
tp812
a(g51
I00
tp813
a(g415
I01
tp814
a(g336
I01
tp815
a(g64
I01
tp816
a(g63
I01
tp817
a(g59
I00
tp818
a(g432
I01
tp819
a(g454
I01
tp820
a(g184
I00
tp821
a(g55
I01
tp822
a(g54
I01
tp823
a(g193
I01
tp824
a(g48
I01
tp825
a(g44
I00
tp826
a(g47
I01
tp827
a(S'integer'
p828
I01
tp829
a(g49
I00
tp830
a(g439
I01
tp831
a(g346
I00
tp832
a(g348
I01
tp833
a(g405
I00
tp834
a(g42
I00
tp835
a(g67
I00
tp836
a(g87
I00
tp837
atp838
Rp839
s(g592
I00
tp840
g79
((lp841
(g56
I00
tp842
a(g456
I00
tp843
a(g44
I00
tp844
a(g50
I00
tp845
a(g105
I00
tp846
a(g96
I00
tp847
a(S'rational'
p848
I00
tp849
atp850
Rp851
s(S'positive'
p852
I00
tp853
g79
((lp854
(g44
I00
tp855
a(g456
I00
tp856
atp857
Rp858
s(g54
I01
tp859
g79
((lp860
(g51
I00
tp861
a(S'commutative'
p862
I01
tp863
atp864
Rp865
s(g193
I01
tp866
g79
((lp867
(g56
I00
tp868
a(g346
I00
tp869
a(g51
I00
tp870
a(g150
I01
tp871
a(g188
I01
tp872
a(g184
I00
tp873
a(g45
I01
tp874
a(g55
I01
tp875
a(g203
I00
tp876
a(g59
I00
tp877
atp878
Rp879
s(g255
I01
tp880
g79
((lp881
(g271
I01
tp882
a(g273
I00
tp883
a(g49
I00
tp884
a(g54
I01
tp885
a(g65
I00
tp886
a(g44
I00
tp887
a(g456
I00
tp888
a(g67
I01
tp889
a(g51
I00
tp890
a(g55
I01
tp891
a(g63
I01
tp892
a(g48
I01
tp893
a(g309
I01
tp894
atp895
Rp896
s(g648
I00
tp897
g79
((lp898
(g56
I00
tp899
a(g58
I00
tp900
a(g456
I00
tp901
a(g314
I00
tp902
a(g51
I00
tp903
a(g81
I00
tp904
a(g44
I00
tp905
a(g324
I00
tp906
a(g87
I00
tp907
a(g139
I00
tp908
a(g50
I00
tp909
a(g332
I00
tp910
a(g105
I00
tp911
a(g42
I00
tp912
a(g96
I00
tp913
a(g602
I00
tp914
a(g64
I00
tp915
a(g305
I00
tp916
atp917
Rp918
s(g363
I00
tp919
g79
((lp920
tp921
Rp922
s(g415
I01
tp923
g79
((lp924
(g55
I01
tp925
a(g411
I01
tp926
a(g409
I00
tp927
a(g51
I00
tp928
atp929
Rp930
s(g60
I01
tp931
g79
((lp932
(g56
I00
tp933
a(g454
I00
tp934
a(g150
I01
tp935
a(g55
I01
tp936
a(g51
I00
tp937
a(g44
I00
tp938
a(g324
I00
tp939
a(g178
I01
tp940
a(g456
I00
tp941
a(g180
I01
tp942
a(g65
I00
tp943
a(g213
I00
tp944
atp945
Rp946
s(g628
I00
tp947
g79
((lp948
(g56
I00
tp949
atp950
Rp951
s(g92
I01
tp952
g79
((lp953
(g432
I01
tp954
a(g49
I00
tp955
a(g51
I00
tp956
a(g54
I01
tp957
a(g47
I01
tp958
a(g405
I00
tp959
a(g439
I01
tp960
a(g42
I00
tp961
a(g55
I01
tp962
a(S'rational'
p963
I01
tp964
a(g63
I01
tp965
a(g87
I00
tp966
a(g48
I01
tp967
atp968
Rp969
s(g55
I00
tp970
g79
((lp971
(g56
I00
tp972
a(g40
I00
tp973
a(g51
I00
tp974
a(g324
I00
tp975
a(g59
I00
tp976
a(g456
I00
tp977
a(g65
I00
tp978
a(g81
I00
tp979
a(g57
I00
tp980
a(g184
I00
tp981
a(S'complex'
p982
I00
tp983
a(g454
I00
tp984
a(g44
I00
tp985
a(g461
I00
tp986
a(g320
I00
tp987
a(g105
I00
tp988
a(g346
I00
tp989
a(S'extended_real'
p990
I00
tp991
a(g64
I00
tp992
a(g405
I00
tp993
a(g50
I00
tp994
a(g42
I00
tp995
a(g96
I00
tp996
a(g67
I00
tp997
a(g87
I00
tp998
atp999
Rp1000
s(g45
I00
tp1001
g79
((lp1002
(g342
I00
tp1003
a(g454
I00
tp1004
a(g456
I00
tp1005
a(g193
I00
tp1006
a(g44
I00
tp1007
a(g324
I00
tp1008
atp1009
Rp1010
s(g42
I01
tp1011
g79
((lp1012
(g391
I01
tp1013
a(g56
I00
tp1014
a(g54
I01
tp1015
a(g456
I00
tp1016
a(g49
I00
tp1017
a(g51
I00
tp1018
a(g44
I00
tp1019
a(g105
I00
tp1020
a(g415
I01
tp1021
a(g332
I01
tp1022
a(g50
I00
tp1023
a(g405
I01
tp1024
a(g96
I00
tp1025
a(g55
I01
tp1026
a(g63
I01
tp1027
a(g64
I00
tp1028
a(g48
I01
tp1029
a(g439
I01
tp1030
atp1031
Rp1032
s(g109
I00
tp1033
g79
((lp1034
tp1035
Rp1036
s(g41
I01
tp1037
g79
((lp1038
tp1039
Rp1040
s(g421
I01
tp1041
g79
((lp1042
(g49
I00
tp1043
atp1044
Rp1045
s(g346
I00
tp1046
g79
((lp1047
(g352
I00
tp1048
a(g59
I00
tp1049
atp1050
Rp1051
s(g87
I00
tp1052
g79
((lp1053
tp1054
Rp1055
s(g44
I01
tp1056
g79
((lp1057
(g332
I01
tp1058
a(g56
I00
tp1059
a(g51
I00
tp1060
a(g47
I01
tp1061
a(g336
I01
tp1062
a(g64
I01
tp1063
a(g63
I01
tp1064
a(g59
I00
tp1065
a(g432
I01
tp1066
a(g808
I00
tp1067
a(g852
I01
tp1068
a(g184
I00
tp1069
a(g55
I01
tp1070
a(g193
I01
tp1071
a(g48
I01
tp1072
a(g54
I01
tp1073
a(g415
I01
tp1074
a(g50
I01
tp1075
a(g49
I00
tp1076
a(g439
I01
tp1077
a(g346
I00
tp1078
a(g348
I01
tp1079
a(g405
I00
tp1080
a(g42
I00
tp1081
a(g67
I00
tp1082
a(g87
I00
tp1083
atp1084
Rp1085
s(g348
I01
tp1086
g79
((lp1087
(g281
I01
tp1088
a(g49
I00
tp1089
a(g51
I00
tp1090
a(g54
I01
tp1091
a(g283
I00
tp1092
a(g318
I01
tp1093
a(g184
I00
tp1094
a(g320
I01
tp1095
a(g55
I01
tp1096
a(g63
I01
tp1097
a(g48
I01
tp1098
atp1099
Rp1100
s(g405
I00
tp1101
g79
((lp1102
tp1103
Rp1104
s(g199
I00
tp1105
g79
((lp1106
(g143
I00
tp1107
a(g454
I00
tp1108
a(g456
I00
tp1109
a(g346
I00
tp1110
a(g139
I00
tp1111
a(g65
I00
tp1112
a(g415
I00
tp1113
a(g44
I00
tp1114
a(g324
I00
tp1115
a(g405
I00
tp1116
a(g50
I00
tp1117
a(g461
I00
tp1118
a(g105
I00
tp1119
a(g145
I00
tp1120
a(g42
I00
tp1121
a(g96
I00
tp1122
a(g213
I00
tp1123
a(g64
I00
tp1124
a(g59
I00
tp1125
a(g203
I00
tp1126
atp1127
Rp1128
s(g50
I00
tp1129
g79
((lp1130
(g56
I00
tp1131
a(g44
I00
tp1132
a(g456
I00
tp1133
a(g105
I00
tp1134
a(g96
I00
tp1135
atp1136
Rp1137
s(g405
I01
tp1138
g79
((lp1139
(g56
I00
tp1140
a(g401
I01
tp1141
a(g51
I00
tp1142
a(g44
I00
tp1143
a(g105
I00
tp1144
a(g415
I01
tp1145
a(g399
I00
tp1146
a(g456
I00
tp1147
a(g96
I00
tp1148
a(g55
I01
tp1149
atp1150
Rp1151
s(g52
I00
tp1152
g79
((lp1153
tp1154
Rp1155
s(g49
I01
tp1156
g79
((lp1157
(g421
I00
tp1158
a(g56
I00
tp1159
a(g454
I00
tp1160
a(g456
I00
tp1161
a(g346
I00
tp1162
a(g51
I00
tp1163
a(g81
I00
tp1164
a(g44
I00
tp1165
a(g324
I00
tp1166
a(g64
I00
tp1167
a(g461
I00
tp1168
a(g50
I00
tp1169
a(g40
I00
tp1170
a(g105
I00
tp1171
a(g42
I00
tp1172
a(g96
I00
tp1173
a(g420
I00
tp1174
a(g87
I00
tp1175
a(g59
I00
tp1176
atp1177
Rp1178
s(g67
I00
tp1179
g79
((lp1180
(g342
I00
tp1181
a(g314
I00
tp1182
a(g184
I00
tp1183
a(g59
I00
tp1184
atp1185
Rp1186
s(g64
I00
tp1187
g79
((lp1188
(g56
I00
tp1189
a(g105
I00
tp1190
a(g44
I00
tp1191
a(S'integer'
p1192
I00
tp1193
a(g456
I00
tp1194
a(g96
I00
tp1195
atp1196
Rp1197
ssS'prereq'
p1198
g427
(g79
tp1199
Rp1200
g346
g79
((lp1201
g40
ag808
ag199
ag55
ag44
ag58
ag67
ag59
ag352
ag420
ag49
ag193
ag48
ag648
ag423
atp1202
Rp1203
sg56
g79
((lp1204
g40
ag628
ag87
ag346
ag44
ag67
ag592
ag48
ag49
ag50
ag423
ag96
ag42
ag332
ag199
ag55
ag415
ag58
ag405
ag59
ag60
ag61
ag808
ag420
ag64
ag193
ag648
ag45
atp1205
Rp1206
sg96
g79
((lp1207
g40
ag87
ag592
ag352
ag49
ag50
ag423
ag42
ag46
ag199
ag55
ag405
ag48
ag420
ag64
ag648
atp1208
Rp1209
sg42
g79
((lp1210
g46
ag40
ag199
ag55
ag44
ag808
ag48
ag352
ag420
ag64
ag49
ag92
ag423
ag648
ag96
atp1211
Rp1212
sg461
g79
((lp1213
g40
ag42
ag44
ag57
ag352
ag49
ag48
ag96
ag423
ag808
ag199
ag55
ag58
ag59
ag420
ag648
atp1214
Rp1215
sg41
g79
((lp1216
tp1217
Rp1218
sg55
g79
((lp1219
g422
ag332
ag42
ag255
ag44
ag67
ag415
ag352
ag92
ag423
ag348
ag96
ag46
ag54
ag47
ag58
ag405
ag59
ag60
ag64
ag808
ag602
ag87
ag193
ag336
atp1220
Rp1221
sg454
g79
((lp1222
g40
ag808
ag255
ag44
ag67
ag57
ag352
ag49
ag48
ag423
ag253
ag199
ag55
ag59
ag60
ag61
ag420
ag65
ag648
ag45
atp1223
Rp1224
sg405
g79
((lp1225
g46
ag808
ag199
ag55
ag44
ag352
ag92
ag423
ag96
ag42
atp1226
Rp1227
sg59
g79
((lp1228
g40
ag808
ag346
ag44
ag336
ag57
ag352
ag49
ag423
ag253
ag199
ag55
ag58
ag48
ag60
ag348
ag420
ag193
ag648
ag67
atp1229
Rp1230
sg209
g79
((lp1231
g808
ag199
ag55
ag44
ag58
ag336
ag59
ag348
ag57
ag352
ag193
ag423
ag67
atp1232
Rp1233
sg63
g79
((lp1234
g422
ag808
ag42
ag255
ag44
ag47
ag352
ag332
ag49
ag92
ag423
ag96
ag55
ag46
ag87
ag58
ag59
ag348
ag64
ag648
atp1235
Rp1236
sg64
g79
((lp1237
g40
ag808
ag42
ag44
ag592
ag352
ag49
ag92
ag423
ag96
ag46
ag199
ag55
ag48
ag420
ag87
ag648
atp1238
Rp1239
sg439
g79
((lp1240
g422
ag808
ag64
ag255
ag44
ag47
ag352
ag49
ag92
ag423
ag96
ag42
ag46
ag58
ag59
ag348
ag602
ag87
ag332
atp1241
Rp1242
sg67
g79
((lp1243
g808
ag199
ag55
ag255
ag44
ag58
ag59
ag60
ag352
ag423
ag193
atp1244
Rp1245
sg432
g79
((lp1246
g332
ag42
ag255
ag44
ag352
ag49
ag92
ag48
ag96
ag423
ag46
ag199
ag55
ag58
ag59
ag348
ag808
ag420
ag64
ag648
atp1247
Rp1248
sg105
g79
((lp1249
g40
ag87
ag592
ag352
ag49
ag50
ag423
ag96
ag42
ag199
ag55
ag405
ag48
ag420
ag64
ag648
atp1250
Rp1251
sg87
g79
((lp1252
g46
ag808
ag55
ag44
ag47
ag352
ag420
ag64
ag49
ag92
ag648
ag96
atp1253
Rp1254
sg43
g79
((lp1255
g423
atp1256
Rp1257
sg44
g79
((lp1258
g40
ag808
ag48
ag87
ag255
ag45
ag592
ag352
ag49
ag50
ag423
ag42
ag253
ag199
ag55
ag57
ag852
ag405
ag59
ag60
ag61
ag420
ag64
ag65
ag648
ag67
atp1259
Rp1260
sg320
g79
((lp1261
g808
ag199
ag55
ag44
ag58
ag59
ag60
ag348
ag352
ag423
ag193
atp1262
Rp1263
sg47
g79
((lp1264
g46
ag808
ag87
ag44
ag352
ag420
ag64
ag49
ag92
ag648
ag96
ag55
atp1265
Rp1266
sg49
g79
((lp1267
g422
ag808
ag64
ag255
ag44
ag47
ag352
ag332
ag92
ag423
ag96
ag42
ag46
ag58
ag59
ag348
ag602
ag87
ag421
atp1268
Rp1269
sg100
g79
((lp1270
g40
ag808
ag87
ag44
ag592
ag352
ag49
ag423
ag96
ag42
ag46
ag199
ag55
ag405
ag48
ag420
ag64
ag648
atp1271
Rp1272
sg51
g79
((lp1273
g422
ag332
ag42
ag43
ag255
ag44
ag67
ag415
ag352
ag49
ag92
ag96
ag46
ag54
ag55
ag58
ag405
ag59
ag60
ag348
ag808
ag420
ag64
ag193
ag648
ag336
atp1274
Rp1275
sg456
g79
((lp1276
g40
ag48
ag87
ag255
ag44
ag45
ag592
ag352
ag49
ag50
ag423
ag42
ag253
ag199
ag55
ag57
ag852
ag405
ag59
ag60
ag61
ag420
ag64
ag65
ag648
ag67
atp1277
Rp1278
sg54
g79
((lp1279
g422
ag332
ag42
ag255
ag44
ag67
ag415
ag352
ag92
ag423
ag96
ag46
ag55
ag58
ag405
ag59
ag60
ag348
ag808
ag64
ag193
ag336
atp1280
Rp1281
sg415
g79
((lp1282
g332
ag808
ag199
ag55
ag44
ag58
ag405
ag59
ag60
ag352
ag423
ag96
ag193
ag42
atp1283
Rp1284
sg48
g79
((lp1285
g46
ag422
ag42
ag255
ag44
ag58
ag59
ag348
ag808
ag352
ag64
ag92
ag332
ag96
atp1286
Rp1287
sg324
g79
((lp1288
g40
ag808
ag199
ag55
ag44
ag58
ag45
ag59
ag60
ag352
ag420
ag49
ag48
ag648
ag423
atp1289
Rp1290
sg65
g79
((lp1291
g808
ag199
ag55
ag255
ag44
ag58
ag67
ag59
ag60
ag57
ag352
ag423
ag45
atp1292
Rp1293
ssS'beta_triggers'
p1294
g427
(g79
tp1295
Rp1296
(g46
I01
tp1297
(lp1298
I8
aI9
aI10
aI13
aI14
aI16
aI17
aI18
aI21
aI22
aI23
aI24
aI25
aI26
aI27
aI30
aI31
aI33
aI36
as(g48
I00
tp1299
(lp1300
I3
aI4
aI7
aI8
aI10
aI35
aI36
as(g40
I00
tp1301
(lp1302
I3
aI4
aI7
aI8
aI10
aI35
aI36
as(g336
I01
tp1303
(lp1304
I4
aI5
aI6
aI9
aI10
aI12
aI13
aI15
aI17
aI18
aI22
aI26
aI28
aI35
aI36
as(g59
I01
tp1305
(lp1306
I0
aI34
aI35
as(g423
I00
tp1307
g79
((lp1308
tp1309
Rp1310
s(g61
I00
tp1311
(lp1312
I7
aI8
aI10
aI15
aI16
aI21
aI36
as(g47
I01
tp1313
(lp1314
I3
aI5
aI6
aI23
aI24
aI25
aI26
aI27
as(g253
I00
tp1315
(lp1316
I15
aI17
aI21
aI22
as(g96
I01
tp1317
(lp1318
I8
aI10
aI11
aI12
aI13
aI14
aI16
aI18
aI19
aI20
aI21
aI22
aI23
aI24
aI25
aI26
as(g67
I01
tp1319
(lp1320
I4
aI5
aI6
aI8
aI9
aI11
aI14
aI15
aI16
aI17
aI21
aI25
aI28
aI35
aI36
as(g64
I01
tp1321
(lp1322
I8
aI9
aI10
aI13
aI14
aI16
aI17
aI18
aI21
aI22
aI23
aI24
aI25
aI26
aI27
aI35
aI36
as(g602
I01
tp1323
(lp1324
I0
aI3
aI5
aI6
aI23
aI24
aI25
aI26
aI27
as(g87
I01
tp1325
(lp1326
I3
aI5
aI6
aI7
aI8
aI10
aI15
aI16
aI18
aI23
aI24
aI25
aI26
aI27
aI34
aI35
aI36
as(g352
I01
tp1327
(lp1328
s(g422
I01
tp1329
(lp1330
I0
aI8
aI9
aI10
aI13
aI14
aI16
aI17
aI18
aI21
aI22
aI23
aI24
aI25
aI26
aI27
aI34
aI35
aI36
as(g62
I00
tp1331
(lp1332
I30
aI32
aI33
as(g43
I00
tp1333
(lp1334
s(g58
I01
tp1335
(lp1336
I0
aI30
aI31
aI32
aI34
aI35
as(g423
I01
tp1337
(lp1338
I0
as(g65
I00
tp1339
(lp1340
I7
aI8
aI9
aI13
aI15
aI16
aI17
aI21
as(g57
I00
tp1341
(lp1342
I7
aI9
aI13
aI14
aI15
aI17
aI21
aI22
as(g48
I01
tp1343
g79
((lp1344
tp1345
Rp1346
s(g332
I01
tp1347
(lp1348
I0
aI8
aI10
aI11
aI12
aI13
aI14
aI16
aI18
aI19
aI20
aI21
aI22
aI23
aI24
aI25
aI26
aI34
aI35
as(g143
I00
tp1349
(lp1350
I7
aI8
aI10
aI15
aI16
aI18
aI36
as(g221
I00
tp1351
(lp1352
I15
aI17
aI18
aI22
as(g420
I00
tp1353
(lp1354
I3
aI4
aI7
aI8
aI10
aI35
aI36
as(g55
I01
tp1355
g79
((lp1356
tp1357
Rp1358
s(g60
I00
tp1359
(lp1360
I7
aI9
aI10
aI14
aI15
aI17
aI18
aI22
as(g808
I01
tp1361
(lp1362
I1
aI2
as(g592
I00
tp1363
(lp1364
I0
aI7
aI8
aI10
aI15
aI16
aI18
aI34
aI35
aI36
as(g852
I00
tp1365
(lp1366
I15
aI16
aI17
aI21
as(g54
I01
tp1367
(lp1368
I4
aI5
aI6
aI8
aI9
aI10
aI13
aI14
aI35
aI36
as(g193
I01
tp1369
(lp1370
I4
aI5
aI6
aI15
aI18
aI22
aI23
aI26
aI27
aI35
as(g255
I01
tp1371
(lp1372
I0
aI8
aI9
aI11
aI14
aI16
aI17
aI19
aI22
aI24
aI26
aI27
aI28
aI29
aI34
aI35
aI36
as(g648
I00
tp1373
(lp1374
I3
aI4
aI7
aI8
aI10
aI35
aI36
as(g363
I00
tp1375
(lp1376
I31
aI32
aI33
as(g415
I01
tp1377
(lp1378
I4
aI5
aI6
aI8
aI10
aI11
aI12
aI13
aI14
aI15
aI16
aI18
aI27
aI35
as(g60
I01
tp1379
(lp1380
I4
aI5
aI6
aI15
aI16
aI21
aI24
aI25
aI27
aI35
as(g628
I00
tp1381
(lp1382
I1
aI7
aI8
aI10
aI15
aI16
aI18
aI36
as(g92
I01
tp1383
(lp1384
I1
aI2
aI8
aI9
aI10
aI13
aI14
aI16
aI17
aI18
aI21
aI22
aI23
aI24
aI25
aI26
aI27
aI36
as(g55
I00
tp1385
(lp1386
s(g45
I00
tp1387
(lp1388
I7
aI8
aI13
aI15
aI16
aI21
aI36
as(g42
I01
tp1389
(lp1390
I0
aI8
aI10
aI11
aI12
aI13
aI14
aI16
aI18
aI19
aI20
aI21
aI22
aI23
aI24
aI25
aI26
as(g109
I00
tp1391
(lp1392
I3
aI5
as(g41
I01
tp1393
g79
((lp1394
tp1395
Rp1396
s(g421
I01
tp1397
(lp1398
I3
aI5
aI6
aI23
aI24
aI25
aI26
aI27
as(g346
I00
tp1399
(lp1400
I7
aI8
aI10
aI15
aI18
aI22
aI36
as(g87
I00
tp1401
g79
((lp1402
tp1403
Rp1404
s(g44
I01
tp1405
(lp1406
I1
aI2
as(g348
I01
tp1407
(lp1408
I0
aI9
aI10
aI12
aI13
aI17
aI18
aI20
aI21
aI23
aI25
aI27
aI28
aI29
aI34
aI35
aI36
as(g405
I00
tp1409
g79
((lp1410
tp1411
Rp1412
s(g199
I00
tp1413
(lp1414
s(g50
I00
tp1415
(lp1416
I7
aI8
aI10
aI15
aI16
aI18
aI35
aI36
as(g405
I01
tp1417
(lp1418
I4
aI5
aI6
aI8
aI10
aI11
aI12
aI13
aI14
aI15
aI16
aI18
aI27
as(g52
I00
tp1419
(lp1420
I2
as(g49
I01
tp1421
(lp1422
I7
aI8
aI10
aI35
aI36
as(g67
I00
tp1423
(lp1424
I7
aI10
aI14
aI15
aI18
aI22
aI36
as(g64
I00
tp1425
(lp1426
I7
aI8
aI10
aI15
aI16
aI18
aI34
aI35
aI36
assbsS'_generator'
p1427
(dp1428
g53
I01
sS'finite'
p1429
I01
ssbsbg28
tp1430
Rp1431
(dp1432
btp1433
Rp1434
(dp1435
bg0
(g28
g5
(g30
(S'\\gamma'
p1436
tp1437
Rp1438
(dp1439
g35
g36
(g37
g38
(dp1440
g40
I01
sg41
Nsg42
Nsg43
Nsg44
Nsg45
Nsg46
Nsg47
Nsg48
I01
sg49
I00
sg50
Nsg51
I00
sg52
Nsg53
I01
sg54
I01
sg55
I01
sg56
I00
sg57
I01
sg58
Nsg59
Nsg60
Nsg61
Nsg62
Nsg63
I01
sg64
Nsg65
Nsg66
I01
sg67
Nstp1441
Rp1442
(dp1443
g71
g75
sg1427
(dp1444
g53
I01
sg1429
I01
ssbsbg28
tp1445
Rp1446
(dp1447
btp1448
Rp1449
(dp1450
bg0
(g5
(g18
g6
(I2
tp1451
Rp1452
(dp1453
btp1454
Rp1455
(dp1456
bg5
(g33
g1452
tp1457
Rp1458
(dp1459
btp1460
Rp1461
(dp1462
bg0
(g1455
g5
(g1438
g1452
tp1463
Rp1464
(dp1465
btp1466
Rp1467
(dp1468
bg0
(g6
(I8
tp1469
Rp1470
(dp1471
bg1458
g1464
tp1472
Rp1473
(dp1474
btp1475
Rp1476
(dp1477
bg1
(I-1
I2
tp1478
Rp1479
(dp1480
btp1481
Rp1482
(dp1483
btp1484
Rp1485
(dp1486
b.