csympy.core.mul
Mul
p0
(csympy.core.numbers
NegativeOne
p1
(I-1
tp2
Rp3
(dp4
bcsympy.core.power
Pow
p5
(csympy.core.numbers
Integer
p6
(I6
tp7
Rp8
(dp9
bcsympy.core.numbers
Half
p10
(I1
I2
tp11
Rp12
(dp13
btp14
Rp15
(dp16
bg5
(csympy.core.numbers
Pi
p17
(tRp18
(dp19
bg6
(I4
tp20
Rp21
(dp22
btp23
Rp24
(dp25
bg5
(csympy.core.symbol
Symbol
p26
(S'\\alpha'
p27
tp28
Rp29
(dp30
S'_assumptions'
p31
ccopy_reg
_reconstructor
p32
(csympy.core.assumptions
StdFactKB
p33
c__builtin__
dict
p34
(dp35
S'real'
p36
I01
sS'polar'
p37
NsS'irrational'
p38
NsS'antihermitian'
p39
NsS'composite'
p40
NsS'extended_nonnegative'
p41
NsS'even'
p42
NsS'algebraic'
p43
NsS'hermitian'
p44
I01
sS'infinite'
p45
I00
sS'integer'
p46
NsS'imaginary'
p47
I00
sS'odd'
p48
NsS'nonzero'
p49
I01
sS'extended_real'
p50
I01
sS'commutative'
p51
I01
sS'zero'
p52
I00
sS'extended_nonzero'
p53
I01
sS'positive'
p54
NsS'negative'
p55
NsS'extended_negative'
p56
NsS'nonnegative'
p57
NsS'prime'
p58
NsS'complex'
p59
I01
sS'rational'
p60
NsS'extended_positive'
p61
NsS'finite'
p62
I01
sS'extended_nonpositive'
p63
Nstp64
Rp65
(dp66
S'rules'
p67
g32
(csympy.core.facts
FactRules
p68
c__builtin__
object
p69
Ntp70
Rp71
(dp72
S'beta_rules'
p73
(lp74
(c__builtin__
set
p75
((lp76
(S'algebraic'
p77
I00
tp78
a(S'complex'
p79
I01
tp80
atp81
Rp82
(S'transcendental'
p83
I01
tp84
tp85
a(g75
((lp86
(g42
I00
tp87
a(S'integer'
p88
I01
tp89
atp90
Rp91
(S'odd'
p92
I01
tp93
tp94
a(g75
((lp95
(S'integer'
p96
I01
tp97
a(g48
I00
tp98
atp99
Rp100
(S'even'
p101
I01
tp102
tp103
a(g75
((lp104
(S'infinite'
p105
I00
tp106
a(S'real'
p107
I00
tp108
atp109
Rp110
(S'extended_real'
p111
I00
tp112
tp113
a(g75
((lp114
(g111
I01
tp115
a(g107
I00
tp116
atp117
Rp118
(g105
I01
tp119
tp120
a(g75
((lp121
(g111
I01
tp122
a(g105
I00
tp123
atp124
Rp125
(g107
I01
tp126
tp127
a(g75
((lp128
(S'extended_real'
p129
I01
tp130
a(S'finite'
p131
I01
tp132
atp133
Rp134
(S'real'
p135
I01
tp136
tp137
a(g75
((lp138
(S'zero'
p139
I00
tp140
a(S'extended_negative'
p141
I00
tp142
a(g61
I00
tp143
atp144
Rp145
(S'extended_real'
p146
I00
tp147
tp148
a(g75
((lp149
(g139
I00
tp150
a(g146
I01
tp151
a(g61
I00
tp152
atp153
Rp154
(g141
I01
tp155
tp156
a(g75
((lp157
(g61
I00
tp158
a(g146
I01
tp159
a(g141
I00
tp160
atp161
Rp162
(g139
I01
tp163
tp164
a(g75
((lp165
(g139
I00
tp166
a(g146
I01
tp167
a(g141
I00
tp168
atp169
Rp170
(g61
I01
tp171
tp172
a(g75
((lp173
(S'extended_nonzero'
p174
I01
tp175
a(S'extended_nonpositive'
p176
I01
tp177
atp178
Rp179
(S'extended_negative'
p180
I01
tp181
tp182
a(g75
((lp183
(S'extended_nonzero'
p184
I01
tp185
a(g41
I01
tp186
atp187
Rp188
(S'extended_positive'
p189
I01
tp190
tp191
a(g75
((lp192
(S'extended_positive'
p193
I00
tp194
a(S'extended_real'
p195
I01
tp196
atp197
Rp198
(S'extended_nonpositive'
p199
I01
tp200
tp201
a(g75
((lp202
(S'extended_real'
p203
I01
tp204
a(S'extended_negative'
p205
I00
tp206
atp207
Rp208
(S'extended_nonnegative'
p209
I01
tp210
tp211
a(g75
((lp212
(S'zero'
p213
I00
tp214
a(S'positive'
p215
I00
tp216
a(S'negative'
p217
I00
tp218
atp219
Rp220
(S'real'
p221
I00
tp222
tp223
a(g75
((lp224
(g221
I01
tp225
a(g213
I00
tp226
a(g215
I00
tp227
atp228
Rp229
(g217
I01
tp230
tp231
a(g75
((lp232
(g221
I01
tp233
a(g215
I00
tp234
a(g217
I00
tp235
atp236
Rp237
(g213
I01
tp238
tp239
a(g75
((lp240
(g221
I01
tp241
a(g213
I00
tp242
a(g217
I00
tp243
atp244
Rp245
(g215
I01
tp246
tp247
a(g75
((lp248
(S'nonzero'
p249
I01
tp250
a(S'nonpositive'
p251
I01
tp252
atp253
Rp254
(g55
I01
tp255
tp256
a(g75
((lp257
(S'nonzero'
p258
I01
tp259
a(g57
I01
tp260
atp261
Rp262
(S'positive'
p263
I01
tp264
tp265
a(g75
((lp266
(S'real'
p267
I01
tp268
a(S'positive'
p269
I00
tp270
atp271
Rp272
(S'nonpositive'
p273
I01
tp274
tp275
a(g75
((lp276
(S'real'
p277
I01
tp278
a(S'negative'
p279
I00
tp280
atp281
Rp282
(S'nonnegative'
p283
I01
tp284
tp285
a(g75
((lp286
(S'finite'
p287
I01
tp288
a(S'extended_positive'
p289
I01
tp290
atp291
Rp292
(g54
I01
tp293
tp294
a(g75
((lp295
(g56
I01
tp296
a(S'finite'
p297
I01
tp298
atp299
Rp300
(S'negative'
p301
I01
tp302
tp303
a(g75
((lp304
(S'finite'
p305
I01
tp306
a(g63
I01
tp307
atp308
Rp309
(S'nonpositive'
p310
I01
tp311
tp312
a(g75
((lp313
(S'finite'
p314
I01
tp315
a(S'extended_nonnegative'
p316
I01
tp317
atp318
Rp319
(S'nonnegative'
p320
I01
tp321
tp322
a(g75
((lp323
(g62
I01
tp324
a(g53
I01
tp325
atp326
Rp327
(S'nonzero'
p328
I01
tp329
tp330
a(g75
((lp331
(S'extended_nonnegative'
p332
I01
tp333
a(S'extended_nonpositive'
p334
I01
tp335
atp336
Rp337
(S'zero'
p338
I01
tp339
tp340
a(g75
((lp341
(S'nonpositive'
p342
I01
tp343
a(S'nonnegative'
p344
I01
tp345
atp346
Rp347
(S'zero'
p348
I01
tp349
tp350
a(g75
((lp351
(S'even'
p352
I01
tp353
a(g58
I00
tp354
a(S'positive'
p355
I01
tp356
atp357
Rp358
(S'composite'
p359
I01
tp360
tp361
a(g75
((lp362
(g352
I01
tp363
a(g359
I00
tp364
a(g355
I01
tp365
atp366
Rp367
(g58
I01
tp368
tp369
a(g75
((lp370
(g359
I00
tp371
a(g58
I00
tp372
a(g355
I01
tp373
atp374
Rp375
(g352
I00
tp376
tp377
a(g75
((lp378
(g352
I01
tp379
a(g359
I00
tp380
a(g58
I00
tp381
atp382
Rp383
(g355
I00
tp384
tp385
a(g75
((lp386
(S'real'
p387
I01
tp388
a(g60
I00
tp389
atp390
Rp391
(g38
I01
tp392
tp393
a(g75
((lp394
(S'integer'
p395
I00
tp396
a(S'extended_real'
p397
I01
tp398
atp399
Rp400
(S'noninteger'
p401
I01
tp402
tp403
a(g75
((lp404
(S'zero'
p405
I00
tp406
a(S'extended_real'
p407
I01
tp408
atp409
Rp410
(S'extended_nonzero'
p411
I01
tp412
tp413
asS'defined_facts'
p414
g75
((lp415
g342
ag44
ag48
ag42
ag51
ag54
ag401
ag55
ag56
aS'complex'
p416
ag60
aS'finite'
p417
ag41
aS'real'
p418
ag328
ag38
ag39
ag40
ag63
ag53
ag105
ag46
aS'imaginary'
p419
ag58
ag50
ag43
ag348
ag57
ag61
ag83
atp420
Rp421
sS'full_implications'
p422
ccollections
defaultdict
p423
(g75
tp424
Rp425
(g42
I01
tp426
g75
((lp427
(S'real'
p428
I01
tp429
a(g45
I00
tp430
a(g47
I00
tp431
a(g50
I01
tp432
a(g43
I01
tp433
a(g401
I00
tp434
a(S'finite'
p435
I01
tp436
a(g96
I01
tp437
a(g38
I00
tp438
a(g92
I00
tp439
a(g51
I01
tp440
a(g60
I01
tp441
a(g59
I01
tp442
a(g83
I00
tp443
a(g44
I01
tp444
atp445
Rp446
s(g44
I00
tp447
g75
((lp448
(g52
I00
tp449
a(S'positive'
p450
I00
tp451
a(S'prime'
p452
I00
tp453
a(g342
I00
tp454
a(g40
I00
tp455
a(g320
I00
tp456
a(S'nonzero'
p457
I00
tp458
a(g46
I00
tp459
a(g428
I00
tp460
a(g101
I00
tp461
a(g38
I00
tp462
a(g92
I00
tp463
a(g60
I00
tp464
a(g55
I00
tp465
atp466
Rp467
s(g36
I00
tp468
g75
((lp469
(g213
I00
tp470
a(g215
I00
tp471
a(g457
I00
tp472
a(g273
I00
tp473
a(g40
I00
tp474
a(g283
I00
tp475
a(g46
I00
tp476
a(g452
I00
tp477
a(g101
I00
tp478
a(g38
I00
tp479
a(g92
I00
tp480
a(S'rational'
p481
I00
tp482
a(g217
I00
tp483
atp484
Rp485
s(g332
I01
tp486
g75
((lp487
(g47
I00
tp488
a(g203
I01
tp489
a(g205
I00
tp490
a(g55
I00
tp491
a(g51
I01
tp492
atp493
Rp494
s(g55
I01
tp495
g75
((lp496
(g221
I01
tp497
a(g249
I01
tp498
a(g450
I00
tp499
a(g452
I00
tp500
a(g45
I00
tp501
a(g251
I01
tp502
a(g50
I01
tp503
a(g61
I00
tp504
a(g40
I00
tp505
a(g283
I00
tp506
a(g411
I01
tp507
a(g47
I00
tp508
a(g56
I01
tp509
a(g297
I01
tp510
a(g52
I00
tp511
a(g63
I01
tp512
a(g51
I01
tp513
a(g316
I00
tp514
a(g59
I01
tp515
a(g44
I01
tp516
atp517
Rp518
s(g419
I00
tp519
g75
((lp520
tp521
Rp522
s(g57
I00
tp523
g75
((lp524
(g452
I00
tp525
a(g263
I00
tp526
a(g40
I00
tp527
a(g348
I00
tp528
atp529
Rp530
s(g43
I01
tp531
g75
((lp532
(g51
I01
tp533
a(g45
I00
tp534
a(g59
I01
tp535
a(g83
I00
tp536
a(g435
I01
tp537
atp538
Rp539
s(g249
I00
tp540
g75
((lp541
(g263
I00
tp542
a(g452
I00
tp543
a(g55
I00
tp544
a(g40
I00
tp545
atp546
Rp547
s(g92
I01
tp548
g75
((lp549
(g428
I01
tp550
a(g52
I00
tp551
a(g45
I00
tp552
a(g47
I00
tp553
a(g50
I01
tp554
a(g42
I00
tp555
a(g43
I01
tp556
a(g328
I01
tp557
a(g411
I01
tp558
a(g401
I00
tp559
a(g435
I01
tp560
a(g88
I01
tp561
a(g38
I00
tp562
a(g51
I01
tp563
a(g60
I01
tp564
a(g59
I01
tp565
a(g83
I00
tp566
a(g44
I01
tp567
atp568
Rp569
s(g63
I01
tp570
g75
((lp571
(g450
I00
tp572
a(g40
I00
tp573
a(g193
I00
tp574
a(g195
I01
tp575
a(g452
I00
tp576
a(g47
I00
tp577
a(g51
I01
tp578
atp579
Rp580
s(g60
I01
tp581
g75
((lp582
(S'real'
p583
I01
tp584
a(g45
I00
tp585
a(g47
I00
tp586
a(g50
I01
tp587
a(S'algebraic'
p588
I01
tp589
a(g435
I01
tp590
a(g38
I00
tp591
a(g51
I01
tp592
a(g59
I01
tp593
a(g83
I00
tp594
a(g44
I01
tp595
atp596
Rp597
s(S'complex'
p598
I01
tp599
g75
((lp600
(g51
I01
tp601
a(g45
I00
tp602
a(g435
I01
tp603
atp604
Rp605
s(g83
I01
tp606
g75
((lp607
(g52
I00
tp608
a(g45
I00
tp609
a(g77
I00
tp610
a(g40
I00
tp611
a(g101
I00
tp612
a(g46
I00
tp613
a(g452
I00
tp614
a(g92
I00
tp615
a(g51
I01
tp616
a(g79
I01
tp617
a(g60
I00
tp618
a(g435
I01
tp619
atp620
Rp621
s(g348
I01
tp622
g75
((lp623
(S'even'
p624
I01
tp625
a(g332
I01
tp626
a(g47
I00
tp627
a(g43
I01
tp628
a(g334
I01
tp629
a(g60
I01
tp630
a(g59
I01
tp631
a(g55
I00
tp632
a(g221
I01
tp633
a(g452
I00
tp634
a(g61
I00
tp635
a(g411
I00
tp636
a(g44
I01
tp637
a(g51
I01
tp638
a(g180
I00
tp639
a(g450
I00
tp640
a(g40
I00
tp641
a(g342
I01
tp642
a(g146
I01
tp643
a(S'finite'
p644
I01
tp645
a(g88
I01
tp646
a(g45
I00
tp647
a(g457
I00
tp648
a(g344
I01
tp649
a(g401
I00
tp650
a(g38
I00
tp651
a(g92
I00
tp652
a(g83
I00
tp653
atp654
Rp655
s(g418
I01
tp656
g75
((lp657
(S'complex'
p658
I01
tp659
a(g47
I00
tp660
a(g129
I01
tp661
a(g131
I01
tp662
a(g51
I01
tp663
a(g45
I00
tp664
a(g44
I01
tp665
atp666
Rp667
s(g58
I00
tp668
g75
((lp669
tp670
Rp671
s(g39
I00
tp672
g75
((lp673
(g419
I00
tp674
atp675
Rp676
s(g54
I01
tp677
g75
((lp678
(g221
I01
tp679
a(g52
I00
tp680
a(g45
I00
tp681
a(g273
I00
tp682
a(g289
I01
tp683
a(g47
I00
tp684
a(g50
I01
tp685
a(g411
I01
tp686
a(g258
I01
tp687
a(g57
I01
tp688
a(g287
I01
tp689
a(g55
I00
tp690
a(g332
I01
tp691
a(g51
I01
tp692
a(g63
I00
tp693
a(g59
I01
tp694
a(g44
I01
tp695
a(g180
I00
tp696
atp697
Rp698
s(g419
I01
tp699
g75
((lp700
(g52
I00
tp701
a(g36
I00
tp702
a(g320
I00
tp703
a(g457
I00
tp704
a(g416
I01
tp705
a(g55
I00
tp706
a(g452
I00
tp707
a(g61
I00
tp708
a(g39
I01
tp709
a(g180
I00
tp710
a(g51
I01
tp711
a(g450
I00
tp712
a(g40
I00
tp713
a(g435
I01
tp714
a(g63
I00
tp715
a(g45
I00
tp716
a(g101
I00
tp717
a(g342
I00
tp718
a(g50
I00
tp719
a(g60
I00
tp720
a(g401
I00
tp721
a(g46
I00
tp722
a(g38
I00
tp723
a(g92
I00
tp724
a(g316
I00
tp725
a(g53
I00
tp726
atp727
Rp728
s(g61
I00
tp729
g75
((lp730
(g452
I00
tp731
a(g54
I00
tp732
a(g40
I00
tp733
atp734
Rp735
s(g53
I00
tp736
g75
((lp737
(g450
I00
tp738
a(g328
I00
tp739
a(g189
I00
tp740
a(g40
I00
tp741
a(g452
I00
tp742
a(g180
I00
tp743
a(g55
I00
tp744
atp745
Rp746
s(g44
I01
tp747
g75
((lp748
tp749
Rp750
s(g328
I01
tp751
g75
((lp752
(g36
I01
tp753
a(g52
I00
tp754
a(g45
I00
tp755
a(g47
I00
tp756
a(g50
I01
tp757
a(g53
I01
tp758
a(g62
I01
tp759
a(g51
I01
tp760
a(g59
I01
tp761
a(g44
I01
tp762
atp763
Rp764
s(g139
I00
tp765
g75
((lp766
tp767
Rp768
s(g217
I00
tp769
g75
((lp770
tp771
Rp772
s(g416
I00
tp773
g75
((lp774
(g52
I00
tp775
a(g450
I00
tp776
a(g452
I00
tp777
a(g342
I00
tp778
a(S'imaginary'
p779
I00
tp780
a(g43
I00
tp781
a(g40
I00
tp782
a(g320
I00
tp783
a(g60
I00
tp784
a(g457
I00
tp785
a(g46
I00
tp786
a(g418
I00
tp787
a(g101
I00
tp788
a(g38
I00
tp789
a(g92
I00
tp790
a(g83
I00
tp791
a(g55
I00
tp792
atp793
Rp794
s(g51
I01
tp795
g75
((lp796
tp797
Rp798
s(g56
I00
tp799
g75
((lp800
(g301
I00
tp801
atp802
Rp803
s(S'prime'
p804
I01
tp805
g75
((lp806
(g328
I01
tp807
a(g52
I00
tp808
a(g47
I00
tp809
a(g411
I01
tp810
a(g332
I01
tp811
a(g60
I01
tp812
a(g59
I01
tp813
a(g55
I00
tp814
a(g428
I01
tp815
a(g450
I01
tp816
a(g180
I00
tp817
a(g51
I01
tp818
a(g50
I01
tp819
a(g189
I01
tp820
a(g44
I01
tp821
a(g40
I00
tp822
a(g43
I01
tp823
a(S'integer'
p824
I01
tp825
a(g45
I00
tp826
a(g435
I01
tp827
a(g342
I00
tp828
a(g344
I01
tp829
a(g401
I00
tp830
a(g38
I00
tp831
a(g63
I00
tp832
a(g83
I00
tp833
atp834
Rp835
s(g588
I00
tp836
g75
((lp837
(g52
I00
tp838
a(g452
I00
tp839
a(g40
I00
tp840
a(g46
I00
tp841
a(g101
I00
tp842
a(g92
I00
tp843
a(S'rational'
p844
I00
tp845
atp846
Rp847
s(S'positive'
p848
I00
tp849
g75
((lp850
(g40
I00
tp851
a(g452
I00
tp852
atp853
Rp854
s(g50
I01
tp855
g75
((lp856
(g47
I00
tp857
a(S'commutative'
p858
I01
tp859
atp860
Rp861
s(g189
I01
tp862
g75
((lp863
(g52
I00
tp864
a(g342
I00
tp865
a(g47
I00
tp866
a(g146
I01
tp867
a(g184
I01
tp868
a(g180
I00
tp869
a(g41
I01
tp870
a(g51
I01
tp871
a(g199
I00
tp872
a(g55
I00
tp873
atp874
Rp875
s(g251
I01
tp876
g75
((lp877
(g267
I01
tp878
a(g269
I00
tp879
a(g45
I00
tp880
a(g50
I01
tp881
a(g61
I00
tp882
a(g40
I00
tp883
a(g452
I00
tp884
a(g63
I01
tp885
a(g47
I00
tp886
a(g51
I01
tp887
a(g59
I01
tp888
a(g44
I01
tp889
a(g305
I01
tp890
atp891
Rp892
s(g644
I00
tp893
g75
((lp894
(g52
I00
tp895
a(g54
I00
tp896
a(g452
I00
tp897
a(g310
I00
tp898
a(g47
I00
tp899
a(g77
I00
tp900
a(g40
I00
tp901
a(g320
I00
tp902
a(g83
I00
tp903
a(g135
I00
tp904
a(g46
I00
tp905
a(g328
I00
tp906
a(g101
I00
tp907
a(g38
I00
tp908
a(g92
I00
tp909
a(g598
I00
tp910
a(g60
I00
tp911
a(g301
I00
tp912
atp913
Rp914
s(g359
I00
tp915
g75
((lp916
tp917
Rp918
s(g411
I01
tp919
g75
((lp920
(g51
I01
tp921
a(g407
I01
tp922
a(g405
I00
tp923
a(g47
I00
tp924
atp925
Rp926
s(g56
I01
tp927
g75
((lp928
(g52
I00
tp929
a(g450
I00
tp930
a(g146
I01
tp931
a(g51
I01
tp932
a(g47
I00
tp933
a(g40
I00
tp934
a(g320
I00
tp935
a(g174
I01
tp936
a(g452
I00
tp937
a(g176
I01
tp938
a(g61
I00
tp939
a(g209
I00
tp940
atp941
Rp942
s(g624
I00
tp943
g75
((lp944
(g52
I00
tp945
atp946
Rp947
s(g88
I01
tp948
g75
((lp949
(g428
I01
tp950
a(g45
I00
tp951
a(g47
I00
tp952
a(g50
I01
tp953
a(g43
I01
tp954
a(g401
I00
tp955
a(g435
I01
tp956
a(g38
I00
tp957
a(g51
I01
tp958
a(S'rational'
p959
I01
tp960
a(g59
I01
tp961
a(g83
I00
tp962
a(g44
I01
tp963
atp964
Rp965
s(g51
I00
tp966
g75
((lp967
(g52
I00
tp968
a(g36
I00
tp969
a(g47
I00
tp970
a(g320
I00
tp971
a(g55
I00
tp972
a(g452
I00
tp973
a(g61
I00
tp974
a(g77
I00
tp975
a(g53
I00
tp976
a(g180
I00
tp977
a(S'complex'
p978
I00
tp979
a(g450
I00
tp980
a(g40
I00
tp981
a(g457
I00
tp982
a(g316
I00
tp983
a(g101
I00
tp984
a(g342
I00
tp985
a(S'extended_real'
p986
I00
tp987
a(g60
I00
tp988
a(g401
I00
tp989
a(g46
I00
tp990
a(g38
I00
tp991
a(g92
I00
tp992
a(g63
I00
tp993
a(g83
I00
tp994
atp995
Rp996
s(g41
I00
tp997
g75
((lp998
(g338
I00
tp999
a(g450
I00
tp1000
a(g452
I00
tp1001
a(g189
I00
tp1002
a(g40
I00
tp1003
a(g320
I00
tp1004
atp1005
Rp1006
s(g38
I01
tp1007
g75
((lp1008
(g387
I01
tp1009
a(g52
I00
tp1010
a(g50
I01
tp1011
a(g452
I00
tp1012
a(g45
I00
tp1013
a(g47
I00
tp1014
a(g40
I00
tp1015
a(g101
I00
tp1016
a(g411
I01
tp1017
a(g328
I01
tp1018
a(g46
I00
tp1019
a(g401
I01
tp1020
a(g92
I00
tp1021
a(g51
I01
tp1022
a(g59
I01
tp1023
a(g60
I00
tp1024
a(g44
I01
tp1025
a(g435
I01
tp1026
atp1027
Rp1028
s(g105
I00
tp1029
g75
((lp1030
tp1031
Rp1032
s(g37
I01
tp1033
g75
((lp1034
tp1035
Rp1036
s(g417
I01
tp1037
g75
((lp1038
(g45
I00
tp1039
atp1040
Rp1041
s(g342
I00
tp1042
g75
((lp1043
(g348
I00
tp1044
a(g55
I00
tp1045
atp1046
Rp1047
s(g83
I00
tp1048
g75
((lp1049
tp1050
Rp1051
s(g40
I01
tp1052
g75
((lp1053
(g328
I01
tp1054
a(g52
I00
tp1055
a(g47
I00
tp1056
a(g43
I01
tp1057
a(g332
I01
tp1058
a(g60
I01
tp1059
a(g59
I01
tp1060
a(g55
I00
tp1061
a(g428
I01
tp1062
a(g804
I00
tp1063
a(g848
I01
tp1064
a(g180
I00
tp1065
a(g51
I01
tp1066
a(g189
I01
tp1067
a(g44
I01
tp1068
a(g50
I01
tp1069
a(g411
I01
tp1070
a(g46
I01
tp1071
a(g45
I00
tp1072
a(g435
I01
tp1073
a(g342
I00
tp1074
a(g344
I01
tp1075
a(g401
I00
tp1076
a(g38
I00
tp1077
a(g63
I00
tp1078
a(g83
I00
tp1079
atp1080
Rp1081
s(g344
I01
tp1082
g75
((lp1083
(g277
I01
tp1084
a(g45
I00
tp1085
a(g47
I00
tp1086
a(g50
I01
tp1087
a(g279
I00
tp1088
a(g314
I01
tp1089
a(g180
I00
tp1090
a(g316
I01
tp1091
a(g51
I01
tp1092
a(g59
I01
tp1093
a(g44
I01
tp1094
atp1095
Rp1096
s(g401
I00
tp1097
g75
((lp1098
tp1099
Rp1100
s(g195
I00
tp1101
g75
((lp1102
(g139
I00
tp1103
a(g450
I00
tp1104
a(g452
I00
tp1105
a(g342
I00
tp1106
a(g135
I00
tp1107
a(g61
I00
tp1108
a(g411
I00
tp1109
a(g40
I00
tp1110
a(g320
I00
tp1111
a(g401
I00
tp1112
a(g46
I00
tp1113
a(g457
I00
tp1114
a(g101
I00
tp1115
a(g141
I00
tp1116
a(g38
I00
tp1117
a(g92
I00
tp1118
a(g209
I00
tp1119
a(g60
I00
tp1120
a(g55
I00
tp1121
a(g199
I00
tp1122
atp1123
Rp1124
s(g46
I00
tp1125
g75
((lp1126
(g52
I00
tp1127
a(g40
I00
tp1128
a(g452
I00
tp1129
a(g101
I00
tp1130
a(g92
I00
tp1131
atp1132
Rp1133
s(g401
I01
tp1134
g75
((lp1135
(g52
I00
tp1136
a(g397
I01
tp1137
a(g47
I00
tp1138
a(g40
I00
tp1139
a(g101
I00
tp1140
a(g411
I01
tp1141
a(g395
I00
tp1142
a(g452
I00
tp1143
a(g92
I00
tp1144
a(g51
I01
tp1145
atp1146
Rp1147
s(g48
I00
tp1148
g75
((lp1149
tp1150
Rp1151
s(g45
I01
tp1152
g75
((lp1153
(g417
I00
tp1154
a(g52
I00
tp1155
a(g450
I00
tp1156
a(g452
I00
tp1157
a(g342
I00
tp1158
a(g47
I00
tp1159
a(g77
I00
tp1160
a(g40
I00
tp1161
a(g320
I00
tp1162
a(g60
I00
tp1163
a(g457
I00
tp1164
a(g46
I00
tp1165
a(g36
I00
tp1166
a(g101
I00
tp1167
a(g38
I00
tp1168
a(g92
I00
tp1169
a(g416
I00
tp1170
a(g83
I00
tp1171
a(g55
I00
tp1172
atp1173
Rp1174
s(g63
I00
tp1175
g75
((lp1176
(g338
I00
tp1177
a(g310
I00
tp1178
a(g180
I00
tp1179
a(g55
I00
tp1180
atp1181
Rp1182
s(g60
I00
tp1183
g75
((lp1184
(g52
I00
tp1185
a(g101
I00
tp1186
a(g40
I00
tp1187
a(S'integer'
p1188
I00
tp1189
a(g452
I00
tp1190
a(g92
I00
tp1191
atp1192
Rp1193
ssS'prereq'
p1194
g423
(g75
tp1195
Rp1196
g342
g75
((lp1197
g36
ag804
ag195
ag51
ag40
ag54
ag63
ag55
ag348
ag416
ag45
ag189
ag44
ag644
ag419
atp1198
Rp1199
sg52
g75
((lp1200
g36
ag624
ag83
ag342
ag40
ag63
ag588
ag44
ag45
ag46
ag419
ag92
ag38
ag328
ag195
ag51
ag411
ag54
ag401
ag55
ag56
ag57
ag804
ag416
ag60
ag189
ag644
ag41
atp1201
Rp1202
sg92
g75
((lp1203
g36
ag83
ag588
ag348
ag45
ag46
ag419
ag38
ag42
ag195
ag51
ag401
ag44
ag416
ag60
ag644
atp1204
Rp1205
sg38
g75
((lp1206
g42
ag36
ag195
ag51
ag40
ag804
ag44
ag348
ag416
ag60
ag45
ag88
ag419
ag644
ag92
atp1207
Rp1208
sg457
g75
((lp1209
g36
ag38
ag40
ag53
ag348
ag45
ag44
ag92
ag419
ag804
ag195
ag51
ag54
ag55
ag416
ag644
atp1210
Rp1211
sg37
g75
((lp1212
tp1213
Rp1214
sg51
g75
((lp1215
g418
ag328
ag38
ag251
ag40
ag63
ag411
ag348
ag88
ag419
ag344
ag92
ag42
ag50
ag43
ag54
ag401
ag55
ag56
ag60
ag804
ag598
ag83
ag189
ag332
atp1216
Rp1217
sg450
g75
((lp1218
g36
ag804
ag251
ag40
ag63
ag53
ag348
ag45
ag44
ag419
ag249
ag195
ag51
ag55
ag56
ag57
ag416
ag61
ag644
ag41
atp1219
Rp1220
sg401
g75
((lp1221
g42
ag804
ag195
ag51
ag40
ag348
ag88
ag419
ag92
ag38
atp1222
Rp1223
sg55
g75
((lp1224
g36
ag804
ag342
ag40
ag332
ag53
ag348
ag45
ag419
ag249
ag195
ag51
ag54
ag44
ag56
ag344
ag416
ag189
ag644
ag63
atp1225
Rp1226
sg205
g75
((lp1227
g804
ag195
ag51
ag40
ag54
ag332
ag55
ag344
ag53
ag348
ag189
ag419
ag63
atp1228
Rp1229
sg59
g75
((lp1230
g418
ag804
ag38
ag251
ag40
ag43
ag348
ag328
ag45
ag88
ag419
ag92
ag51
ag42
ag83
ag54
ag55
ag344
ag60
ag644
atp1231
Rp1232
sg60
g75
((lp1233
g36
ag804
ag38
ag40
ag588
ag348
ag45
ag88
ag419
ag92
ag42
ag195
ag51
ag44
ag416
ag83
ag644
atp1234
Rp1235
sg435
g75
((lp1236
g418
ag804
ag60
ag251
ag40
ag43
ag348
ag45
ag88
ag419
ag92
ag38
ag42
ag54
ag55
ag344
ag598
ag83
ag328
atp1237
Rp1238
sg63
g75
((lp1239
g804
ag195
ag51
ag251
ag40
ag54
ag55
ag56
ag348
ag419
ag189
atp1240
Rp1241
sg428
g75
((lp1242
g328
ag38
ag251
ag40
ag348
ag45
ag88
ag44
ag92
ag419
ag42
ag195
ag51
ag54
ag55
ag344
ag804
ag416
ag60
ag644
atp1243
Rp1244
sg101
g75
((lp1245
g36
ag83
ag588
ag348
ag45
ag46
ag419
ag92
ag38
ag195
ag51
ag401
ag44
ag416
ag60
ag644
atp1246
Rp1247
sg83
g75
((lp1248
g42
ag804
ag51
ag40
ag43
ag348
ag416
ag60
ag45
ag88
ag644
ag92
atp1249
Rp1250
sg39
g75
((lp1251
g419
atp1252
Rp1253
sg40
g75
((lp1254
g36
ag804
ag44
ag83
ag251
ag41
ag588
ag348
ag45
ag46
ag419
ag38
ag249
ag195
ag51
ag53
ag848
ag401
ag55
ag56
ag57
ag416
ag60
ag61
ag644
ag63
atp1255
Rp1256
sg316
g75
((lp1257
g804
ag195
ag51
ag40
ag54
ag55
ag56
ag344
ag348
ag419
ag189
atp1258
Rp1259
sg43
g75
((lp1260
g42
ag804
ag83
ag40
ag348
ag416
ag60
ag45
ag88
ag644
ag92
ag51
atp1261
Rp1262
sg45
g75
((lp1263
g418
ag804
ag60
ag251
ag40
ag43
ag348
ag328
ag88
ag419
ag92
ag38
ag42
ag54
ag55
ag344
ag598
ag83
ag417
atp1264
Rp1265
sg96
g75
((lp1266
g36
ag804
ag83
ag40
ag588
ag348
ag45
ag419
ag92
ag38
ag42
ag195
ag51
ag401
ag44
ag416
ag60
ag644
atp1267
Rp1268
sg47
g75
((lp1269
g418
ag328
ag38
ag39
ag251
ag40
ag63
ag411
ag348
ag45
ag88
ag92
ag42
ag50
ag51
ag54
ag401
ag55
ag56
ag344
ag804
ag416
ag60
ag189
ag644
ag332
atp1270
Rp1271
sg452
g75
((lp1272
g36
ag44
ag83
ag251
ag40
ag41
ag588
ag348
ag45
ag46
ag419
ag38
ag249
ag195
ag51
ag53
ag848
ag401
ag55
ag56
ag57
ag416
ag60
ag61
ag644
ag63
atp1273
Rp1274
sg50
g75
((lp1275
g418
ag328
ag38
ag251
ag40
ag63
ag411
ag348
ag88
ag419
ag92
ag42
ag51
ag54
ag401
ag55
ag56
ag344
ag804
ag60
ag189
ag332
atp1276
Rp1277
sg411
g75
((lp1278
g328
ag804
ag195
ag51
ag40
ag54
ag401
ag55
ag56
ag348
ag419
ag92
ag189
ag38
atp1279
Rp1280
sg44
g75
((lp1281
g42
ag418
ag38
ag251
ag40
ag54
ag55
ag344
ag804
ag348
ag60
ag88
ag328
ag92
atp1282
Rp1283
sg320
g75
((lp1284
g36
ag804
ag195
ag51
ag40
ag54
ag41
ag55
ag56
ag348
ag416
ag45
ag44
ag644
ag419
atp1285
Rp1286
sg61
g75
((lp1287
g804
ag195
ag51
ag251
ag40
ag54
ag63
ag55
ag56
ag53
ag348
ag419
ag41
atp1288
Rp1289
ssS'beta_triggers'
p1290
g423
(g75
tp1291
Rp1292
(g42
I01
tp1293
(lp1294
I8
aI9
aI10
aI13
aI14
aI16
aI17
aI18
aI21
aI22
aI23
aI24
aI25
aI26
aI27
aI30
aI31
aI33
aI36
as(g44
I00
tp1295
(lp1296
I3
aI4
aI7
aI8
aI10
aI35
aI36
as(g36
I00
tp1297
(lp1298
I3
aI4
aI7
aI8
aI10
aI35
aI36
as(g332
I01
tp1299
(lp1300
I4
aI5
aI6
aI9
aI10
aI12
aI13
aI15
aI17
aI18
aI22
aI26
aI28
aI35
aI36
as(g55
I01
tp1301
(lp1302
I0
aI34
aI35
as(g419
I00
tp1303
g75
((lp1304
tp1305
Rp1306
s(g57
I00
tp1307
(lp1308
I7
aI8
aI10
aI15
aI16
aI21
aI36
as(g43
I01
tp1309
(lp1310
I3
aI5
aI6
aI23
aI24
aI25
aI26
aI27
as(g249
I00
tp1311
(lp1312
I15
aI17
aI21
aI22
as(g92
I01
tp1313
(lp1314
I8
aI10
aI11
aI12
aI13
aI14
aI16
aI18
aI19
aI20
aI21
aI22
aI23
aI24
aI25
aI26
as(g63
I01
tp1315
(lp1316
I4
aI5
aI6
aI8
aI9
aI11
aI14
aI15
aI16
aI17
aI21
aI25
aI28
aI35
aI36
as(g60
I01
tp1317
(lp1318
I8
aI9
aI10
aI13
aI14
aI16
aI17
aI18
aI21
aI22
aI23
aI24
aI25
aI26
aI27
aI35
aI36
as(g598
I01
tp1319
(lp1320
I0
aI3
aI5
aI6
aI23
aI24
aI25
aI26
aI27
as(g83
I01
tp1321
(lp1322
I3
aI5
aI6
aI7
aI8
aI10
aI15
aI16
aI18
aI23
aI24
aI25
aI26
aI27
aI34
aI35
aI36
as(g348
I01
tp1323
(lp1324
s(g418
I01
tp1325
(lp1326
I0
aI8
aI9
aI10
aI13
aI14
aI16
aI17
aI18
aI21
aI22
aI23
aI24
aI25
aI26
aI27
aI34
aI35
aI36
as(g58
I00
tp1327
(lp1328
I30
aI32
aI33
as(g39
I00
tp1329
(lp1330
s(g54
I01
tp1331
(lp1332
I0
aI30
aI31
aI32
aI34
aI35
as(g419
I01
tp1333
(lp1334
I0
as(g61
I00
tp1335
(lp1336
I7
aI8
aI9
aI13
aI15
aI16
aI17
aI21
as(g53
I00
tp1337
(lp1338
I7
aI9
aI13
aI14
aI15
aI17
aI21
aI22
as(g44
I01
tp1339
g75
((lp1340
tp1341
Rp1342
s(g328
I01
tp1343
(lp1344
I0
aI8
aI10
aI11
aI12
aI13
aI14
aI16
aI18
aI19
aI20
aI21
aI22
aI23
aI24
aI25
aI26
aI34
aI35
as(g139
I00
tp1345
(lp1346
I7
aI8
aI10
aI15
aI16
aI18
aI36
as(g217
I00
tp1347
(lp1348
I15
aI17
aI18
aI22
as(g416
I00
tp1349
(lp1350
I3
aI4
aI7
aI8
aI10
aI35
aI36
as(g51
I01
tp1351
g75
((lp1352
tp1353
Rp1354
s(g56
I00
tp1355
(lp1356
I7
aI9
aI10
aI14
aI15
aI17
aI18
aI22
as(g804
I01
tp1357
(lp1358
I1
aI2
as(g588
I00
tp1359
(lp1360
I0
aI7
aI8
aI10
aI15
aI16
aI18
aI34
aI35
aI36
as(g848
I00
tp1361
(lp1362
I15
aI16
aI17
aI21
as(g50
I01
tp1363
(lp1364
I4
aI5
aI6
aI8
aI9
aI10
aI13
aI14
aI35
aI36
as(g189
I01
tp1365
(lp1366
I4
aI5
aI6
aI15
aI18
aI22
aI23
aI26
aI27
aI35
as(g251
I01
tp1367
(lp1368
I0
aI8
aI9
aI11
aI14
aI16
aI17
aI19
aI22
aI24
aI26
aI27
aI28
aI29
aI34
aI35
aI36
as(g644
I00
tp1369
(lp1370
I3
aI4
aI7
aI8
aI10
aI35
aI36
as(g359
I00
tp1371
(lp1372
I31
aI32
aI33
as(g411
I01
tp1373
(lp1374
I4
aI5
aI6
aI8
aI10
aI11
aI12
aI13
aI14
aI15
aI16
aI18
aI27
aI35
as(g56
I01
tp1375
(lp1376
I4
aI5
aI6
aI15
aI16
aI21
aI24
aI25
aI27
aI35
as(g624
I00
tp1377
(lp1378
I1
aI7
aI8
aI10
aI15
aI16
aI18
aI36
as(g88
I01
tp1379
(lp1380
I1
aI2
aI8
aI9
aI10
aI13
aI14
aI16
aI17
aI18
aI21
aI22
aI23
aI24
aI25
aI26
aI27
aI36
as(g51
I00
tp1381
(lp1382
s(g41
I00
tp1383
(lp1384
I7
aI8
aI13
aI15
aI16
aI21
aI36
as(g38
I01
tp1385
(lp1386
I0
aI8
aI10
aI11
aI12
aI13
aI14
aI16
aI18
aI19
aI20
aI21
aI22
aI23
aI24
aI25
aI26
as(g105
I00
tp1387
(lp1388
I3
aI5
as(g37
I01
tp1389
g75
((lp1390
tp1391
Rp1392
s(g417
I01
tp1393
(lp1394
I3
aI5
aI6
aI23
aI24
aI25
aI26
aI27
as(g342
I00
tp1395
(lp1396
I7
aI8
aI10
aI15
aI18
aI22
aI36
as(g83
I00
tp1397
g75
((lp1398
tp1399
Rp1400
s(g40
I01
tp1401
(lp1402
I1
aI2
as(g344
I01
tp1403
(lp1404
I0
aI9
aI10
aI12
aI13
aI17
aI18
aI20
aI21
aI23
aI25
aI27
aI28
aI29
aI34
aI35
aI36
as(g401
I00
tp1405
g75
((lp1406
tp1407
Rp1408
s(g195
I00
tp1409
(lp1410
s(g46
I00
tp1411
(lp1412
I7
aI8
aI10
aI15
aI16
aI18
aI35
aI36
as(g401
I01
tp1413
(lp1414
I4
aI5
aI6
aI8
aI10
aI11
aI12
aI13
aI14
aI15
aI16
aI18
aI27
as(g48
I00
tp1415
(lp1416
I2
as(g45
I01
tp1417
(lp1418
I7
aI8
aI10
aI35
aI36
as(g63
I00
tp1419
(lp1420
I7
aI10
aI14
aI15
aI18
aI22
aI36
as(g60
I00
tp1421
(lp1422
I7
aI8
aI10
aI15
aI16
aI18
aI34
aI35
aI36
assbsS'_generator'
p1423
(dp1424
g49
I01
sS'finite'
p1425
I01
ssbsbg3
tp1426
Rp1427
(dp1428
bg5
(g26
(S'\\gamma'
p1429
tp1430
Rp1431
(dp1432
g31
g32
(g33
g34
(dp1433
g36
I01
sg37
Nsg38
Nsg39
Nsg40
Nsg41
Nsg42
Nsg43
Nsg44
I01
sg45
I00
sg46
Nsg47
I00
sg48
Nsg49
I01
sg50
I01
sg51
I01
sg52
I00
sg53
I01
sg54
Nsg55
Nsg56
Nsg57
Nsg58
Nsg59
I01
sg60
Nsg61
Nsg62
I01
sg63
Nstp1434
Rp1435
(dp1436
g67
g71
sg1423
(dp1437
g49
I01
sg1425
I01
ssbsbg3
tp1438
Rp1439
(dp1440
bg5
(csympy.core.add
Add
p1441
(g0
(g6
(I16
tp1442
Rp1443
(dp1444
bg5
(g1431
g6
(I6
tp1445
Rp1446
(dp1447
btp1448
Rp1449
(dp1450
btp1451
Rp1452
(dp1453
bg0
(g24
g5
(g29
g6
(I2
tp1454
Rp1455
(dp1456
btp1457
Rp1458
(dp1459
btp1460
Rp1461
(dp1462
bg0
(g24
g5
(g1431
g1455
tp1463
Rp1464
(dp1465
btp1466
Rp1467
(dp1468
bg0
(g21
g5
(g18
g1455
tp1469
Rp1470
(dp1471
bg5
(g29
g6
(I4
tp1472
Rp1473
(dp1474
btp1475
Rp1476
(dp1477
btp1478
Rp1479
(dp1480
bg0
(g6
(I8
tp1481
Rp1482
(dp1483
bg1470
g5
(g1431
g1473
tp1484
Rp1485
(dp1486
btp1487
Rp1488
(dp1489
bg0
(g1443
g1476
g1464
tp1490
Rp1491
(dp1492
bg0
(g6
(I32
tp1493
Rp1494
(dp1495
bg1458
g1485
tp1496
Rp1497
(dp1498
bg0
(g6
(I12
tp1499
Rp1500
(dp1501
bg1470
g1458
g1464
tp1502
Rp1503
(dp1504
btp1505
Rp1506
(dp1507
bcsympy.core.numbers
Rational
p1508
(I-1
I2
tp1509
Rp1510
(dp1511
btp1512
Rp1513
(dp1514
bg1441
(g0
(g21
g1458
tp1515
Rp1516
(dp1517
bg0
(g1508
(I8
I3
tp1518
Rp1519
(dp1520
bg1464
tp1521
Rp1522
(dp1523
btp1524
Rp1525
(dp1526
btp1527
Rp1528
(dp1529
b.