csympy.core.mul
Mul
p0
(csympy.core.numbers
Integer
p1
(I2
tp2
Rp3
(dp4
bcsympy.core.power
Pow
p5
(csympy.core.numbers
Pi
p6
(tRp7
(dp8
bg1
(I4
tp9
Rp10
(dp11
btp12
Rp13
(dp14
bg5
(csympy.core.symbol
Symbol
p15
(S'Re'
p16
tp17
Rp18
(dp19
S'_assumptions'
p20
ccopy_reg
_reconstructor
p21
(csympy.core.assumptions
StdFactKB
p22
c__builtin__
dict
p23
(dp24
S'real'
p25
NsS'polar'
p26
NsS'irrational'
p27
NsS'antihermitian'
p28
NsS'extended_nonpositive'
p29
NsS'even'
p30
NsS'negative'
p31
NsS'algebraic'
p32
NsS'hermitian'
p33
NsS'infinite'
p34
NsS'integer'
p35
NsS'imaginary'
p36
NsS'nonzero'
p37
NsS'extended_real'
p38
NsS'commutative'
p39
I01
sS'positive'
p40
NsS'zero'
p41
NsS'extended_negative'
p42
NsS'nonnegative'
p43
NsS'complex'
p44
NsS'rational'
p45
NsS'extended_positive'
p46
NsS'finite'
p47
NsS'extended_nonnegative'
p48
Nstp49
Rp50
(dp51
S'rules'
p52
g21
(csympy.core.facts
FactRules
p53
c__builtin__
object
p54
Ntp55
Rp56
(dp57
S'beta_rules'
p58
(lp59
(c__builtin__
set
p60
((lp61
(S'algebraic'
p62
I00
tp63
a(S'complex'
p64
I01
tp65
atp66
Rp67
(S'transcendental'
p68
I01
tp69
tp70
a(g60
((lp71
(g30
I00
tp72
a(S'integer'
p73
I01
tp74
atp75
Rp76
(S'odd'
p77
I01
tp78
tp79
a(g60
((lp80
(S'integer'
p81
I01
tp82
a(S'odd'
p83
I00
tp84
atp85
Rp86
(S'even'
p87
I01
tp88
tp89
a(g60
((lp90
(g34
I00
tp91
a(S'real'
p92
I00
tp93
atp94
Rp95
(S'extended_real'
p96
I00
tp97
tp98
a(g60
((lp99
(g96
I01
tp100
a(g92
I00
tp101
atp102
Rp103
(g34
I01
tp104
tp105
a(g60
((lp106
(g96
I01
tp107
a(g34
I00
tp108
atp109
Rp110
(g92
I01
tp111
tp112
a(g60
((lp113
(S'extended_real'
p114
I01
tp115
a(S'finite'
p116
I01
tp117
atp118
Rp119
(S'real'
p120
I01
tp121
tp122
a(g60
((lp123
(S'zero'
p124
I00
tp125
a(S'extended_negative'
p126
I00
tp127
a(S'extended_positive'
p128
I00
tp129
atp130
Rp131
(S'extended_real'
p132
I00
tp133
tp134
a(g60
((lp135
(g124
I00
tp136
a(g132
I01
tp137
a(g128
I00
tp138
atp139
Rp140
(g126
I01
tp141
tp142
a(g60
((lp143
(g128
I00
tp144
a(g132
I01
tp145
a(g126
I00
tp146
atp147
Rp148
(g124
I01
tp149
tp150
a(g60
((lp151
(g124
I00
tp152
a(g132
I01
tp153
a(g126
I00
tp154
atp155
Rp156
(g128
I01
tp157
tp158
a(g60
((lp159
(S'extended_nonzero'
p160
I01
tp161
a(S'extended_nonpositive'
p162
I01
tp163
atp164
Rp165
(S'extended_negative'
p166
I01
tp167
tp168
a(g60
((lp169
(S'extended_nonzero'
p170
I01
tp171
a(g48
I01
tp172
atp173
Rp174
(g46
I01
tp175
tp176
a(g60
((lp177
(S'extended_positive'
p178
I00
tp179
a(S'extended_real'
p180
I01
tp181
atp182
Rp183
(S'extended_nonpositive'
p184
I01
tp185
tp186
a(g60
((lp187
(S'extended_real'
p188
I01
tp189
a(S'extended_negative'
p190
I00
tp191
atp192
Rp193
(S'extended_nonnegative'
p194
I01
tp195
tp196
a(g60
((lp197
(S'zero'
p198
I00
tp199
a(S'positive'
p200
I00
tp201
a(S'negative'
p202
I00
tp203
atp204
Rp205
(S'real'
p206
I00
tp207
tp208
a(g60
((lp209
(g206
I01
tp210
a(g198
I00
tp211
a(g200
I00
tp212
atp213
Rp214
(g202
I01
tp215
tp216
a(g60
((lp217
(g206
I01
tp218
a(g200
I00
tp219
a(g202
I00
tp220
atp221
Rp222
(g198
I01
tp223
tp224
a(g60
((lp225
(g206
I01
tp226
a(g198
I00
tp227
a(g202
I00
tp228
atp229
Rp230
(g200
I01
tp231
tp232
a(g60
((lp233
(S'nonzero'
p234
I01
tp235
a(S'nonpositive'
p236
I01
tp237
atp238
Rp239
(g31
I01
tp240
tp241
a(g60
((lp242
(S'nonzero'
p243
I01
tp244
a(g43
I01
tp245
atp246
Rp247
(S'positive'
p248
I01
tp249
tp250
a(g60
((lp251
(S'real'
p252
I01
tp253
a(S'positive'
p254
I00
tp255
atp256
Rp257
(S'nonpositive'
p258
I01
tp259
tp260
a(g60
((lp261
(S'real'
p262
I01
tp263
a(S'negative'
p264
I00
tp265
atp266
Rp267
(S'nonnegative'
p268
I01
tp269
tp270
a(g60
((lp271
(S'finite'
p272
I01
tp273
a(S'extended_positive'
p274
I01
tp275
atp276
Rp277
(g40
I01
tp278
tp279
a(g60
((lp280
(g42
I01
tp281
a(S'finite'
p282
I01
tp283
atp284
Rp285
(S'negative'
p286
I01
tp287
tp288
a(g60
((lp289
(S'finite'
p290
I01
tp291
a(g29
I01
tp292
atp293
Rp294
(S'nonpositive'
p295
I01
tp296
tp297
a(g60
((lp298
(S'finite'
p299
I01
tp300
a(S'extended_nonnegative'
p301
I01
tp302
atp303
Rp304
(S'nonnegative'
p305
I01
tp306
tp307
a(g60
((lp308
(S'finite'
p309
I01
tp310
a(S'extended_nonzero'
p311
I01
tp312
atp313
Rp314
(g37
I01
tp315
tp316
a(g60
((lp317
(S'extended_nonnegative'
p318
I01
tp319
a(S'extended_nonpositive'
p320
I01
tp321
atp322
Rp323
(S'zero'
p324
I01
tp325
tp326
a(g60
((lp327
(S'nonpositive'
p328
I01
tp329
a(S'nonnegative'
p330
I01
tp331
atp332
Rp333
(g41
I01
tp334
tp335
a(g60
((lp336
(S'even'
p337
I01
tp338
a(S'prime'
p339
I00
tp340
a(S'positive'
p341
I01
tp342
atp343
Rp344
(S'composite'
p345
I01
tp346
tp347
a(g60
((lp348
(g337
I01
tp349
a(g345
I00
tp350
a(g341
I01
tp351
atp352
Rp353
(g339
I01
tp354
tp355
a(g60
((lp356
(g345
I00
tp357
a(g339
I00
tp358
a(g341
I01
tp359
atp360
Rp361
(g337
I00
tp362
tp363
a(g60
((lp364
(g337
I01
tp365
a(g345
I00
tp366
a(g339
I00
tp367
atp368
Rp369
(g341
I00
tp370
tp371
a(g60
((lp372
(S'real'
p373
I01
tp374
a(g45
I00
tp375
atp376
Rp377
(g27
I01
tp378
tp379
a(g60
((lp380
(S'integer'
p381
I00
tp382
a(S'extended_real'
p383
I01
tp384
atp385
Rp386
(S'noninteger'
p387
I01
tp388
tp389
a(g60
((lp390
(S'zero'
p391
I00
tp392
a(S'extended_real'
p393
I01
tp394
atp395
Rp396
(S'extended_nonzero'
p397
I01
tp398
tp399
asS'defined_facts'
p400
g60
((lp401
g328
ag33
ag83
ag30
aS'commutative'
p402
ag40
ag387
ag31
ag42
ag44
ag45
ag47
ag48
ag25
ag37
ag27
ag28
aS'composite'
p403
ag29
ag311
ag34
ag35
ag36
ag339
ag38
ag32
ag41
ag43
ag128
ag68
atp404
Rp405
sS'full_implications'
p406
ccollections
defaultdict
p407
(g60
tp408
Rp409
(g30
I01
tp410
g60
((lp411
(S'real'
p412
I01
tp413
a(S'finite'
p414
I01
tp415
a(S'imaginary'
p416
I00
tp417
a(g38
I01
tp418
a(g32
I01
tp419
a(g387
I00
tp420
a(S'infinite'
p421
I00
tp422
a(g81
I01
tp423
a(g27
I00
tp424
a(g77
I00
tp425
a(g402
I01
tp426
a(g45
I01
tp427
a(S'complex'
p428
I01
tp429
a(g68
I00
tp430
a(g33
I01
tp431
atp432
Rp433
s(g33
I00
tp434
g60
((lp435
(S'zero'
p436
I00
tp437
a(S'positive'
p438
I00
tp439
a(S'prime'
p440
I00
tp441
a(g328
I00
tp442
a(g403
I00
tp443
a(g305
I00
tp444
a(S'nonzero'
p445
I00
tp446
a(g35
I00
tp447
a(g412
I00
tp448
a(g87
I00
tp449
a(g27
I00
tp450
a(g77
I00
tp451
a(g45
I00
tp452
a(g31
I00
tp453
atp454
Rp455
s(S'real'
p456
I00
tp457
g60
((lp458
(g198
I00
tp459
a(g200
I00
tp460
a(g445
I00
tp461
a(g258
I00
tp462
a(g403
I00
tp463
a(g268
I00
tp464
a(g35
I00
tp465
a(g440
I00
tp466
a(g87
I00
tp467
a(g27
I00
tp468
a(g77
I00
tp469
a(S'rational'
p470
I00
tp471
a(g202
I00
tp472
atp473
Rp474
s(g318
I01
tp475
g60
((lp476
(g416
I00
tp477
a(g188
I01
tp478
a(g190
I00
tp479
a(g31
I00
tp480
a(g402
I01
tp481
atp482
Rp483
s(g31
I01
tp484
g60
((lp485
(g206
I01
tp486
a(g234
I01
tp487
a(g438
I00
tp488
a(g440
I00
tp489
a(g236
I01
tp490
a(g403
I00
tp491
a(g128
I00
tp492
a(g38
I01
tp493
a(g268
I00
tp494
a(g397
I01
tp495
a(g428
I01
tp496
a(g42
I01
tp497
a(g282
I01
tp498
a(g436
I00
tp499
a(g29
I01
tp500
a(g416
I00
tp501
a(g402
I01
tp502
a(g421
I00
tp503
a(g33
I01
tp504
a(g301
I00
tp505
atp506
Rp507
s(g36
I00
tp508
g60
((lp509
tp510
Rp511
s(g43
I00
tp512
g60
((lp513
(g41
I00
tp514
a(g248
I00
tp515
a(g440
I00
tp516
a(g403
I00
tp517
atp518
Rp519
s(g32
I01
tp520
g60
((lp521
(g402
I01
tp522
a(g421
I00
tp523
a(g428
I01
tp524
a(g68
I00
tp525
a(g414
I01
tp526
atp527
Rp528
s(g234
I00
tp529
g60
((lp530
(g248
I00
tp531
a(g440
I00
tp532
a(g31
I00
tp533
a(g403
I00
tp534
atp535
Rp536
s(g77
I01
tp537
g60
((lp538
(g412
I01
tp539
a(g436
I00
tp540
a(g30
I00
tp541
a(g416
I00
tp542
a(g38
I01
tp543
a(g32
I01
tp544
a(g37
I01
tp545
a(g397
I01
tp546
a(g387
I00
tp547
a(g421
I00
tp548
a(g414
I01
tp549
a(g73
I01
tp550
a(g27
I00
tp551
a(g402
I01
tp552
a(g45
I01
tp553
a(g428
I01
tp554
a(g68
I00
tp555
a(g33
I01
tp556
atp557
Rp558
s(g29
I01
tp559
g60
((lp560
(g438
I00
tp561
a(g403
I00
tp562
a(g178
I00
tp563
a(g180
I01
tp564
a(g440
I00
tp565
a(g416
I00
tp566
a(g402
I01
tp567
atp568
Rp569
s(g68
I01
tp570
g60
((lp571
(g436
I00
tp572
a(g440
I00
tp573
a(g421
I00
tp574
a(g62
I00
tp575
a(g403
I00
tp576
a(g35
I00
tp577
a(g87
I00
tp578
a(g77
I00
tp579
a(g402
I01
tp580
a(g64
I01
tp581
a(g45
I00
tp582
a(g414
I01
tp583
atp584
Rp585
s(S'complex'
p586
I01
tp587
g60
((lp588
(g402
I01
tp589
a(g421
I00
tp590
a(g414
I01
tp591
atp592
Rp593
s(g45
I01
tp594
g60
((lp595
(S'real'
p596
I01
tp597
a(g414
I01
tp598
a(g416
I00
tp599
a(g38
I01
tp600
a(S'algebraic'
p601
I01
tp602
a(g421
I00
tp603
a(g27
I00
tp604
a(g402
I01
tp605
a(g428
I01
tp606
a(g68
I00
tp607
a(g33
I01
tp608
atp609
Rp610
s(g41
I01
tp611
g60
((lp612
(S'even'
p613
I01
tp614
a(g318
I01
tp615
a(g416
I00
tp616
a(g32
I01
tp617
a(g320
I01
tp618
a(g45
I01
tp619
a(g428
I01
tp620
a(g31
I00
tp621
a(g206
I01
tp622
a(g440
I00
tp623
a(g128
I00
tp624
a(g397
I00
tp625
a(g33
I01
tp626
a(g402
I01
tp627
a(g166
I00
tp628
a(g438
I00
tp629
a(g403
I00
tp630
a(g328
I01
tp631
a(g132
I01
tp632
a(S'finite'
p633
I01
tp634
a(g73
I01
tp635
a(g421
I00
tp636
a(g445
I00
tp637
a(g330
I01
tp638
a(g387
I00
tp639
a(g27
I00
tp640
a(g77
I00
tp641
a(g68
I00
tp642
atp643
Rp644
s(g25
I01
tp645
g60
((lp646
(S'complex'
p647
I01
tp648
a(g416
I00
tp649
a(g114
I01
tp650
a(g116
I01
tp651
a(g402
I01
tp652
a(g421
I00
tp653
a(g33
I01
tp654
atp655
Rp656
s(g339
I00
tp657
g60
((lp658
tp659
Rp660
s(g28
I00
tp661
g60
((lp662
(g36
I00
tp663
atp664
Rp665
s(g40
I01
tp666
g60
((lp667
(g206
I01
tp668
a(g436
I00
tp669
a(g272
I01
tp670
a(g258
I00
tp671
a(g274
I01
tp672
a(g416
I00
tp673
a(g38
I01
tp674
a(g397
I01
tp675
a(g243
I01
tp676
a(g43
I01
tp677
a(g421
I00
tp678
a(g31
I00
tp679
a(g318
I01
tp680
a(g402
I01
tp681
a(g29
I00
tp682
a(g428
I01
tp683
a(g33
I01
tp684
a(g166
I00
tp685
atp686
Rp687
s(g36
I01
tp688
g60
((lp689
(g436
I00
tp690
a(g456
I00
tp691
a(g305
I00
tp692
a(g44
I01
tp693
a(g31
I00
tp694
a(g440
I00
tp695
a(g128
I00
tp696
a(g28
I01
tp697
a(g166
I00
tp698
a(g402
I01
tp699
a(g414
I01
tp700
a(g438
I00
tp701
a(g403
I00
tp702
a(g87
I00
tp703
a(g29
I00
tp704
a(g421
I00
tp705
a(g445
I00
tp706
a(g328
I00
tp707
a(g38
I00
tp708
a(g45
I00
tp709
a(g387
I00
tp710
a(g35
I00
tp711
a(g27
I00
tp712
a(g77
I00
tp713
a(g301
I00
tp714
a(g311
I00
tp715
atp716
Rp717
s(g128
I00
tp718
g60
((lp719
(g40
I00
tp720
a(g440
I00
tp721
a(g403
I00
tp722
atp723
Rp724
s(g311
I00
tp725
g60
((lp726
(g438
I00
tp727
a(g37
I00
tp728
a(g46
I00
tp729
a(g403
I00
tp730
a(g440
I00
tp731
a(g166
I00
tp732
a(g31
I00
tp733
atp734
Rp735
s(g37
I01
tp736
g60
((lp737
(g456
I01
tp738
a(g436
I00
tp739
a(g309
I01
tp740
a(g416
I00
tp741
a(g38
I01
tp742
a(g311
I01
tp743
a(g421
I00
tp744
a(g402
I01
tp745
a(g428
I01
tp746
a(g33
I01
tp747
atp748
Rp749
s(g124
I00
tp750
g60
((lp751
tp752
Rp753
s(g202
I00
tp754
g60
((lp755
tp756
Rp757
s(g44
I00
tp758
g60
((lp759
(g436
I00
tp760
a(g438
I00
tp761
a(g440
I00
tp762
a(g328
I00
tp763
a(S'imaginary'
p764
I00
tp765
a(g32
I00
tp766
a(g403
I00
tp767
a(g305
I00
tp768
a(g45
I00
tp769
a(g445
I00
tp770
a(g35
I00
tp771
a(g25
I00
tp772
a(g87
I00
tp773
a(g27
I00
tp774
a(g77
I00
tp775
a(g68
I00
tp776
a(g31
I00
tp777
atp778
Rp779
s(g402
I01
tp780
g60
((lp781
tp782
Rp783
s(g42
I00
tp784
g60
((lp785
(g286
I00
tp786
atp787
Rp788
s(S'prime'
p789
I01
tp790
g60
((lp791
(g37
I01
tp792
a(g436
I00
tp793
a(g416
I00
tp794
a(g397
I01
tp795
a(g31
I00
tp796
a(g318
I01
tp797
a(g45
I01
tp798
a(g428
I01
tp799
a(g33
I01
tp800
a(g412
I01
tp801
a(g438
I01
tp802
a(g166
I00
tp803
a(g402
I01
tp804
a(g38
I01
tp805
a(g46
I01
tp806
a(g403
I00
tp807
a(g32
I01
tp808
a(S'integer'
p809
I01
tp810
a(g421
I00
tp811
a(g414
I01
tp812
a(g328
I00
tp813
a(g330
I01
tp814
a(g387
I00
tp815
a(g27
I00
tp816
a(g29
I00
tp817
a(g68
I00
tp818
atp819
Rp820
s(g601
I00
tp821
g60
((lp822
(g436
I00
tp823
a(g440
I00
tp824
a(g403
I00
tp825
a(g35
I00
tp826
a(g87
I00
tp827
a(g77
I00
tp828
a(S'rational'
p829
I00
tp830
atp831
Rp832
s(S'positive'
p833
I00
tp834
g60
((lp835
(g403
I00
tp836
a(g440
I00
tp837
atp838
Rp839
s(g38
I01
tp840
g60
((lp841
(g416
I00
tp842
a(S'commutative'
p843
I01
tp844
atp845
Rp846
s(g46
I01
tp847
g60
((lp848
(g436
I00
tp849
a(g328
I00
tp850
a(g416
I00
tp851
a(g132
I01
tp852
a(g170
I01
tp853
a(g166
I00
tp854
a(g48
I01
tp855
a(g402
I01
tp856
a(g184
I00
tp857
a(g31
I00
tp858
atp859
Rp860
s(g236
I01
tp861
g60
((lp862
(g252
I01
tp863
a(g254
I00
tp864
a(g440
I00
tp865
a(g38
I01
tp866
a(g128
I00
tp867
a(g403
I00
tp868
a(g421
I00
tp869
a(g290
I01
tp870
a(g29
I01
tp871
a(g416
I00
tp872
a(g402
I01
tp873
a(g428
I01
tp874
a(g33
I01
tp875
atp876
Rp877
s(g33
I01
tp878
g60
((lp879
tp880
Rp881
s(g345
I00
tp882
g60
((lp883
tp884
Rp885
s(g397
I01
tp886
g60
((lp887
(g416
I00
tp888
a(g393
I01
tp889
a(g391
I00
tp890
a(g402
I01
tp891
atp892
Rp893
s(g42
I01
tp894
g60
((lp895
(g436
I00
tp896
a(g438
I00
tp897
a(g403
I00
tp898
a(g416
I00
tp899
a(g132
I01
tp900
a(g305
I00
tp901
a(g160
I01
tp902
a(g440
I00
tp903
a(g162
I01
tp904
a(g128
I00
tp905
a(g402
I01
tp906
a(g194
I00
tp907
atp908
Rp909
s(g613
I00
tp910
g60
((lp911
(g436
I00
tp912
atp913
Rp914
s(g73
I01
tp915
g60
((lp916
(g412
I01
tp917
a(g414
I01
tp918
a(g416
I00
tp919
a(g38
I01
tp920
a(g32
I01
tp921
a(g387
I00
tp922
a(g421
I00
tp923
a(g27
I00
tp924
a(g402
I01
tp925
a(S'rational'
p926
I01
tp927
a(g428
I01
tp928
a(g68
I00
tp929
a(g33
I01
tp930
atp931
Rp932
s(g402
I00
tp933
g60
((lp934
(g436
I00
tp935
a(g456
I00
tp936
a(g416
I00
tp937
a(g305
I00
tp938
a(g31
I00
tp939
a(g440
I00
tp940
a(g128
I00
tp941
a(g62
I00
tp942
a(g311
I00
tp943
a(g166
I00
tp944
a(S'complex'
p945
I00
tp946
a(g438
I00
tp947
a(g403
I00
tp948
a(g87
I00
tp949
a(g301
I00
tp950
a(g445
I00
tp951
a(g328
I00
tp952
a(S'extended_real'
p953
I00
tp954
a(g45
I00
tp955
a(g387
I00
tp956
a(g35
I00
tp957
a(g27
I00
tp958
a(g77
I00
tp959
a(g29
I00
tp960
a(g68
I00
tp961
atp962
Rp963
s(g48
I00
tp964
g60
((lp965
(g324
I00
tp966
a(g438
I00
tp967
a(g440
I00
tp968
a(g46
I00
tp969
a(g403
I00
tp970
a(g305
I00
tp971
atp972
Rp973
s(g27
I01
tp974
g60
((lp975
(g373
I01
tp976
a(g436
I00
tp977
a(g403
I00
tp978
a(g421
I00
tp979
a(g416
I00
tp980
a(g38
I01
tp981
a(g87
I00
tp982
a(g397
I01
tp983
a(g37
I01
tp984
a(g35
I00
tp985
a(g440
I00
tp986
a(g77
I00
tp987
a(g402
I01
tp988
a(g387
I01
tp989
a(g428
I01
tp990
a(g45
I00
tp991
a(g33
I01
tp992
a(g414
I01
tp993
atp994
Rp995
s(g34
I00
tp996
g60
((lp997
tp998
Rp999
s(g26
I01
tp1000
g60
((lp1001
tp1002
Rp1003
s(g47
I01
tp1004
g60
((lp1005
(g421
I00
tp1006
atp1007
Rp1008
s(g328
I00
tp1009
g60
((lp1010
(g41
I00
tp1011
a(g31
I00
tp1012
atp1013
Rp1014
s(g68
I00
tp1015
g60
((lp1016
tp1017
Rp1018
s(g403
I01
tp1019
g60
((lp1020
(g37
I01
tp1021
a(g436
I00
tp1022
a(g416
I00
tp1023
a(g32
I01
tp1024
a(g31
I00
tp1025
a(g318
I01
tp1026
a(g45
I01
tp1027
a(g428
I01
tp1028
a(g33
I01
tp1029
a(g412
I01
tp1030
a(g789
I00
tp1031
a(g833
I01
tp1032
a(g166
I00
tp1033
a(g402
I01
tp1034
a(g46
I01
tp1035
a(g38
I01
tp1036
a(g397
I01
tp1037
a(g35
I01
tp1038
a(g421
I00
tp1039
a(g414
I01
tp1040
a(g328
I00
tp1041
a(g330
I01
tp1042
a(g387
I00
tp1043
a(g27
I00
tp1044
a(g29
I00
tp1045
a(g68
I00
tp1046
atp1047
Rp1048
s(g633
I00
tp1049
g60
((lp1050
(g436
I00
tp1051
a(g40
I00
tp1052
a(g440
I00
tp1053
a(g295
I00
tp1054
a(g416
I00
tp1055
a(g62
I00
tp1056
a(g403
I00
tp1057
a(g305
I00
tp1058
a(g68
I00
tp1059
a(g120
I00
tp1060
a(g35
I00
tp1061
a(g37
I00
tp1062
a(g87
I00
tp1063
a(g27
I00
tp1064
a(g77
I00
tp1065
a(g586
I00
tp1066
a(g45
I00
tp1067
a(g286
I00
tp1068
atp1069
Rp1070
s(g330
I01
tp1071
g60
((lp1072
(g262
I01
tp1073
a(g299
I01
tp1074
a(g416
I00
tp1075
a(g38
I01
tp1076
a(g264
I00
tp1077
a(g421
I00
tp1078
a(g166
I00
tp1079
a(g301
I01
tp1080
a(g402
I01
tp1081
a(g428
I01
tp1082
a(g33
I01
tp1083
atp1084
Rp1085
s(g387
I00
tp1086
g60
((lp1087
tp1088
Rp1089
s(g180
I00
tp1090
g60
((lp1091
(g124
I00
tp1092
a(g438
I00
tp1093
a(g120
I00
tp1094
a(g328
I00
tp1095
a(g128
I00
tp1096
a(g397
I00
tp1097
a(g403
I00
tp1098
a(g305
I00
tp1099
a(g440
I00
tp1100
a(g387
I00
tp1101
a(g35
I00
tp1102
a(g445
I00
tp1103
a(g87
I00
tp1104
a(g126
I00
tp1105
a(g27
I00
tp1106
a(g77
I00
tp1107
a(g194
I00
tp1108
a(g45
I00
tp1109
a(g31
I00
tp1110
a(g184
I00
tp1111
atp1112
Rp1113
s(g35
I00
tp1114
g60
((lp1115
(g436
I00
tp1116
a(g403
I00
tp1117
a(g87
I00
tp1118
a(g440
I00
tp1119
a(g77
I00
tp1120
atp1121
Rp1122
s(g387
I01
tp1123
g60
((lp1124
(g436
I00
tp1125
a(g383
I01
tp1126
a(g416
I00
tp1127
a(g403
I00
tp1128
a(g397
I01
tp1129
a(g381
I00
tp1130
a(g87
I00
tp1131
a(g77
I00
tp1132
a(g402
I01
tp1133
a(g440
I00
tp1134
atp1135
Rp1136
s(g83
I00
tp1137
g60
((lp1138
tp1139
Rp1140
s(g421
I01
tp1141
g60
((lp1142
(g47
I00
tp1143
a(g436
I00
tp1144
a(g438
I00
tp1145
a(g440
I00
tp1146
a(g328
I00
tp1147
a(g416
I00
tp1148
a(g62
I00
tp1149
a(g403
I00
tp1150
a(g305
I00
tp1151
a(g45
I00
tp1152
a(g445
I00
tp1153
a(g35
I00
tp1154
a(g456
I00
tp1155
a(g87
I00
tp1156
a(g27
I00
tp1157
a(g77
I00
tp1158
a(g44
I00
tp1159
a(g68
I00
tp1160
a(g31
I00
tp1161
atp1162
Rp1163
s(g29
I00
tp1164
g60
((lp1165
(g324
I00
tp1166
a(g295
I00
tp1167
a(g166
I00
tp1168
a(g31
I00
tp1169
atp1170
Rp1171
s(g45
I00
tp1172
g60
((lp1173
(g436
I00
tp1174
a(g87
I00
tp1175
a(g403
I00
tp1176
a(S'integer'
p1177
I00
tp1178
a(g440
I00
tp1179
a(g77
I00
tp1180
atp1181
Rp1182
ssS'prereq'
p1183
g407
(g60
tp1184
Rp1185
g328
g60
((lp1186
g456
ag789
ag180
ag402
ag41
ag403
ag40
ag29
ag31
ag33
ag44
ag421
ag46
ag633
ag36
atp1187
Rp1188
sg436
g60
((lp1189
g328
ag33
ag77
ag27
ag613
ag402
ag40
ag387
ag31
ag42
ag44
ag45
ag633
ag29
ag456
ag37
ag68
ag403
ag48
ag397
ag421
ag35
ag36
ag789
ag180
ag601
ag43
ag46
atp1190
Rp1191
sg77
g60
((lp1192
g456
ag30
ag180
ag27
ag387
ag41
ag601
ag33
ag44
ag45
ag421
ag35
ag36
ag68
ag633
ag402
atp1193
Rp1194
sg445
g60
((lp1195
g456
ag789
ag180
ag27
ag41
ag403
ag40
ag31
ag311
ag33
ag44
ag421
ag36
ag633
ag77
ag402
atp1196
Rp1197
sg402
g60
((lp1198
g236
ag41
ag77
ag37
ag40
ag387
ag31
ag42
ag586
ag45
ag29
ag25
ag30
ag27
ag403
ag318
ag32
ag73
ag36
ag789
ag38
ag397
ag330
ag46
ag68
atp1199
Rp1200
sg438
g60
((lp1201
g456
ag789
ag180
ag402
ag41
ag236
ag403
ag234
ag29
ag31
ag42
ag43
ag311
ag33
ag44
ag421
ag128
ag36
ag633
ag48
atp1202
Rp1203
sg387
g60
((lp1204
g30
ag789
ag180
ag402
ag403
ag41
ag73
ag36
ag77
ag27
atp1205
Rp1206
sg31
g60
((lp1207
g456
ag789
ag180
ag402
ag234
ag328
ag403
ag40
ag318
ag41
ag42
ag330
ag311
ag33
ag44
ag421
ag46
ag36
ag633
ag29
atp1208
Rp1209
sg190
g60
((lp1210
g789
ag180
ag402
ag403
ag40
ag318
ag31
ag330
ag36
ag311
ag41
ag46
ag29
atp1211
Rp1212
sg428
g60
((lp1213
g25
ag789
ag27
ag236
ag403
ag40
ag30
ag31
ag330
ag402
ag32
ag41
ag37
ag45
ag421
ag73
ag36
ag633
ag77
ag68
atp1214
Rp1215
sg45
g60
((lp1216
g456
ag789
ag180
ag27
ag403
ag30
ag41
ag601
ag33
ag44
ag68
ag421
ag73
ag36
ag633
ag77
ag402
atp1217
Rp1218
sg414
g60
((lp1219
g25
ag789
ag27
ag236
ag403
ag40
ag30
ag31
ag330
ag32
ag41
ag586
ag45
ag421
ag73
ag36
ag37
ag77
ag68
atp1220
Rp1221
sg29
g60
((lp1222
g789
ag180
ag402
ag236
ag403
ag40
ag31
ag42
ag41
ag36
ag46
atp1223
Rp1224
sg412
g60
((lp1225
g37
ag30
ag180
ag27
ag41
ag236
ag403
ag40
ag31
ag330
ag789
ag33
ag44
ag45
ag421
ag73
ag36
ag633
ag77
ag402
atp1226
Rp1227
sg26
g60
((lp1228
tp1229
Rp1230
sg27
g60
((lp1231
g30
ag456
ag180
ag402
ag403
ag789
ag33
ag41
ag44
ag45
ag421
ag73
ag36
ag633
ag77
atp1232
Rp1233
sg28
g60
((lp1234
g36
atp1235
Rp1236
sg403
g60
((lp1237
g236
ag41
ag27
ag234
ag402
ag833
ag387
ag31
ag42
ag44
ag45
ag633
ag48
ag456
ag68
ag29
ag311
ag421
ag35
ag36
ag789
ag180
ag601
ag33
ag43
ag128
atp1238
Rp1239
sg301
g60
((lp1240
g789
ag180
ag402
ag403
ag40
ag31
ag42
ag330
ag41
ag36
ag46
atp1241
Rp1242
sg87
g60
((lp1243
g456
ag180
ag27
ag387
ag41
ag601
ag33
ag44
ag45
ag421
ag35
ag36
ag68
ag77
ag633
ag402
atp1244
Rp1245
sg32
g60
((lp1246
g30
ag789
ag68
ag403
ag41
ag44
ag45
ag421
ag73
ag633
ag77
ag402
atp1247
Rp1248
sg421
g60
((lp1249
g25
ag789
ag27
ag37
ag236
ag403
ag40
ag30
ag31
ag330
ag32
ag41
ag586
ag45
ag73
ag36
ag47
ag77
ag68
atp1250
Rp1251
sg81
g60
((lp1252
g456
ag789
ag180
ag27
ag41
ag403
ag30
ag387
ag601
ag33
ag44
ag45
ag421
ag36
ag68
ag77
ag633
ag402
atp1253
Rp1254
sg416
g60
((lp1255
g236
ag41
ag77
ag37
ag402
ag40
ag387
ag31
ag42
ag44
ag45
ag633
ag29
ag25
ag30
ag27
ag28
ag403
ag318
ag397
ag421
ag73
ag789
ag38
ag330
ag46
atp1256
Rp1257
sg440
g60
((lp1258
g236
ag41
ag27
ag234
ag402
ag833
ag387
ag31
ag42
ag44
ag45
ag633
ag48
ag456
ag68
ag403
ag29
ag311
ag421
ag35
ag36
ag180
ag601
ag33
ag43
ag128
atp1259
Rp1260
sg38
g60
((lp1261
g236
ag41
ag77
ag37
ag402
ag40
ag387
ag31
ag42
ag45
ag29
ag25
ag30
ag27
ag403
ag318
ag397
ag73
ag36
ag789
ag330
ag46
atp1262
Rp1263
sg397
g60
((lp1264
g37
ag789
ag180
ag402
ag403
ag40
ag387
ag31
ag42
ag41
ag36
ag77
ag46
ag27
atp1265
Rp1266
sg33
g60
((lp1267
g30
ag25
ag27
ag236
ag403
ag40
ag31
ag330
ag789
ag41
ag45
ag73
ag37
ag77
atp1268
Rp1269
sg305
g60
((lp1270
g456
ag789
ag180
ag402
ag403
ag40
ag48
ag31
ag42
ag41
ag44
ag421
ag33
ag633
ag36
atp1271
Rp1272
sg128
g60
((lp1273
g789
ag180
ag402
ag236
ag403
ag40
ag29
ag31
ag42
ag311
ag41
ag36
ag48
atp1274
Rp1275
sg68
g60
((lp1276
g30
ag789
ag402
ag403
ag32
ag41
ag44
ag45
ag421
ag73
ag633
ag77
atp1277
Rp1278
ssS'beta_triggers'
p1279
g407
(g60
tp1280
Rp1281
(g30
I01
tp1282
(lp1283
I8
aI9
aI10
aI13
aI14
aI16
aI17
aI18
aI21
aI22
aI23
aI24
aI25
aI26
aI27
aI30
aI31
aI33
aI36
as(g33
I00
tp1284
(lp1285
I3
aI4
aI7
aI8
aI10
aI35
aI36
as(g456
I00
tp1286
(lp1287
I3
aI4
aI7
aI8
aI10
aI35
aI36
as(g318
I01
tp1288
(lp1289
I4
aI5
aI6
aI9
aI10
aI12
aI13
aI15
aI17
aI18
aI22
aI26
aI28
aI35
aI36
as(g31
I01
tp1290
(lp1291
I0
aI34
aI35
as(g36
I00
tp1292
g60
((lp1293
tp1294
Rp1295
s(g43
I00
tp1296
(lp1297
I7
aI8
aI10
aI15
aI16
aI21
aI36
as(g32
I01
tp1298
(lp1299
I3
aI5
aI6
aI23
aI24
aI25
aI26
aI27
as(g234
I00
tp1300
(lp1301
I15
aI17
aI21
aI22
as(g77
I01
tp1302
(lp1303
I8
aI10
aI11
aI12
aI13
aI14
aI16
aI18
aI19
aI20
aI21
aI22
aI23
aI24
aI25
aI26
as(g29
I01
tp1304
(lp1305
I4
aI5
aI6
aI8
aI9
aI11
aI14
aI15
aI16
aI17
aI21
aI25
aI28
aI35
aI36
as(g68
I01
tp1306
(lp1307
I3
aI5
aI6
aI7
aI8
aI10
aI15
aI16
aI18
aI23
aI24
aI25
aI26
aI27
aI34
aI35
aI36
as(g586
I01
tp1308
(lp1309
I0
aI3
aI5
aI6
aI23
aI24
aI25
aI26
aI27
as(g45
I01
tp1310
(lp1311
I8
aI9
aI10
aI13
aI14
aI16
aI17
aI18
aI21
aI22
aI23
aI24
aI25
aI26
aI27
aI35
aI36
as(g41
I01
tp1312
(lp1313
s(g25
I01
tp1314
(lp1315
I0
aI8
aI9
aI10
aI13
aI14
aI16
aI17
aI18
aI21
aI22
aI23
aI24
aI25
aI26
aI27
aI34
aI35
aI36
as(g339
I00
tp1316
(lp1317
I30
aI32
aI33
as(g28
I00
tp1318
(lp1319
s(g40
I01
tp1320
(lp1321
I0
aI30
aI31
aI32
aI34
aI35
as(g36
I01
tp1322
(lp1323
I0
as(g128
I00
tp1324
(lp1325
I7
aI8
aI9
aI13
aI15
aI16
aI17
aI21
as(g311
I00
tp1326
(lp1327
I7
aI9
aI13
aI14
aI15
aI17
aI21
aI22
as(g37
I01
tp1328
(lp1329
I0
aI8
aI10
aI11
aI12
aI13
aI14
aI16
aI18
aI19
aI20
aI21
aI22
aI23
aI24
aI25
aI26
aI34
aI35
as(g124
I00
tp1330
(lp1331
I7
aI8
aI10
aI15
aI16
aI18
aI36
as(g202
I00
tp1332
(lp1333
I15
aI17
aI18
aI22
as(g44
I00
tp1334
(lp1335
I3
aI4
aI7
aI8
aI10
aI35
aI36
as(g402
I01
tp1336
g60
((lp1337
tp1338
Rp1339
s(g42
I00
tp1340
(lp1341
I7
aI9
aI10
aI14
aI15
aI17
aI18
aI22
as(g789
I01
tp1342
(lp1343
I1
aI2
as(g601
I00
tp1344
(lp1345
I0
aI7
aI8
aI10
aI15
aI16
aI18
aI34
aI35
aI36
as(g833
I00
tp1346
(lp1347
I15
aI16
aI17
aI21
as(g38
I01
tp1348
(lp1349
I4
aI5
aI6
aI8
aI9
aI10
aI13
aI14
aI35
aI36
as(g46
I01
tp1350
(lp1351
I4
aI5
aI6
aI15
aI18
aI22
aI23
aI26
aI27
aI35
as(g236
I01
tp1352
(lp1353
I0
aI8
aI9
aI11
aI14
aI16
aI17
aI19
aI22
aI24
aI26
aI27
aI28
aI29
aI34
aI35
aI36
as(g33
I01
tp1354
g60
((lp1355
tp1356
Rp1357
s(g345
I00
tp1358
(lp1359
I31
aI32
aI33
as(g397
I01
tp1360
(lp1361
I4
aI5
aI6
aI8
aI10
aI11
aI12
aI13
aI14
aI15
aI16
aI18
aI27
aI35
as(g42
I01
tp1362
(lp1363
I4
aI5
aI6
aI15
aI16
aI21
aI24
aI25
aI27
aI35
as(g613
I00
tp1364
(lp1365
I1
aI7
aI8
aI10
aI15
aI16
aI18
aI36
as(g73
I01
tp1366
(lp1367
I1
aI2
aI8
aI9
aI10
aI13
aI14
aI16
aI17
aI18
aI21
aI22
aI23
aI24
aI25
aI26
aI27
aI36
as(g402
I00
tp1368
(lp1369
s(g48
I00
tp1370
(lp1371
I7
aI8
aI13
aI15
aI16
aI21
aI36
as(g27
I01
tp1372
(lp1373
I0
aI8
aI10
aI11
aI12
aI13
aI14
aI16
aI18
aI19
aI20
aI21
aI22
aI23
aI24
aI25
aI26
as(g34
I00
tp1374
(lp1375
I3
aI5
as(g26
I01
tp1376
g60
((lp1377
tp1378
Rp1379
s(g47
I01
tp1380
(lp1381
I3
aI5
aI6
aI23
aI24
aI25
aI26
aI27
as(g328
I00
tp1382
(lp1383
I7
aI8
aI10
aI15
aI18
aI22
aI36
as(g68
I00
tp1384
g60
((lp1385
tp1386
Rp1387
s(g403
I01
tp1388
(lp1389
I1
aI2
as(g633
I00
tp1390
(lp1391
I3
aI4
aI7
aI8
aI10
aI35
aI36
as(g330
I01
tp1392
(lp1393
I0
aI9
aI10
aI12
aI13
aI17
aI18
aI20
aI21
aI23
aI25
aI27
aI28
aI29
aI34
aI35
aI36
as(g387
I00
tp1394
g60
((lp1395
tp1396
Rp1397
s(g180
I00
tp1398
(lp1399
s(g35
I00
tp1400
(lp1401
I7
aI8
aI10
aI15
aI16
aI18
aI35
aI36
as(g387
I01
tp1402
(lp1403
I4
aI5
aI6
aI8
aI10
aI11
aI12
aI13
aI14
aI15
aI16
aI18
aI27
as(g83
I00
tp1404
(lp1405
I2
as(g421
I01
tp1406
(lp1407
I7
aI8
aI10
aI35
aI36
as(g29
I00
tp1408
(lp1409
I7
aI10
aI14
aI15
aI18
aI22
aI36
as(g45
I00
tp1410
(lp1411
I7
aI8
aI10
aI15
aI16
aI18
aI34
aI35
aI36
assbsS'_generator'
p1412
(dp1413
sbsbcsympy.core.numbers
NegativeOne
p1414
(I-1
tp1415
Rp1416
(dp1417
btp1418
Rp1419
(dp1420
bg5
(g15
(S'\\alpha'
p1421
tp1422
Rp1423
(dp1424
g20
g21
(g22
g23
(dp1425
S'real'
p1426
I01
sS'polar'
p1427
NsS'irrational'
p1428
NsS'antihermitian'
p1429
NsS'composite'
p1430
NsS'extended_nonpositive'
p1431
NsS'even'
p1432
NsS'negative'
p1433
NsS'extended_nonzero'
p1434
I01
sS'hermitian'
p1435
I01
sS'infinite'
p1436
I00
sS'integer'
p1437
NsS'imaginary'
p1438
I00
sS'odd'
p1439
NsS'nonzero'
p1440
I01
sS'extended_real'
p1441
I01
sS'commutative'
p1442
I01
sS'algebraic'
p1443
NsS'positive'
p1444
NsS'zero'
p1445
I00
sS'extended_negative'
p1446
NsS'nonnegative'
p1447
NsS'prime'
p1448
NsS'complex'
p1449
I01
sS'rational'
p1450
NsS'extended_positive'
p1451
NsS'finite'
p1452
I01
sS'extended_nonnegative'
p1453
Nstp1454
Rp1455
(dp1456
g52
g21
(g53
g54
Ntp1457
Rp1458
(dp1459
g58
(lp1460
(g60
((lp1461
(S'algebraic'
p1462
I00
tp1463
a(S'complex'
p1464
I01
tp1465
atp1466
Rp1467
(S'transcendental'
p1468
I01
tp1469
tp1470
a(g60
((lp1471
(g1432
I00
tp1472
a(S'integer'
p1473
I01
tp1474
atp1475
Rp1476
(S'odd'
p1477
I01
tp1478
tp1479
a(g60
((lp1480
(S'integer'
p1481
I01
tp1482
a(g1439
I00
tp1483
atp1484
Rp1485
(S'even'
p1486
I01
tp1487
tp1488
a(g60
((lp1489
(S'real'
p1490
I00
tp1491
a(S'infinite'
p1492
I00
tp1493
atp1494
Rp1495
(S'extended_real'
p1496
I00
tp1497
tp1498
a(g60
((lp1499
(g1490
I00
tp1500
a(g1496
I01
tp1501
atp1502
Rp1503
(g1492
I01
tp1504
tp1505
a(g60
((lp1506
(g1492
I00
tp1507
a(g1496
I01
tp1508
atp1509
Rp1510
(g1490
I01
tp1511
tp1512
a(g60
((lp1513
(S'extended_real'
p1514
I01
tp1515
a(S'finite'
p1516
I01
tp1517
atp1518
Rp1519
(S'real'
p1520
I01
tp1521
tp1522
a(g60
((lp1523
(S'zero'
p1524
I00
tp1525
a(S'extended_negative'
p1526
I00
tp1527
a(g1451
I00
tp1528
atp1529
Rp1530
(S'extended_real'
p1531
I00
tp1532
tp1533
a(g60
((lp1534
(g1524
I00
tp1535
a(g1531
I01
tp1536
a(g1451
I00
tp1537
atp1538
Rp1539
(g1526
I01
tp1540
tp1541
a(g60
((lp1542
(g1451
I00
tp1543
a(g1531
I01
tp1544
a(g1526
I00
tp1545
atp1546
Rp1547
(g1524
I01
tp1548
tp1549
a(g60
((lp1550
(g1524
I00
tp1551
a(g1531
I01
tp1552
a(g1526
I00
tp1553
atp1554
Rp1555
(g1451
I01
tp1556
tp1557
a(g60
((lp1558
(S'extended_nonzero'
p1559
I01
tp1560
a(S'extended_nonpositive'
p1561
I01
tp1562
atp1563
Rp1564
(S'extended_negative'
p1565
I01
tp1566
tp1567
a(g60
((lp1568
(S'extended_nonzero'
p1569
I01
tp1570
a(g1453
I01
tp1571
atp1572
Rp1573
(S'extended_positive'
p1574
I01
tp1575
tp1576
a(g60
((lp1577
(S'extended_positive'
p1578
I00
tp1579
a(S'extended_real'
p1580
I01
tp1581
atp1582
Rp1583
(S'extended_nonpositive'
p1584
I01
tp1585
tp1586
a(g60
((lp1587
(S'extended_real'
p1588
I01
tp1589
a(S'extended_negative'
p1590
I00
tp1591
atp1592
Rp1593
(S'extended_nonnegative'
p1594
I01
tp1595
tp1596
a(g60
((lp1597
(S'zero'
p1598
I00
tp1599
a(S'positive'
p1600
I00
tp1601
a(S'negative'
p1602
I00
tp1603
atp1604
Rp1605
(S'real'
p1606
I00
tp1607
tp1608
a(g60
((lp1609
(g1606
I01
tp1610
a(g1598
I00
tp1611
a(g1600
I00
tp1612
atp1613
Rp1614
(g1602
I01
tp1615
tp1616
a(g60
((lp1617
(g1606
I01
tp1618
a(g1600
I00
tp1619
a(g1602
I00
tp1620
atp1621
Rp1622
(g1598
I01
tp1623
tp1624
a(g60
((lp1625
(g1606
I01
tp1626
a(g1598
I00
tp1627
a(g1602
I00
tp1628
atp1629
Rp1630
(g1600
I01
tp1631
tp1632
a(g60
((lp1633
(S'nonzero'
p1634
I01
tp1635
a(S'nonpositive'
p1636
I01
tp1637
atp1638
Rp1639
(g1433
I01
tp1640
tp1641
a(g60
((lp1642
(S'nonzero'
p1643
I01
tp1644
a(g1447
I01
tp1645
atp1646
Rp1647
(S'positive'
p1648
I01
tp1649
tp1650
a(g60
((lp1651
(S'real'
p1652
I01
tp1653
a(S'positive'
p1654
I00
tp1655
atp1656
Rp1657
(S'nonpositive'
p1658
I01
tp1659
tp1660
a(g60
((lp1661
(S'real'
p1662
I01
tp1663
a(S'negative'
p1664
I00
tp1665
atp1666
Rp1667
(S'nonnegative'
p1668
I01
tp1669
tp1670
a(g60
((lp1671
(S'finite'
p1672
I01
tp1673
a(S'extended_positive'
p1674
I01
tp1675
atp1676
Rp1677
(g1444
I01
tp1678
tp1679
a(g60
((lp1680
(g1446
I01
tp1681
a(S'finite'
p1682
I01
tp1683
atp1684
Rp1685
(S'negative'
p1686
I01
tp1687
tp1688
a(g60
((lp1689
(S'finite'
p1690
I01
tp1691
a(g1431
I01
tp1692
atp1693
Rp1694
(S'nonpositive'
p1695
I01
tp1696
tp1697
a(g60
((lp1698
(S'finite'
p1699
I01
tp1700
a(S'extended_nonnegative'
p1701
I01
tp1702
atp1703
Rp1704
(S'nonnegative'
p1705
I01
tp1706
tp1707
a(g60
((lp1708
(g1452
I01
tp1709
a(g1434
I01
tp1710
atp1711
Rp1712
(S'nonzero'
p1713
I01
tp1714
tp1715
a(g60
((lp1716
(S'extended_nonpositive'
p1717
I01
tp1718
a(S'extended_nonnegative'
p1719
I01
tp1720
atp1721
Rp1722
(S'zero'
p1723
I01
tp1724
tp1725
a(g60
((lp1726
(S'nonnegative'
p1727
I01
tp1728
a(S'nonpositive'
p1729
I01
tp1730
atp1731
Rp1732
(S'zero'
p1733
I01
tp1734
tp1735
a(g60
((lp1736
(S'even'
p1737
I01
tp1738
a(g1448
I00
tp1739
a(S'positive'
p1740
I01
tp1741
atp1742
Rp1743
(S'composite'
p1744
I01
tp1745
tp1746
a(g60
((lp1747
(g1737
I01
tp1748
a(g1744
I00
tp1749
a(g1740
I01
tp1750
atp1751
Rp1752
(g1448
I01
tp1753
tp1754
a(g60
((lp1755
(g1448
I00
tp1756
a(g1744
I00
tp1757
a(g1740
I01
tp1758
atp1759
Rp1760
(g1737
I00
tp1761
tp1762
a(g60
((lp1763
(g1737
I01
tp1764
a(g1448
I00
tp1765
a(g1744
I00
tp1766
atp1767
Rp1768
(g1740
I00
tp1769
tp1770
a(g60
((lp1771
(S'real'
p1772
I01
tp1773
a(g1450
I00
tp1774
atp1775
Rp1776
(g1428
I01
tp1777
tp1778
a(g60
((lp1779
(S'integer'
p1780
I00
tp1781
a(S'extended_real'
p1782
I01
tp1783
atp1784
Rp1785
(S'noninteger'
p1786
I01
tp1787
tp1788
a(g60
((lp1789
(S'zero'
p1790
I00
tp1791
a(S'extended_real'
p1792
I01
tp1793
atp1794
Rp1795
(S'extended_nonzero'
p1796
I01
tp1797
tp1798
asg400
g60
((lp1799
g1729
ag1435
ag1439
ag1432
ag1442
ag1444
ag1786
ag1433
ag1446
aS'complex'
p1800
ag1450
aS'finite'
p1801
ag1431
aS'real'
p1802
ag1713
ag1428
ag1429
ag1430
ag1453
ag1434
ag1492
ag1437
aS'imaginary'
p1803
ag1448
ag1441
ag1443
ag1733
ag1447
ag1451
ag1468
atp1804
Rp1805
sg406
g407
(g60
tp1806
Rp1807
(g1432
I01
tp1808
g60
((lp1809
(S'real'
p1810
I01
tp1811
a(S'finite'
p1812
I01
tp1813
a(g1438
I00
tp1814
a(g1441
I01
tp1815
a(g1443
I01
tp1816
a(g1786
I00
tp1817
a(g1449
I01
tp1818
a(g1481
I01
tp1819
a(g1428
I00
tp1820
a(g1477
I00
tp1821
a(g1442
I01
tp1822
a(g1450
I01
tp1823
a(g1436
I00
tp1824
a(g1468
I00
tp1825
a(g1435
I01
tp1826
atp1827
Rp1828
s(g1435
I00
tp1829
g60
((lp1830
(g1445
I00
tp1831
a(S'positive'
p1832
I00
tp1833
a(S'prime'
p1834
I00
tp1835
a(g1729
I00
tp1836
a(g1430
I00
tp1837
a(g1705
I00
tp1838
a(g1810
I00
tp1839
a(g1437
I00
tp1840
a(S'nonzero'
p1841
I00
tp1842
a(g1486
I00
tp1843
a(g1428
I00
tp1844
a(g1477
I00
tp1845
a(g1450
I00
tp1846
a(g1433
I00
tp1847
atp1848
Rp1849
s(g1426
I00
tp1850
g60
((lp1851
(g1598
I00
tp1852
a(g1600
I00
tp1853
a(g1841
I00
tp1854
a(g1658
I00
tp1855
a(g1430
I00
tp1856
a(g1668
I00
tp1857
a(g1437
I00
tp1858
a(g1834
I00
tp1859
a(g1486
I00
tp1860
a(g1428
I00
tp1861
a(g1477
I00
tp1862
a(S'rational'
p1863
I00
tp1864
a(g1602
I00
tp1865
atp1866
Rp1867
s(g1719
I01
tp1868
g60
((lp1869
(g1438
I00
tp1870
a(g1588
I01
tp1871
a(g1590
I00
tp1872
a(g1433
I00
tp1873
a(g1442
I01
tp1874
atp1875
Rp1876
s(g1433
I01
tp1877
g60
((lp1878
(g1606
I01
tp1879
a(g1634
I01
tp1880
a(g1832
I00
tp1881
a(g1834
I00
tp1882
a(g1636
I01
tp1883
a(g1451
I00
tp1884
a(g1441
I01
tp1885
a(g1668
I00
tp1886
a(g1796
I01
tp1887
a(g1438
I00
tp1888
a(g1446
I01
tp1889
a(g1682
I01
tp1890
a(g1445
I00
tp1891
a(g1435
I01
tp1892
a(g1431
I01
tp1893
a(g1430
I00
tp1894
a(g1442
I01
tp1895
a(g1436
I00
tp1896
a(g1449
I01
tp1897
a(g1701
I00
tp1898
atp1899
Rp1900
s(g1803
I00
tp1901
g60
((lp1902
tp1903
Rp1904
s(g1447
I00
tp1905
g60
((lp1906
(g1733
I00
tp1907
a(g1648
I00
tp1908
a(g1834
I00
tp1909
a(g1430
I00
tp1910
atp1911
Rp1912
s(g1443
I01
tp1913
g60
((lp1914
(g1442
I01
tp1915
a(g1436
I00
tp1916
a(g1449
I01
tp1917
a(g1468
I00
tp1918
a(g1812
I01
tp1919
atp1920
Rp1921
s(g1602
I00
tp1922
g60
((lp1923
tp1924
Rp1925
s(g1801
I01
tp1926
g60
((lp1927
(g1436
I00
tp1928
atp1929
Rp1930
s(g1477
I01
tp1931
g60
((lp1932
(g1810
I01
tp1933
a(g1445
I00
tp1934
a(g1432
I00
tp1935
a(g1438
I00
tp1936
a(g1441
I01
tp1937
a(g1443
I01
tp1938
a(g1713
I01
tp1939
a(g1796
I01
tp1940
a(g1786
I00
tp1941
a(g1812
I01
tp1942
a(g1449
I01
tp1943
a(g1473
I01
tp1944
a(g1428
I00
tp1945
a(g1442
I01
tp1946
a(g1450
I01
tp1947
a(g1436
I00
tp1948
a(g1468
I00
tp1949
a(g1435
I01
tp1950
atp1951
Rp1952
s(g1450
I00
tp1953
g60
((lp1954
(g1445
I00
tp1955
a(g1486
I00
tp1956
a(g1430
I00
tp1957
a(S'integer'
p1958
I00
tp1959
a(g1834
I00
tp1960
a(g1477
I00
tp1961
atp1962
Rp1963
s(g1431
I01
tp1964
g60
((lp1965
(g1832
I00
tp1966
a(g1430
I00
tp1967
a(g1578
I00
tp1968
a(g1580
I01
tp1969
a(g1834
I00
tp1970
a(g1438
I00
tp1971
a(g1442
I01
tp1972
atp1973
Rp1974
s(g1450
I01
tp1975
g60
((lp1976
(S'real'
p1977
I01
tp1978
a(g1812
I01
tp1979
a(g1438
I00
tp1980
a(g1441
I01
tp1981
a(S'algebraic'
p1982
I01
tp1983
a(g1449
I01
tp1984
a(g1428
I00
tp1985
a(g1442
I01
tp1986
a(g1436
I00
tp1987
a(g1468
I00
tp1988
a(g1435
I01
tp1989
atp1990
Rp1991
s(S'complex'
p1992
I01
tp1993
g60
((lp1994
(g1442
I01
tp1995
a(g1436
I00
tp1996
a(g1812
I01
tp1997
atp1998
Rp1999
s(g1468
I01
tp2000
g60
((lp2001
(g1445
I00
tp2002
a(g1486
I00
tp2003
a(g1462
I00
tp2004
a(g1430
I00
tp2005
a(g1437
I00
tp2006
a(g1834
I00
tp2007
a(g1464
I01
tp2008
a(g1477
I00
tp2009
a(g1442
I01
tp2010
a(g1436
I00
tp2011
a(g1450
I00
tp2012
a(g1812
I01
tp2013
atp2014
Rp2015
s(g1733
I01
tp2016
g60
((lp2017
(S'even'
p2018
I01
tp2019
a(g1717
I01
tp2020
a(g1438
I00
tp2021
a(g1443
I01
tp2022
a(g1719
I01
tp2023
a(g1450
I01
tp2024
a(g1449
I01
tp2025
a(g1435
I01
tp2026
a(g1606
I01
tp2027
a(g1834
I00
tp2028
a(g1451
I00
tp2029
a(g1796
I00
tp2030
a(g1433
I00
tp2031
a(g1442
I01
tp2032
a(g1565
I00
tp2033
a(g1832
I00
tp2034
a(g1430
I00
tp2035
a(g1729
I01
tp2036
a(g1531
I01
tp2037
a(g1841
I00
tp2038
a(g1473
I01
tp2039
a(g1436
I00
tp2040
a(S'finite'
p2041
I01
tp2042
a(g1727
I01
tp2043
a(g1786
I00
tp2044
a(g1428
I00
tp2045
a(g1477
I00
tp2046
a(g1468
I00
tp2047
atp2048
Rp2049
s(g1802
I01
tp2050
g60
((lp2051
(g1436
I00
tp2052
a(g1438
I00
tp2053
a(g1514
I01
tp2054
a(g1516
I01
tp2055
a(g1442
I01
tp2056
a(S'complex'
p2057
I01
tp2058
a(g1435
I01
tp2059
atp2060
Rp2061
s(g1448
I00
tp2062
g60
((lp2063
tp2064
Rp2065
s(g1444
I01
tp2066
g60
((lp2067
(g1606
I01
tp2068
a(g1445
I00
tp2069
a(g1672
I01
tp2070
a(g1658
I00
tp2071
a(g1674
I01
tp2072
a(g1438
I00
tp2073
a(g1441
I01
tp2074
a(g1796
I01
tp2075
a(g1643
I01
tp2076
a(g1447
I01
tp2077
a(g1449
I01
tp2078
a(g1435
I01
tp2079
a(g1719
I01
tp2080
a(g1431
I00
tp2081
a(g1442
I01
tp2082
a(g1436
I00
tp2083
a(g1433
I00
tp2084
a(g1565
I00
tp2085
atp2086
Rp2087
s(g1803
I01
tp2088
g60
((lp2089
(g1445
I00
tp2090
a(g1426
I00
tp2091
a(g1705
I00
tp2092
a(g1800
I01
tp2093
a(g1433
I00
tp2094
a(g1834
I00
tp2095
a(g1451
I00
tp2096
a(g1429
I01
tp2097
a(g1434
I00
tp2098
a(g1565
I00
tp2099
a(g1442
I01
tp2100
a(g1812
I01
tp2101
a(g1832
I00
tp2102
a(g1430
I00
tp2103
a(g1486
I00
tp2104
a(g1701
I00
tp2105
a(g1436
I00
tp2106
a(g1841
I00
tp2107
a(g1729
I00
tp2108
a(g1441
I00
tp2109
a(g1786
I00
tp2110
a(g1437
I00
tp2111
a(g1428
I00
tp2112
a(g1477
I00
tp2113
a(g1431
I00
tp2114
a(g1450
I00
tp2115
atp2116
Rp2117
s(g1796
I01
tp2118
g60
((lp2119
(g1438
I00
tp2120
a(g1442
I01
tp2121
a(g1792
I01
tp2122
a(g1790
I00
tp2123
atp2124
Rp2125
s(g1451
I00
tp2126
g60
((lp2127
(g1444
I00
tp2128
a(g1834
I00
tp2129
a(g1430
I00
tp2130
atp2131
Rp2132
s(g1434
I00
tp2133
g60
((lp2134
(g1832
I00
tp2135
a(g1713
I00
tp2136
a(g1574
I00
tp2137
a(g1430
I00
tp2138
a(g1834
I00
tp2139
a(g1565
I00
tp2140
a(g1433
I00
tp2141
atp2142
Rp2143
s(g1713
I01
tp2144
g60
((lp2145
(g1426
I01
tp2146
a(g1445
I00
tp2147
a(g1452
I01
tp2148
a(g1438
I00
tp2149
a(g1441
I01
tp2150
a(g1434
I01
tp2151
a(g1449
I01
tp2152
a(g1442
I01
tp2153
a(g1436
I00
tp2154
a(g1435
I01
tp2155
atp2156
Rp2157
s(g1524
I00
tp2158
g60
((lp2159
tp2160
Rp2161
s(g1435
I01
tp2162
g60
((lp2163
tp2164
Rp2165
s(g1800
I00
tp2166
g60
((lp2167
(g1445
I00
tp2168
a(g1832
I00
tp2169
a(g1834
I00
tp2170
a(g1729
I00
tp2171
a(S'imaginary'
p2172
I00
tp2173
a(g1443
I00
tp2174
a(g1430
I00
tp2175
a(g1705
I00
tp2176
a(g1468
I00
tp2177
a(g1802
I00
tp2178
a(g1437
I00
tp2179
a(g1841
I00
tp2180
a(g1486
I00
tp2181
a(g1428
I00
tp2182
a(g1477
I00
tp2183
a(g1450
I00
tp2184
a(g1433
I00
tp2185
atp2186
Rp2187
s(g1442
I01
tp2188
g60
((lp2189
tp2190
Rp2191
s(g1446
I00
tp2192
g60
((lp2193
(g1686
I00
tp2194
atp2195
Rp2196
s(S'prime'
p2197
I01
tp2198
g60
((lp2199
(g1713
I01
tp2200
a(g1445
I00
tp2201
a(g1438
I00
tp2202
a(g1796
I01
tp2203
a(g1433
I00
tp2204
a(g1719
I01
tp2205
a(g1450
I01
tp2206
a(g1449
I01
tp2207
a(g1435
I01
tp2208
a(g1810
I01
tp2209
a(g1832
I01
tp2210
a(g1565
I00
tp2211
a(g1442
I01
tp2212
a(g1441
I01
tp2213
a(g1574
I01
tp2214
a(g1430
I00
tp2215
a(g1443
I01
tp2216
a(S'integer'
p2217
I01
tp2218
a(g1436
I00
tp2219
a(g1812
I01
tp2220
a(g1729
I00
tp2221
a(g1727
I01
tp2222
a(g1786
I00
tp2223
a(g1428
I00
tp2224
a(g1431
I00
tp2225
a(g1468
I00
tp2226
atp2227
Rp2228
s(S'positive'
p2229
I00
tp2230
g60
((lp2231
(g1834
I00
tp2232
a(g1430
I00
tp2233
atp2234
Rp2235
s(g1744
I00
tp2236
g60
((lp2237
tp2238
Rp2239
s(g1574
I01
tp2240
g60
((lp2241
(g1445
I00
tp2242
a(g1729
I00
tp2243
a(g1438
I00
tp2244
a(g1531
I01
tp2245
a(g1569
I01
tp2246
a(g1565
I00
tp2247
a(g1453
I01
tp2248
a(g1584
I00
tp2249
a(g1442
I01
tp2250
a(g1433
I00
tp2251
atp2252
Rp2253
s(g1636
I01
tp2254
g60
((lp2255
(g1652
I01
tp2256
a(g1654
I00
tp2257
a(g1430
I00
tp2258
a(g1451
I00
tp2259
a(g1441
I01
tp2260
a(g1834
I00
tp2261
a(g1449
I01
tp2262
a(g1431
I01
tp2263
a(g1438
I00
tp2264
a(g1442
I01
tp2265
a(g1436
I00
tp2266
a(g1435
I01
tp2267
a(g1690
I01
tp2268
atp2269
Rp2270
s(g2041
I00
tp2271
g60
((lp2272
(g1445
I00
tp2273
a(g1444
I00
tp2274
a(g1834
I00
tp2275
a(g1695
I00
tp2276
a(g1438
I00
tp2277
a(g1462
I00
tp2278
a(g1430
I00
tp2279
a(g1705
I00
tp2280
a(g1450
I00
tp2281
a(g1713
I00
tp2282
a(g1437
I00
tp2283
a(g1520
I00
tp2284
a(g1486
I00
tp2285
a(g1428
I00
tp2286
a(g1477
I00
tp2287
a(g1992
I00
tp2288
a(g1468
I00
tp2289
a(g1686
I00
tp2290
atp2291
Rp2292
s(g1441
I01
tp2293
g60
((lp2294
(g1438
I00
tp2295
a(S'commutative'
p2296
I01
tp2297
atp2298
Rp2299
s(g1429
I00
tp2300
g60
((lp2301
(g1803
I00
tp2302
atp2303
Rp2304
s(g1446
I01
tp2305
g60
((lp2306
(g1445
I00
tp2307
a(g1832
I00
tp2308
a(g1430
I00
tp2309
a(g1438
I00
tp2310
a(g1531
I01
tp2311
a(g1705
I00
tp2312
a(g1559
I01
tp2313
a(g1834
I00
tp2314
a(g1561
I01
tp2315
a(g1451
I00
tp2316
a(g1442
I01
tp2317
a(g1594
I00
tp2318
atp2319
Rp2320
s(g2018
I00
tp2321
g60
((lp2322
(g1445
I00
tp2323
atp2324
Rp2325
s(g1473
I01
tp2326
g60
((lp2327
(g1810
I01
tp2328
a(g1812
I01
tp2329
a(g1438
I00
tp2330
a(g1441
I01
tp2331
a(g1443
I01
tp2332
a(g1786
I00
tp2333
a(g1449
I01
tp2334
a(g1428
I00
tp2335
a(g1442
I01
tp2336
a(S'rational'
p2337
I01
tp2338
a(g1436
I00
tp2339
a(g1468
I00
tp2340
a(g1435
I01
tp2341
atp2342
Rp2343
s(g1442
I00
tp2344
g60
((lp2345
(g1445
I00
tp2346
a(g1426
I00
tp2347
a(g1438
I00
tp2348
a(g1705
I00
tp2349
a(g1433
I00
tp2350
a(g1834
I00
tp2351
a(g1451
I00
tp2352
a(g1462
I00
tp2353
a(g1434
I00
tp2354
a(g1565
I00
tp2355
a(S'complex'
p2356
I00
tp2357
a(g1832
I00
tp2358
a(g1430
I00
tp2359
a(g1486
I00
tp2360
a(g1431
I00
tp2361
a(g1841
I00
tp2362
a(g1729
I00
tp2363
a(S'extended_real'
p2364
I00
tp2365
a(g1468
I00
tp2366
a(g1786
I00
tp2367
a(g1437
I00
tp2368
a(g1428
I00
tp2369
a(g1477
I00
tp2370
a(g1701
I00
tp2371
a(g1450
I00
tp2372
atp2373
Rp2374
s(g1431
I00
tp2375
g60
((lp2376
(g1723
I00
tp2377
a(g1695
I00
tp2378
a(g1565
I00
tp2379
a(g1433
I00
tp2380
atp2381
Rp2382
s(g1428
I01
tp2383
g60
((lp2384
(g1772
I01
tp2385
a(g1445
I00
tp2386
a(g1430
I00
tp2387
a(g1834
I00
tp2388
a(g1438
I00
tp2389
a(g1441
I01
tp2390
a(g1796
I01
tp2391
a(g1713
I01
tp2392
a(g1437
I00
tp2393
a(g1486
I00
tp2394
a(g1449
I01
tp2395
a(g1477
I00
tp2396
a(g1442
I01
tp2397
a(g1786
I01
tp2398
a(g1436
I00
tp2399
a(g1450
I00
tp2400
a(g1435
I01
tp2401
a(g1812
I01
tp2402
atp2403
Rp2404
s(g1492
I00
tp2405
g60
((lp2406
tp2407
Rp2408
s(g1727
I01
tp2409
g60
((lp2410
(g1662
I01
tp2411
a(g1699
I01
tp2412
a(g1438
I00
tp2413
a(g1435
I01
tp2414
a(g1441
I01
tp2415
a(g1449
I01
tp2416
a(g1565
I00
tp2417
a(g1701
I01
tp2418
a(g1442
I01
tp2419
a(g1436
I00
tp2420
a(g1664
I00
tp2421
atp2422
Rp2423
s(g1634
I00
tp2424
g60
((lp2425
(g1648
I00
tp2426
a(g1834
I00
tp2427
a(g1433
I00
tp2428
a(g1430
I00
tp2429
atp2430
Rp2431
s(g1729
I00
tp2432
g60
((lp2433
(g1733
I00
tp2434
a(g1433
I00
tp2435
atp2436
Rp2437
s(g1468
I00
tp2438
g60
((lp2439
tp2440
Rp2441
s(g1430
I01
tp2442
g60
((lp2443
(g1713
I01
tp2444
a(g1445
I00
tp2445
a(g1438
I00
tp2446
a(g1443
I01
tp2447
a(g1433
I00
tp2448
a(g1719
I01
tp2449
a(g1450
I01
tp2450
a(g1449
I01
tp2451
a(g1435
I01
tp2452
a(g1810
I01
tp2453
a(g2197
I00
tp2454
a(g2229
I01
tp2455
a(g1565
I00
tp2456
a(g1442
I01
tp2457
a(g1574
I01
tp2458
a(g1441
I01
tp2459
a(g1796
I01
tp2460
a(g1437
I01
tp2461
a(g1436
I00
tp2462
a(g1812
I01
tp2463
a(g1729
I00
tp2464
a(g1727
I01
tp2465
a(g1786
I00
tp2466
a(g1428
I00
tp2467
a(g1431
I00
tp2468
a(g1468
I00
tp2469
atp2470
Rp2471
s(g1427
I01
tp2472
g60
((lp2473
tp2474
Rp2475
s(g1786
I00
tp2476
g60
((lp2477
tp2478
Rp2479
s(g1580
I00
tp2480
g60
((lp2481
(g1841
I00
tp2482
a(g1524
I00
tp2483
a(g1832
I00
tp2484
a(g1520
I00
tp2485
a(g1729
I00
tp2486
a(g1451
I00
tp2487
a(g1796
I00
tp2488
a(g1430
I00
tp2489
a(g1705
I00
tp2490
a(g1786
I00
tp2491
a(g1437
I00
tp2492
a(g1834
I00
tp2493
a(g1486
I00
tp2494
a(g1526
I00
tp2495
a(g1428
I00
tp2496
a(g1477
I00
tp2497
a(g1594
I00
tp2498
a(g1450
I00
tp2499
a(g1433
I00
tp2500
a(g1584
I00
tp2501
atp2502
Rp2503
s(g1437
I00
tp2504
g60
((lp2505
(g1445
I00
tp2506
a(g1430
I00
tp2507
a(g1486
I00
tp2508
a(g1834
I00
tp2509
a(g1477
I00
tp2510
atp2511
Rp2512
s(g1786
I01
tp2513
g60
((lp2514
(g1445
I00
tp2515
a(g1782
I01
tp2516
a(g1438
I00
tp2517
a(g1430
I00
tp2518
a(g1796
I01
tp2519
a(g1780
I00
tp2520
a(g1486
I00
tp2521
a(g1477
I00
tp2522
a(g1442
I01
tp2523
a(g1834
I00
tp2524
atp2525
Rp2526
s(g1439
I00
tp2527
g60
((lp2528
tp2529
Rp2530
s(g1436
I01
tp2531
g60
((lp2532
(g1801
I00
tp2533
a(g1445
I00
tp2534
a(g1832
I00
tp2535
a(g1834
I00
tp2536
a(g1729
I00
tp2537
a(g1438
I00
tp2538
a(g1462
I00
tp2539
a(g1430
I00
tp2540
a(g1705
I00
tp2541
a(g1468
I00
tp2542
a(g1426
I00
tp2543
a(g1437
I00
tp2544
a(g1841
I00
tp2545
a(g1486
I00
tp2546
a(g1428
I00
tp2547
a(g1477
I00
tp2548
a(g1800
I00
tp2549
a(g1450
I00
tp2550
a(g1433
I00
tp2551
atp2552
Rp2553
s(g1453
I00
tp2554
g60
((lp2555
(g1723
I00
tp2556
a(g1832
I00
tp2557
a(g1834
I00
tp2558
a(g1574
I00
tp2559
a(g1430
I00
tp2560
a(g1705
I00
tp2561
atp2562
Rp2563
s(g1982
I00
tp2564
g60
((lp2565
(g1445
I00
tp2566
a(g1834
I00
tp2567
a(g1430
I00
tp2568
a(g1437
I00
tp2569
a(g1486
I00
tp2570
a(g1477
I00
tp2571
a(S'rational'
p2572
I00
tp2573
atp2574
Rp2575
ssg1183
g407
(g60
tp2576
Rp2577
g1729
g60
((lp2578
g1426
ag2197
ag1580
ag1435
ag1442
ag1430
ag1444
ag1431
ag1433
ag1733
ag1800
ag1436
ag1574
ag2041
ag1803
atp2579
Rp2580
sg1445
g60
((lp2581
g1729
ag1435
ag1477
ag2018
ag1442
ag1444
ag1786
ag1433
ag1446
ag1450
ag1800
ag1468
ag2041
ag1453
ag1426
ag1713
ag1428
ag1430
ag1431
ag1796
ag1436
ag1437
ag1803
ag2197
ag1580
ag1982
ag1447
ag1574
atp2582
Rp2583
sg1477
g60
((lp2584
g1426
ag1432
ag1580
ag1428
ag1786
ag1435
ag1450
ag1982
ag1733
ag1800
ag1468
ag1436
ag1437
ag1803
ag2041
ag1442
atp2585
Rp2586
sg1841
g60
((lp2587
g1426
ag2197
ag1580
ag1428
ag1430
ag1444
ag1435
ag1433
ag1434
ag1733
ag1800
ag1436
ag1803
ag2041
ag1477
ag1442
atp2588
Rp2589
sg1442
g60
((lp2590
g1636
ag1733
ag1477
ag1713
ag1444
ag1786
ag1433
ag1446
ag1992
ag1450
ag1719
ag1802
ag1432
ag1428
ag1430
ag1431
ag1443
ag1473
ag1803
ag2197
ag1441
ag1796
ag1727
ag1574
ag1468
atp2591
Rp2592
sg1832
g60
((lp2593
g1426
ag2197
ag1580
ag1442
ag1636
ag1430
ag2041
ag1431
ag1435
ag1446
ag1433
ag1434
ag1733
ag1800
ag1453
ag1436
ag1803
ag1634
ag1451
ag1447
atp2594
Rp2595
sg1786
g60
((lp2596
g1432
ag2197
ag1580
ag1442
ag1430
ag1733
ag1473
ag1803
ag1477
ag1428
atp2597
Rp2598
sg1433
g60
((lp2599
g1426
ag2197
ag1580
ag1442
ag1729
ag1430
ag1444
ag1719
ag1435
ag1446
ag1727
ag1434
ag1733
ag1800
ag1431
ag1436
ag2041
ag1803
ag1634
ag1574
atp2600
Rp2601
sg1590
g60
((lp2602
g2197
ag1580
ag1442
ag1430
ag1444
ag1719
ag1433
ag1727
ag1434
ag1733
ag1431
ag1574
ag1803
atp2603
Rp2604
sg1449
g60
((lp2605
g1802
ag2197
ag2041
ag1428
ag1636
ag1430
ag1444
ag1432
ag1450
ag1433
ag1727
ag1443
ag1733
ag1468
ag1436
ag1473
ag1803
ag1713
ag1477
ag1442
atp2606
Rp2607
sg1450
g60
((lp2608
g1426
ag2197
ag1580
ag1428
ag1430
ag1432
ag1435
ag1982
ag1733
ag1800
ag1468
ag1436
ag1473
ag1803
ag2041
ag1477
ag1442
atp2609
Rp2610
sg1812
g60
((lp2611
g1802
ag2197
ag1428
ag1713
ag1636
ag1430
ag1444
ag1432
ag1433
ag1727
ag1443
ag1733
ag1992
ag1450
ag1436
ag1473
ag1803
ag1468
ag1477
atp2612
Rp2613
sg1701
g60
((lp2614
g2197
ag1580
ag1442
ag1430
ag1444
ag1433
ag1446
ag1727
ag1733
ag1803
ag1574
atp2615
Rp2616
sg1810
g60
((lp2617
g1713
ag1432
ag1580
ag1428
ag1636
ag1430
ag1444
ag1435
ag1433
ag2197
ag1733
ag1800
ag1450
ag1436
ag1473
ag1803
ag1727
ag1477
ag2041
ag1442
atp2618
Rp2619
sg1427
g60
((lp2620
tp2621
Rp2622
sg1428
g60
((lp2623
g1432
ag1426
ag1580
ag1442
ag1430
ag2197
ag1733
ag1435
ag1800
ag1450
ag1436
ag1473
ag1803
ag2041
ag1477
atp2624
Rp2625
sg1429
g60
((lp2626
g1803
atp2627
Rp2628
sg1430
g60
((lp2629
g1636
ag1733
ag1634
ag1442
ag2229
ag1786
ag1433
ag1446
ag1450
ag1800
ag1468
ag2041
ag1431
ag1426
ag1428
ag1453
ag1434
ag1436
ag1437
ag1803
ag2197
ag1580
ag1982
ag1435
ag1447
ag1451
atp2630
Rp2631
sg1431
g60
((lp2632
g2197
ag1580
ag1442
ag1636
ag1430
ag1444
ag1433
ag1446
ag1733
ag1803
ag1574
atp2633
Rp2634
sg1486
g60
((lp2635
g1426
ag1580
ag1428
ag1786
ag1435
ag1450
ag1982
ag1733
ag1800
ag1468
ag1436
ag1437
ag1803
ag2041
ag1477
ag1442
atp2636
Rp2637
sg1443
g60
((lp2638
g1432
ag2197
ag1450
ag1430
ag1733
ag1800
ag1468
ag1436
ag1473
ag2041
ag1477
ag1442
atp2639
Rp2640
sg1436
g60
((lp2641
g1802
ag2197
ag1801
ag1428
ag1636
ag1430
ag1444
ag1432
ag1433
ag1727
ag1443
ag1733
ag1992
ag1450
ag1473
ag1803
ag1713
ag1477
ag1468
atp2642
Rp2643
sg1481
g60
((lp2644
g1426
ag2197
ag1580
ag1435
ag1428
ag1430
ag1432
ag1786
ag1450
ag1982
ag1733
ag1800
ag1468
ag1436
ag1803
ag2041
ag1477
ag1442
atp2645
Rp2646
sg1438
g60
((lp2647
g1636
ag1733
ag1477
ag1713
ag1442
ag1444
ag1786
ag1433
ag1446
ag1800
ag1450
ag2041
ag1719
ag1802
ag1432
ag1428
ag1429
ag1430
ag1431
ag1796
ag1436
ag1473
ag2197
ag1441
ag1727
ag1574
atp2648
Rp2649
sg1834
g60
((lp2650
g1636
ag1733
ag1634
ag1442
ag2229
ag1786
ag1433
ag1446
ag1450
ag1800
ag1468
ag2041
ag1431
ag1426
ag1428
ag1430
ag1453
ag1434
ag1436
ag1437
ag1803
ag1580
ag1982
ag1435
ag1447
ag1451
atp2651
Rp2652
sg1441
g60
((lp2653
g1636
ag1733
ag1477
ag1713
ag1442
ag1444
ag1786
ag1433
ag1446
ag1450
ag1719
ag1802
ag1432
ag1428
ag1430
ag1431
ag1796
ag1473
ag1803
ag2197
ag1727
ag1574
atp2654
Rp2655
sg1796
g60
((lp2656
g1713
ag2197
ag1580
ag1442
ag1430
ag1444
ag1786
ag1433
ag1446
ag1733
ag1803
ag1477
ag1574
ag1428
atp2657
Rp2658
sg1435
g60
((lp2659
g1432
ag1802
ag1428
ag1636
ag1430
ag1444
ag1433
ag1727
ag2197
ag1733
ag1450
ag1473
ag1713
ag1477
atp2660
Rp2661
sg1705
g60
((lp2662
g1426
ag2197
ag1580
ag1442
ag1430
ag1444
ag1453
ag1433
ag1446
ag1733
ag1800
ag1436
ag1435
ag2041
ag1803
atp2663
Rp2664
sg1451
g60
((lp2665
g2197
ag1580
ag1442
ag1636
ag1430
ag1444
ag1431
ag1433
ag1446
ag1434
ag1733
ag1803
ag1453
atp2666
Rp2667
sg1468
g60
((lp2668
g1432
ag2197
ag1442
ag1430
ag1443
ag1733
ag1800
ag1450
ag1436
ag1473
ag2041
ag1477
atp2669
Rp2670
ssg1279
g407
(g60
tp2671
Rp2672
(g1432
I01
tp2673
(lp2674
I8
aI9
aI10
aI13
aI14
aI16
aI17
aI18
aI21
aI22
aI23
aI24
aI25
aI26
aI27
aI30
aI31
aI33
aI36
as(g1435
I00
tp2675
(lp2676
I3
aI4
aI7
aI8
aI10
aI35
aI36
as(g1426
I00
tp2677
(lp2678
I3
aI4
aI7
aI8
aI10
aI35
aI36
as(g1719
I01
tp2679
(lp2680
I4
aI5
aI6
aI9
aI10
aI12
aI13
aI15
aI17
aI18
aI22
aI26
aI28
aI35
aI36
as(g1433
I01
tp2681
(lp2682
I0
aI34
aI35
as(g1803
I00
tp2683
g60
((lp2684
tp2685
Rp2686
s(g1447
I00
tp2687
(lp2688
I7
aI8
aI10
aI15
aI16
aI21
aI36
as(g1443
I01
tp2689
(lp2690
I3
aI5
aI6
aI23
aI24
aI25
aI26
aI27
as(g1602
I00
tp2691
(lp2692
I15
aI17
aI18
aI22
as(g1801
I01
tp2693
(lp2694
I3
aI5
aI6
aI23
aI24
aI25
aI26
aI27
as(g1477
I01
tp2695
(lp2696
I8
aI10
aI11
aI12
aI13
aI14
aI16
aI18
aI19
aI20
aI21
aI22
aI23
aI24
aI25
aI26
as(g1450
I00
tp2697
(lp2698
I7
aI8
aI10
aI15
aI16
aI18
aI34
aI35
aI36
as(g1431
I01
tp2699
(lp2700
I4
aI5
aI6
aI8
aI9
aI11
aI14
aI15
aI16
aI17
aI21
aI25
aI28
aI35
aI36
as(g1450
I01
tp2701
(lp2702
I8
aI9
aI10
aI13
aI14
aI16
aI17
aI18
aI21
aI22
aI23
aI24
aI25
aI26
aI27
aI35
aI36
as(g1992
I01
tp2703
(lp2704
I0
aI3
aI5
aI6
aI23
aI24
aI25
aI26
aI27
as(g1468
I01
tp2705
(lp2706
I3
aI5
aI6
aI7
aI8
aI10
aI15
aI16
aI18
aI23
aI24
aI25
aI26
aI27
aI34
aI35
aI36
as(g1733
I01
tp2707
(lp2708
s(g1802
I01
tp2709
(lp2710
I0
aI8
aI9
aI10
aI13
aI14
aI16
aI17
aI18
aI21
aI22
aI23
aI24
aI25
aI26
aI27
aI34
aI35
aI36
as(g1448
I00
tp2711
(lp2712
I30
aI32
aI33
as(g1444
I01
tp2713
(lp2714
I0
aI30
aI31
aI32
aI34
aI35
as(g1803
I01
tp2715
(lp2716
I0
as(g1796
I01
tp2717
(lp2718
I4
aI5
aI6
aI8
aI10
aI11
aI12
aI13
aI14
aI15
aI16
aI18
aI27
aI35
as(g1451
I00
tp2719
(lp2720
I7
aI8
aI9
aI13
aI15
aI16
aI17
aI21
as(g1434
I00
tp2721
(lp2722
I7
aI9
aI13
aI14
aI15
aI17
aI21
aI22
as(g1713
I01
tp2723
(lp2724
I0
aI8
aI10
aI11
aI12
aI13
aI14
aI16
aI18
aI19
aI20
aI21
aI22
aI23
aI24
aI25
aI26
aI34
aI35
as(g1524
I00
tp2725
(lp2726
I7
aI8
aI10
aI15
aI16
aI18
aI36
as(g1435
I01
tp2727
g60
((lp2728
tp2729
Rp2730
s(g1800
I00
tp2731
(lp2732
I3
aI4
aI7
aI8
aI10
aI35
aI36
as(g1442
I01
tp2733
g60
((lp2734
tp2735
Rp2736
s(g1446
I00
tp2737
(lp2738
I7
aI9
aI10
aI14
aI15
aI17
aI18
aI22
as(g2197
I01
tp2739
(lp2740
I1
aI2
as(g2229
I00
tp2741
(lp2742
I15
aI16
aI17
aI21
as(g1744
I00
tp2743
(lp2744
I31
aI32
aI33
as(g1574
I01
tp2745
(lp2746
I4
aI5
aI6
aI15
aI18
aI22
aI23
aI26
aI27
aI35
as(g1636
I01
tp2747
(lp2748
I0
aI8
aI9
aI11
aI14
aI16
aI17
aI19
aI22
aI24
aI26
aI27
aI28
aI29
aI34
aI35
aI36
as(g2041
I00
tp2749
(lp2750
I3
aI4
aI7
aI8
aI10
aI35
aI36
as(g1441
I01
tp2751
(lp2752
I4
aI5
aI6
aI8
aI9
aI10
aI13
aI14
aI35
aI36
as(g1429
I00
tp2753
(lp2754
s(g1446
I01
tp2755
(lp2756
I4
aI5
aI6
aI15
aI16
aI21
aI24
aI25
aI27
aI35
as(g2018
I00
tp2757
(lp2758
I1
aI7
aI8
aI10
aI15
aI16
aI18
aI36
as(g1473
I01
tp2759
(lp2760
I1
aI2
aI8
aI9
aI10
aI13
aI14
aI16
aI17
aI18
aI21
aI22
aI23
aI24
aI25
aI26
aI27
aI36
as(g1442
I00
tp2761
(lp2762
s(g1431
I00
tp2763
(lp2764
I7
aI10
aI14
aI15
aI18
aI22
aI36
as(g1428
I01
tp2765
(lp2766
I0
aI8
aI10
aI11
aI12
aI13
aI14
aI16
aI18
aI19
aI20
aI21
aI22
aI23
aI24
aI25
aI26
as(g1492
I00
tp2767
(lp2768
I3
aI5
as(g1727
I01
tp2769
(lp2770
I0
aI9
aI10
aI12
aI13
aI17
aI18
aI20
aI21
aI23
aI25
aI27
aI28
aI29
aI34
aI35
aI36
as(g1634
I00
tp2771
(lp2772
I15
aI17
aI21
aI22
as(g1729
I00
tp2773
(lp2774
I7
aI8
aI10
aI15
aI18
aI22
aI36
as(g1468
I00
tp2775
g60
((lp2776
tp2777
Rp2778
s(g1430
I01
tp2779
(lp2780
I1
aI2
as(g1427
I01
tp2781
g60
((lp2782
tp2783
Rp2784
s(g1786
I00
tp2785
g60
((lp2786
tp2787
Rp2788
s(g1580
I00
tp2789
(lp2790
s(g1437
I00
tp2791
(lp2792
I7
aI8
aI10
aI15
aI16
aI18
aI35
aI36
as(g1786
I01
tp2793
(lp2794
I4
aI5
aI6
aI8
aI10
aI11
aI12
aI13
aI14
aI15
aI16
aI18
aI27
as(g1439
I00
tp2795
(lp2796
I2
as(g1436
I01
tp2797
(lp2798
I7
aI8
aI10
aI35
aI36
as(g1453
I00
tp2799
(lp2800
I7
aI8
aI13
aI15
aI16
aI21
aI36
as(g1982
I00
tp2801
(lp2802
I0
aI7
aI8
aI10
aI15
aI16
aI18
aI34
aI35
aI36
assbsg1412
(dp2803
g1440
I01
sS'finite'
p2804
I01
ssbsbg1416
tp2805
Rp2806
(dp2807
bg5
(g15
(S'\\gamma'
p2808
tp2809
Rp2810
(dp2811
g20
g21
(g22
g23
(dp2812
g1426
I01
sg1427
Nsg1428
Nsg1429
Nsg1430
Nsg1431
Nsg1432
Nsg1433
Nsg1434
I01
sg1435
I01
sg1436
I00
sg1437
Nsg1438
I00
sg1439
Nsg1440
I01
sg1441
I01
sg1442
I01
sg1443
Nsg1444
Nsg1445
I00
sg1446
Nsg1447
Nsg1448
Nsg1449
I01
sg1450
Nsg1451
Nsg1452
I01
sg1453
Nstp2813
Rp2814
(dp2815
g52
g1458
sg1412
(dp2816
g1440
I01
sg2804
I01
ssbsbg1416
tp2817
Rp2818
(dp2819
btp2820
Rp2821
(dp2822
b.