csympy.core.mul
Mul
p0
(csympy.core.numbers
Rational
p1
(I-4
I3
tp2
Rp3
(dp4
bcsympy.core.power
Pow
p5
(csympy.core.numbers
Integer
p6
(I6
tp7
Rp8
(dp9
bcsympy.core.numbers
Half
p10
(I1
I2
tp11
Rp12
(dp13
btp14
Rp15
(dp16
bg5
(csympy.core.numbers
Pi
p17
(tRp18
(dp19
bg6
(I2
tp20
Rp21
(dp22
btp23
Rp24
(dp25
bg5
(csympy.core.symbol
Symbol
p26
(S'\\gamma'
p27
tp28
Rp29
(dp30
S'_assumptions'
p31
ccopy_reg
_reconstructor
p32
(csympy.core.assumptions
StdFactKB
p33
c__builtin__
dict
p34
(dp35
S'real'
p36
I01
sS'polar'
p37
NsS'irrational'
p38
NsS'antihermitian'
p39
NsS'composite'
p40
NsS'extended_nonnegative'
p41
NsS'even'
p42
NsS'negative'
p43
NsS'algebraic'
p44
NsS'hermitian'
p45
I01
sS'infinite'
p46
I00
sS'integer'
p47
NsS'imaginary'
p48
I00
sS'odd'
p49
NsS'nonzero'
p50
I01
sS'extended_real'
p51
I01
sS'commutative'
p52
I01
sS'extended_nonzero'
p53
I01
sS'positive'
p54
NsS'zero'
p55
I00
sS'extended_negative'
p56
NsS'nonnegative'
p57
NsS'prime'
p58
NsS'complex'
p59
I01
sS'rational'
p60
NsS'extended_positive'
p61
NsS'finite'
p62
I01
sS'extended_nonpositive'
p63
Nstp64
Rp65
(dp66
S'rules'
p67
g32
(csympy.core.facts
FactRules
p68
c__builtin__
object
p69
Ntp70
Rp71
(dp72
S'beta_rules'
p73
(lp74
(c__builtin__
set
p75
((lp76
(S'algebraic'
p77
I00
tp78
a(S'complex'
p79
I01
tp80
atp81
Rp82
(S'transcendental'
p83
I01
tp84
tp85
a(g75
((lp86
(g42
I00
tp87
a(S'integer'
p88
I01
tp89
atp90
Rp91
(S'odd'
p92
I01
tp93
tp94
a(g75
((lp95
(S'integer'
p96
I01
tp97
a(g49
I00
tp98
atp99
Rp100
(S'even'
p101
I01
tp102
tp103
a(g75
((lp104
(S'infinite'
p105
I00
tp106
a(S'real'
p107
I00
tp108
atp109
Rp110
(S'extended_real'
p111
I00
tp112
tp113
a(g75
((lp114
(g111
I01
tp115
a(g107
I00
tp116
atp117
Rp118
(g105
I01
tp119
tp120
a(g75
((lp121
(g111
I01
tp122
a(g105
I00
tp123
atp124
Rp125
(g107
I01
tp126
tp127
a(g75
((lp128
(S'extended_real'
p129
I01
tp130
a(S'finite'
p131
I01
tp132
atp133
Rp134
(S'real'
p135
I01
tp136
tp137
a(g75
((lp138
(S'zero'
p139
I00
tp140
a(S'extended_negative'
p141
I00
tp142
a(g61
I00
tp143
atp144
Rp145
(S'extended_real'
p146
I00
tp147
tp148
a(g75
((lp149
(g139
I00
tp150
a(g146
I01
tp151
a(g61
I00
tp152
atp153
Rp154
(g141
I01
tp155
tp156
a(g75
((lp157
(g61
I00
tp158
a(g146
I01
tp159
a(g141
I00
tp160
atp161
Rp162
(g139
I01
tp163
tp164
a(g75
((lp165
(g139
I00
tp166
a(g146
I01
tp167
a(g141
I00
tp168
atp169
Rp170
(g61
I01
tp171
tp172
a(g75
((lp173
(S'extended_nonzero'
p174
I01
tp175
a(S'extended_nonpositive'
p176
I01
tp177
atp178
Rp179
(S'extended_negative'
p180
I01
tp181
tp182
a(g75
((lp183
(S'extended_nonzero'
p184
I01
tp185
a(g41
I01
tp186
atp187
Rp188
(S'extended_positive'
p189
I01
tp190
tp191
a(g75
((lp192
(S'extended_positive'
p193
I00
tp194
a(S'extended_real'
p195
I01
tp196
atp197
Rp198
(S'extended_nonpositive'
p199
I01
tp200
tp201
a(g75
((lp202
(S'extended_real'
p203
I01
tp204
a(S'extended_negative'
p205
I00
tp206
atp207
Rp208
(S'extended_nonnegative'
p209
I01
tp210
tp211
a(g75
((lp212
(S'zero'
p213
I00
tp214
a(S'positive'
p215
I00
tp216
a(S'negative'
p217
I00
tp218
atp219
Rp220
(S'real'
p221
I00
tp222
tp223
a(g75
((lp224
(g221
I01
tp225
a(g213
I00
tp226
a(g215
I00
tp227
atp228
Rp229
(g217
I01
tp230
tp231
a(g75
((lp232
(g221
I01
tp233
a(g215
I00
tp234
a(g217
I00
tp235
atp236
Rp237
(g213
I01
tp238
tp239
a(g75
((lp240
(g221
I01
tp241
a(g213
I00
tp242
a(g217
I00
tp243
atp244
Rp245
(g215
I01
tp246
tp247
a(g75
((lp248
(S'nonzero'
p249
I01
tp250
a(S'nonpositive'
p251
I01
tp252
atp253
Rp254
(g43
I01
tp255
tp256
a(g75
((lp257
(S'nonzero'
p258
I01
tp259
a(g57
I01
tp260
atp261
Rp262
(S'positive'
p263
I01
tp264
tp265
a(g75
((lp266
(S'real'
p267
I01
tp268
a(S'positive'
p269
I00
tp270
atp271
Rp272
(S'nonpositive'
p273
I01
tp274
tp275
a(g75
((lp276
(S'real'
p277
I01
tp278
a(S'negative'
p279
I00
tp280
atp281
Rp282
(S'nonnegative'
p283
I01
tp284
tp285
a(g75
((lp286
(S'finite'
p287
I01
tp288
a(S'extended_positive'
p289
I01
tp290
atp291
Rp292
(g54
I01
tp293
tp294
a(g75
((lp295
(g56
I01
tp296
a(S'finite'
p297
I01
tp298
atp299
Rp300
(S'negative'
p301
I01
tp302
tp303
a(g75
((lp304
(S'finite'
p305
I01
tp306
a(g63
I01
tp307
atp308
Rp309
(S'nonpositive'
p310
I01
tp311
tp312
a(g75
((lp313
(S'finite'
p314
I01
tp315
a(S'extended_nonnegative'
p316
I01
tp317
atp318
Rp319
(S'nonnegative'
p320
I01
tp321
tp322
a(g75
((lp323
(g62
I01
tp324
a(g53
I01
tp325
atp326
Rp327
(S'nonzero'
p328
I01
tp329
tp330
a(g75
((lp331
(S'extended_nonnegative'
p332
I01
tp333
a(S'extended_nonpositive'
p334
I01
tp335
atp336
Rp337
(S'zero'
p338
I01
tp339
tp340
a(g75
((lp341
(S'nonpositive'
p342
I01
tp343
a(S'nonnegative'
p344
I01
tp345
atp346
Rp347
(S'zero'
p348
I01
tp349
tp350
a(g75
((lp351
(S'even'
p352
I01
tp353
a(g58
I00
tp354
a(S'positive'
p355
I01
tp356
atp357
Rp358
(S'composite'
p359
I01
tp360
tp361
a(g75
((lp362
(g352
I01
tp363
a(g359
I00
tp364
a(g355
I01
tp365
atp366
Rp367
(g58
I01
tp368
tp369
a(g75
((lp370
(g359
I00
tp371
a(g58
I00
tp372
a(g355
I01
tp373
atp374
Rp375
(g352
I00
tp376
tp377
a(g75
((lp378
(g352
I01
tp379
a(g359
I00
tp380
a(g58
I00
tp381
atp382
Rp383
(g355
I00
tp384
tp385
a(g75
((lp386
(S'real'
p387
I01
tp388
a(g60
I00
tp389
atp390
Rp391
(g38
I01
tp392
tp393
a(g75
((lp394
(S'integer'
p395
I00
tp396
a(S'extended_real'
p397
I01
tp398
atp399
Rp400
(S'noninteger'
p401
I01
tp402
tp403
a(g75
((lp404
(S'zero'
p405
I00
tp406
a(S'extended_real'
p407
I01
tp408
atp409
Rp410
(S'extended_nonzero'
p411
I01
tp412
tp413
asS'defined_facts'
p414
g75
((lp415
g342
ag45
ag49
ag42
ag52
ag54
ag401
ag43
ag56
aS'complex'
p416
ag60
aS'finite'
p417
ag41
aS'real'
p418
ag328
ag38
ag39
ag40
ag63
ag53
ag105
ag47
aS'imaginary'
p419
ag58
ag51
ag44
ag348
ag57
ag61
ag83
atp420
Rp421
sS'full_implications'
p422
ccollections
defaultdict
p423
(g75
tp424
Rp425
(g42
I01
tp426
g75
((lp427
(S'real'
p428
I01
tp429
a(S'finite'
p430
I01
tp431
a(g48
I00
tp432
a(g51
I01
tp433
a(g44
I01
tp434
a(g401
I00
tp435
a(g46
I00
tp436
a(g96
I01
tp437
a(g38
I00
tp438
a(g92
I00
tp439
a(g52
I01
tp440
a(g60
I01
tp441
a(g59
I01
tp442
a(g83
I00
tp443
a(g45
I01
tp444
atp445
Rp446
s(g45
I00
tp447
g75
((lp448
(g55
I00
tp449
a(S'positive'
p450
I00
tp451
a(S'prime'
p452
I00
tp453
a(g342
I00
tp454
a(g40
I00
tp455
a(g320
I00
tp456
a(S'nonzero'
p457
I00
tp458
a(g47
I00
tp459
a(g428
I00
tp460
a(g101
I00
tp461
a(g38
I00
tp462
a(g92
I00
tp463
a(g60
I00
tp464
a(g43
I00
tp465
atp466
Rp467
s(g36
I00
tp468
g75
((lp469
(g213
I00
tp470
a(g215
I00
tp471
a(g457
I00
tp472
a(g273
I00
tp473
a(g40
I00
tp474
a(g283
I00
tp475
a(g47
I00
tp476
a(g452
I00
tp477
a(g101
I00
tp478
a(g38
I00
tp479
a(g92
I00
tp480
a(S'rational'
p481
I00
tp482
a(g217
I00
tp483
atp484
Rp485
s(g332
I01
tp486
g75
((lp487
(g48
I00
tp488
a(g203
I01
tp489
a(g205
I00
tp490
a(g43
I00
tp491
a(g52
I01
tp492
atp493
Rp494
s(g43
I01
tp495
g75
((lp496
(g221
I01
tp497
a(g249
I01
tp498
a(g450
I00
tp499
a(g452
I00
tp500
a(g251
I01
tp501
a(g40
I00
tp502
a(g61
I00
tp503
a(g51
I01
tp504
a(g283
I00
tp505
a(g411
I01
tp506
a(g59
I01
tp507
a(g56
I01
tp508
a(g297
I01
tp509
a(g55
I00
tp510
a(g63
I01
tp511
a(g48
I00
tp512
a(g52
I01
tp513
a(g46
I00
tp514
a(g45
I01
tp515
a(g316
I00
tp516
atp517
Rp518
s(g419
I00
tp519
g75
((lp520
tp521
Rp522
s(g57
I00
tp523
g75
((lp524
(g348
I00
tp525
a(g263
I00
tp526
a(g452
I00
tp527
a(g40
I00
tp528
atp529
Rp530
s(g44
I01
tp531
g75
((lp532
(g52
I01
tp533
a(g46
I00
tp534
a(g59
I01
tp535
a(g83
I00
tp536
a(g430
I01
tp537
atp538
Rp539
s(g249
I00
tp540
g75
((lp541
(g263
I00
tp542
a(g452
I00
tp543
a(g43
I00
tp544
a(g40
I00
tp545
atp546
Rp547
s(g92
I01
tp548
g75
((lp549
(g428
I01
tp550
a(g55
I00
tp551
a(g42
I00
tp552
a(g48
I00
tp553
a(g51
I01
tp554
a(g44
I01
tp555
a(g328
I01
tp556
a(g411
I01
tp557
a(g401
I00
tp558
a(g46
I00
tp559
a(g430
I01
tp560
a(g88
I01
tp561
a(g38
I00
tp562
a(g52
I01
tp563
a(g60
I01
tp564
a(g59
I01
tp565
a(g83
I00
tp566
a(g45
I01
tp567
atp568
Rp569
s(g63
I01
tp570
g75
((lp571
(g450
I00
tp572
a(g40
I00
tp573
a(g193
I00
tp574
a(g195
I01
tp575
a(g452
I00
tp576
a(g48
I00
tp577
a(g52
I01
tp578
atp579
Rp580
s(g83
I01
tp581
g75
((lp582
(g55
I00
tp583
a(g452
I00
tp584
a(g46
I00
tp585
a(g77
I00
tp586
a(g40
I00
tp587
a(g47
I00
tp588
a(g101
I00
tp589
a(g92
I00
tp590
a(g52
I01
tp591
a(g79
I01
tp592
a(g60
I00
tp593
a(g430
I01
tp594
atp595
Rp596
s(S'complex'
p597
I01
tp598
g75
((lp599
(g52
I01
tp600
a(g46
I00
tp601
a(g430
I01
tp602
atp603
Rp604
s(g60
I01
tp605
g75
((lp606
(S'real'
p607
I01
tp608
a(g430
I01
tp609
a(g48
I00
tp610
a(g51
I01
tp611
a(S'algebraic'
p612
I01
tp613
a(g46
I00
tp614
a(g38
I00
tp615
a(g52
I01
tp616
a(g59
I01
tp617
a(g83
I00
tp618
a(g45
I01
tp619
atp620
Rp621
s(g348
I01
tp622
g75
((lp623
(S'even'
p624
I01
tp625
a(g332
I01
tp626
a(g48
I00
tp627
a(g44
I01
tp628
a(g334
I01
tp629
a(g60
I01
tp630
a(g59
I01
tp631
a(g43
I00
tp632
a(g221
I01
tp633
a(g452
I00
tp634
a(g61
I00
tp635
a(g411
I00
tp636
a(g45
I01
tp637
a(g52
I01
tp638
a(g180
I00
tp639
a(g450
I00
tp640
a(g40
I00
tp641
a(g342
I01
tp642
a(g146
I01
tp643
a(S'finite'
p644
I01
tp645
a(g88
I01
tp646
a(g46
I00
tp647
a(g457
I00
tp648
a(g344
I01
tp649
a(g401
I00
tp650
a(g38
I00
tp651
a(g92
I00
tp652
a(g83
I00
tp653
atp654
Rp655
s(g418
I01
tp656
g75
((lp657
(S'complex'
p658
I01
tp659
a(g48
I00
tp660
a(g129
I01
tp661
a(g131
I01
tp662
a(g52
I01
tp663
a(g46
I00
tp664
a(g45
I01
tp665
atp666
Rp667
s(g58
I00
tp668
g75
((lp669
tp670
Rp671
s(g39
I00
tp672
g75
((lp673
(g419
I00
tp674
atp675
Rp676
s(g54
I01
tp677
g75
((lp678
(g221
I01
tp679
a(g55
I00
tp680
a(g287
I01
tp681
a(g273
I00
tp682
a(g289
I01
tp683
a(g48
I00
tp684
a(g51
I01
tp685
a(g411
I01
tp686
a(g258
I01
tp687
a(g57
I01
tp688
a(g46
I00
tp689
a(g43
I00
tp690
a(g332
I01
tp691
a(g52
I01
tp692
a(g63
I00
tp693
a(g59
I01
tp694
a(g45
I01
tp695
a(g180
I00
tp696
atp697
Rp698
s(g419
I01
tp699
g75
((lp700
(g55
I00
tp701
a(g36
I00
tp702
a(g320
I00
tp703
a(g416
I01
tp704
a(g43
I00
tp705
a(g452
I00
tp706
a(g61
I00
tp707
a(g39
I01
tp708
a(g180
I00
tp709
a(g52
I01
tp710
a(g430
I01
tp711
a(g450
I00
tp712
a(g40
I00
tp713
a(g101
I00
tp714
a(g63
I00
tp715
a(g46
I00
tp716
a(g457
I00
tp717
a(g342
I00
tp718
a(g51
I00
tp719
a(g60
I00
tp720
a(g401
I00
tp721
a(g47
I00
tp722
a(g38
I00
tp723
a(g92
I00
tp724
a(g316
I00
tp725
a(g53
I00
tp726
atp727
Rp728
s(g61
I00
tp729
g75
((lp730
(g54
I00
tp731
a(g452
I00
tp732
a(g40
I00
tp733
atp734
Rp735
s(g53
I00
tp736
g75
((lp737
(g450
I00
tp738
a(g328
I00
tp739
a(g189
I00
tp740
a(g40
I00
tp741
a(g452
I00
tp742
a(g180
I00
tp743
a(g43
I00
tp744
atp745
Rp746
s(g328
I01
tp747
g75
((lp748
(g36
I01
tp749
a(g55
I00
tp750
a(g62
I01
tp751
a(g48
I00
tp752
a(g51
I01
tp753
a(g53
I01
tp754
a(g46
I00
tp755
a(g52
I01
tp756
a(g59
I01
tp757
a(g45
I01
tp758
atp759
Rp760
s(g139
I00
tp761
g75
((lp762
tp763
Rp764
s(g217
I00
tp765
g75
((lp766
tp767
Rp768
s(g416
I00
tp769
g75
((lp770
(g55
I00
tp771
a(g450
I00
tp772
a(g452
I00
tp773
a(g342
I00
tp774
a(S'imaginary'
p775
I00
tp776
a(g44
I00
tp777
a(g40
I00
tp778
a(g320
I00
tp779
a(g60
I00
tp780
a(g457
I00
tp781
a(g47
I00
tp782
a(g418
I00
tp783
a(g101
I00
tp784
a(g38
I00
tp785
a(g92
I00
tp786
a(g83
I00
tp787
a(g43
I00
tp788
atp789
Rp790
s(g52
I01
tp791
g75
((lp792
tp793
Rp794
s(g56
I00
tp795
g75
((lp796
(g301
I00
tp797
atp798
Rp799
s(S'prime'
p800
I01
tp801
g75
((lp802
(g328
I01
tp803
a(g55
I00
tp804
a(g48
I00
tp805
a(g411
I01
tp806
a(g43
I00
tp807
a(g332
I01
tp808
a(g60
I01
tp809
a(g59
I01
tp810
a(g45
I01
tp811
a(g428
I01
tp812
a(g450
I01
tp813
a(g180
I00
tp814
a(g52
I01
tp815
a(g51
I01
tp816
a(g189
I01
tp817
a(g40
I00
tp818
a(g44
I01
tp819
a(S'integer'
p820
I01
tp821
a(g46
I00
tp822
a(g430
I01
tp823
a(g342
I00
tp824
a(g344
I01
tp825
a(g401
I00
tp826
a(g38
I00
tp827
a(g63
I00
tp828
a(g83
I00
tp829
atp830
Rp831
s(g612
I00
tp832
g75
((lp833
(g55
I00
tp834
a(g452
I00
tp835
a(g40
I00
tp836
a(g47
I00
tp837
a(g101
I00
tp838
a(g92
I00
tp839
a(S'rational'
p840
I00
tp841
atp842
Rp843
s(S'positive'
p844
I00
tp845
g75
((lp846
(g40
I00
tp847
a(g452
I00
tp848
atp849
Rp850
s(g51
I01
tp851
g75
((lp852
(g48
I00
tp853
a(S'commutative'
p854
I01
tp855
atp856
Rp857
s(g189
I01
tp858
g75
((lp859
(g55
I00
tp860
a(g342
I00
tp861
a(g48
I00
tp862
a(g146
I01
tp863
a(g184
I01
tp864
a(g180
I00
tp865
a(g41
I01
tp866
a(g52
I01
tp867
a(g199
I00
tp868
a(g43
I00
tp869
atp870
Rp871
s(g251
I01
tp872
g75
((lp873
(g267
I01
tp874
a(g269
I00
tp875
a(g452
I00
tp876
a(g51
I01
tp877
a(g61
I00
tp878
a(g40
I00
tp879
a(g46
I00
tp880
a(g305
I01
tp881
a(g63
I01
tp882
a(g48
I00
tp883
a(g52
I01
tp884
a(g59
I01
tp885
a(g45
I01
tp886
atp887
Rp888
s(g45
I01
tp889
g75
((lp890
tp891
Rp892
s(g359
I00
tp893
g75
((lp894
tp895
Rp896
s(g411
I01
tp897
g75
((lp898
(g48
I00
tp899
a(g407
I01
tp900
a(g405
I00
tp901
a(g52
I01
tp902
atp903
Rp904
s(g56
I01
tp905
g75
((lp906
(g55
I00
tp907
a(g450
I00
tp908
a(g40
I00
tp909
a(g48
I00
tp910
a(g146
I01
tp911
a(g320
I00
tp912
a(g174
I01
tp913
a(g452
I00
tp914
a(g176
I01
tp915
a(g61
I00
tp916
a(g52
I01
tp917
a(g209
I00
tp918
atp919
Rp920
s(g624
I00
tp921
g75
((lp922
(g55
I00
tp923
atp924
Rp925
s(g88
I01
tp926
g75
((lp927
(g428
I01
tp928
a(g430
I01
tp929
a(g48
I00
tp930
a(g51
I01
tp931
a(g44
I01
tp932
a(g401
I00
tp933
a(g46
I00
tp934
a(g38
I00
tp935
a(g52
I01
tp936
a(S'rational'
p937
I01
tp938
a(g59
I01
tp939
a(g83
I00
tp940
a(g45
I01
tp941
atp942
Rp943
s(g52
I00
tp944
g75
((lp945
(g55
I00
tp946
a(g36
I00
tp947
a(g48
I00
tp948
a(g320
I00
tp949
a(g43
I00
tp950
a(g452
I00
tp951
a(g61
I00
tp952
a(g77
I00
tp953
a(g53
I00
tp954
a(g180
I00
tp955
a(S'complex'
p956
I00
tp957
a(g450
I00
tp958
a(g40
I00
tp959
a(g101
I00
tp960
a(g316
I00
tp961
a(g457
I00
tp962
a(g342
I00
tp963
a(S'extended_real'
p964
I00
tp965
a(g60
I00
tp966
a(g401
I00
tp967
a(g47
I00
tp968
a(g38
I00
tp969
a(g92
I00
tp970
a(g63
I00
tp971
a(g83
I00
tp972
atp973
Rp974
s(g41
I00
tp975
g75
((lp976
(g338
I00
tp977
a(g450
I00
tp978
a(g452
I00
tp979
a(g189
I00
tp980
a(g40
I00
tp981
a(g320
I00
tp982
atp983
Rp984
s(g38
I01
tp985
g75
((lp986
(g387
I01
tp987
a(g55
I00
tp988
a(g40
I00
tp989
a(g46
I00
tp990
a(g48
I00
tp991
a(g51
I01
tp992
a(g101
I00
tp993
a(g411
I01
tp994
a(g328
I01
tp995
a(g47
I00
tp996
a(g452
I00
tp997
a(g92
I00
tp998
a(g52
I01
tp999
a(g401
I01
tp1000
a(g59
I01
tp1001
a(g60
I00
tp1002
a(g45
I01
tp1003
a(g430
I01
tp1004
atp1005
Rp1006
s(g105
I00
tp1007
g75
((lp1008
tp1009
Rp1010
s(g37
I01
tp1011
g75
((lp1012
tp1013
Rp1014
s(g417
I01
tp1015
g75
((lp1016
(g46
I00
tp1017
atp1018
Rp1019
s(g342
I00
tp1020
g75
((lp1021
(g348
I00
tp1022
a(g43
I00
tp1023
atp1024
Rp1025
s(g83
I00
tp1026
g75
((lp1027
tp1028
Rp1029
s(g40
I01
tp1030
g75
((lp1031
(g328
I01
tp1032
a(g55
I00
tp1033
a(g48
I00
tp1034
a(g44
I01
tp1035
a(g43
I00
tp1036
a(g332
I01
tp1037
a(g60
I01
tp1038
a(g59
I01
tp1039
a(g45
I01
tp1040
a(g428
I01
tp1041
a(g800
I00
tp1042
a(g844
I01
tp1043
a(g180
I00
tp1044
a(g52
I01
tp1045
a(g189
I01
tp1046
a(g51
I01
tp1047
a(g411
I01
tp1048
a(g47
I01
tp1049
a(g46
I00
tp1050
a(g430
I01
tp1051
a(g342
I00
tp1052
a(g344
I01
tp1053
a(g401
I00
tp1054
a(g38
I00
tp1055
a(g63
I00
tp1056
a(g83
I00
tp1057
atp1058
Rp1059
s(g644
I00
tp1060
g75
((lp1061
(g55
I00
tp1062
a(g54
I00
tp1063
a(g452
I00
tp1064
a(g310
I00
tp1065
a(g48
I00
tp1066
a(g77
I00
tp1067
a(g40
I00
tp1068
a(g320
I00
tp1069
a(g83
I00
tp1070
a(g135
I00
tp1071
a(g47
I00
tp1072
a(g328
I00
tp1073
a(g101
I00
tp1074
a(g38
I00
tp1075
a(g92
I00
tp1076
a(g597
I00
tp1077
a(g60
I00
tp1078
a(g301
I00
tp1079
atp1080
Rp1081
s(g344
I01
tp1082
g75
((lp1083
(g277
I01
tp1084
a(g314
I01
tp1085
a(g48
I00
tp1086
a(g51
I01
tp1087
a(g279
I00
tp1088
a(g46
I00
tp1089
a(g180
I00
tp1090
a(g316
I01
tp1091
a(g52
I01
tp1092
a(g59
I01
tp1093
a(g45
I01
tp1094
atp1095
Rp1096
s(g401
I00
tp1097
g75
((lp1098
tp1099
Rp1100
s(g195
I00
tp1101
g75
((lp1102
(g139
I00
tp1103
a(g450
I00
tp1104
a(g135
I00
tp1105
a(g342
I00
tp1106
a(g61
I00
tp1107
a(g411
I00
tp1108
a(g40
I00
tp1109
a(g320
I00
tp1110
a(g452
I00
tp1111
a(g401
I00
tp1112
a(g47
I00
tp1113
a(g457
I00
tp1114
a(g101
I00
tp1115
a(g141
I00
tp1116
a(g38
I00
tp1117
a(g92
I00
tp1118
a(g209
I00
tp1119
a(g60
I00
tp1120
a(g43
I00
tp1121
a(g199
I00
tp1122
atp1123
Rp1124
s(g47
I00
tp1125
g75
((lp1126
(g55
I00
tp1127
a(g40
I00
tp1128
a(g101
I00
tp1129
a(g452
I00
tp1130
a(g92
I00
tp1131
atp1132
Rp1133
s(g401
I01
tp1134
g75
((lp1135
(g55
I00
tp1136
a(g397
I01
tp1137
a(g48
I00
tp1138
a(g40
I00
tp1139
a(g411
I01
tp1140
a(g395
I00
tp1141
a(g101
I00
tp1142
a(g92
I00
tp1143
a(g52
I01
tp1144
a(g452
I00
tp1145
atp1146
Rp1147
s(g49
I00
tp1148
g75
((lp1149
tp1150
Rp1151
s(g46
I01
tp1152
g75
((lp1153
(g417
I00
tp1154
a(g55
I00
tp1155
a(g450
I00
tp1156
a(g452
I00
tp1157
a(g342
I00
tp1158
a(g48
I00
tp1159
a(g77
I00
tp1160
a(g40
I00
tp1161
a(g320
I00
tp1162
a(g60
I00
tp1163
a(g457
I00
tp1164
a(g47
I00
tp1165
a(g36
I00
tp1166
a(g101
I00
tp1167
a(g38
I00
tp1168
a(g92
I00
tp1169
a(g416
I00
tp1170
a(g83
I00
tp1171
a(g43
I00
tp1172
atp1173
Rp1174
s(g63
I00
tp1175
g75
((lp1176
(g338
I00
tp1177
a(g310
I00
tp1178
a(g180
I00
tp1179
a(g43
I00
tp1180
atp1181
Rp1182
s(g60
I00
tp1183
g75
((lp1184
(g55
I00
tp1185
a(g101
I00
tp1186
a(g40
I00
tp1187
a(S'integer'
p1188
I00
tp1189
a(g452
I00
tp1190
a(g92
I00
tp1191
atp1192
Rp1193
ssS'prereq'
p1194
g423
(g75
tp1195
Rp1196
g342
g75
((lp1197
g36
ag800
ag195
ag52
ag348
ag40
ag54
ag63
ag43
ag45
ag416
ag46
ag189
ag644
ag419
atp1198
Rp1199
sg55
g75
((lp1200
g342
ag45
ag92
ag38
ag624
ag52
ag54
ag401
ag43
ag56
ag416
ag60
ag644
ag63
ag36
ag328
ag83
ag40
ag41
ag411
ag46
ag47
ag419
ag800
ag195
ag612
ag57
ag189
atp1201
Rp1202
sg92
g75
((lp1203
g36
ag42
ag195
ag38
ag401
ag348
ag612
ag45
ag416
ag60
ag46
ag47
ag419
ag83
ag644
ag52
atp1204
Rp1205
sg457
g75
((lp1206
g36
ag800
ag195
ag38
ag348
ag40
ag54
ag43
ag53
ag45
ag416
ag46
ag419
ag644
ag92
ag52
atp1207
Rp1208
sg52
g75
((lp1209
g251
ag348
ag92
ag328
ag54
ag401
ag43
ag56
ag597
ag60
ag63
ag418
ag42
ag38
ag40
ag332
ag44
ag88
ag419
ag800
ag51
ag411
ag344
ag189
ag83
atp1210
Rp1211
sg450
g75
((lp1212
g36
ag800
ag195
ag52
ag348
ag251
ag40
ag249
ag63
ag43
ag56
ag57
ag53
ag45
ag416
ag46
ag61
ag419
ag644
ag41
atp1213
Rp1214
sg401
g75
((lp1215
g42
ag800
ag195
ag52
ag40
ag348
ag88
ag419
ag92
ag38
atp1216
Rp1217
sg43
g75
((lp1218
g36
ag800
ag195
ag52
ag249
ag342
ag40
ag54
ag332
ag348
ag56
ag344
ag53
ag45
ag416
ag46
ag189
ag419
ag644
ag63
atp1219
Rp1220
sg205
g75
((lp1221
g800
ag195
ag52
ag40
ag54
ag332
ag43
ag344
ag419
ag53
ag348
ag189
ag63
atp1222
Rp1223
sg59
g75
((lp1224
g418
ag800
ag38
ag251
ag40
ag54
ag42
ag43
ag344
ag52
ag44
ag348
ag328
ag60
ag46
ag88
ag419
ag644
ag92
ag83
atp1225
Rp1226
sg60
g75
((lp1227
g36
ag800
ag195
ag38
ag40
ag42
ag348
ag612
ag45
ag416
ag83
ag46
ag88
ag419
ag644
ag92
ag52
atp1228
Rp1229
sg430
g75
((lp1230
g418
ag800
ag38
ag251
ag40
ag54
ag42
ag43
ag344
ag44
ag348
ag597
ag60
ag46
ag88
ag419
ag328
ag92
ag83
atp1231
Rp1232
sg63
g75
((lp1233
g800
ag195
ag52
ag251
ag40
ag54
ag43
ag56
ag348
ag419
ag189
atp1234
Rp1235
sg428
g75
((lp1236
g328
ag42
ag195
ag38
ag348
ag251
ag40
ag54
ag43
ag344
ag800
ag45
ag416
ag60
ag46
ag88
ag419
ag644
ag92
ag52
atp1237
Rp1238
sg37
g75
((lp1239
tp1240
Rp1241
sg38
g75
((lp1242
g42
ag36
ag195
ag52
ag40
ag800
ag45
ag348
ag416
ag60
ag46
ag88
ag419
ag644
ag92
atp1243
Rp1244
sg39
g75
((lp1245
g419
atp1246
Rp1247
sg40
g75
((lp1248
g251
ag348
ag38
ag249
ag52
ag844
ag401
ag43
ag56
ag416
ag60
ag644
ag41
ag36
ag83
ag63
ag53
ag46
ag47
ag419
ag800
ag195
ag612
ag45
ag57
ag61
atp1249
Rp1250
sg316
g75
((lp1251
g800
ag195
ag52
ag40
ag54
ag43
ag56
ag344
ag348
ag419
ag189
atp1252
Rp1253
sg101
g75
((lp1254
g36
ag195
ag38
ag401
ag348
ag612
ag45
ag416
ag60
ag46
ag47
ag419
ag83
ag92
ag644
ag52
atp1255
Rp1256
sg44
g75
((lp1257
g42
ag800
ag83
ag40
ag348
ag416
ag60
ag46
ag88
ag644
ag92
ag52
atp1258
Rp1259
sg46
g75
((lp1260
g418
ag800
ag38
ag328
ag251
ag40
ag54
ag42
ag43
ag344
ag44
ag348
ag597
ag60
ag88
ag419
ag417
ag92
ag83
atp1261
Rp1262
sg96
g75
((lp1263
g36
ag800
ag195
ag38
ag348
ag40
ag42
ag401
ag612
ag45
ag416
ag60
ag46
ag419
ag83
ag92
ag644
ag52
atp1264
Rp1265
sg48
g75
((lp1266
g251
ag348
ag92
ag328
ag52
ag54
ag401
ag43
ag56
ag416
ag60
ag644
ag63
ag418
ag42
ag38
ag39
ag40
ag332
ag411
ag46
ag88
ag800
ag51
ag344
ag189
atp1267
Rp1268
sg452
g75
((lp1269
g251
ag348
ag38
ag249
ag52
ag844
ag401
ag43
ag56
ag416
ag60
ag644
ag41
ag36
ag83
ag40
ag63
ag53
ag46
ag47
ag419
ag195
ag612
ag45
ag57
ag61
atp1270
Rp1271
sg51
g75
((lp1272
g251
ag348
ag92
ag328
ag52
ag54
ag401
ag43
ag56
ag60
ag63
ag418
ag42
ag38
ag40
ag332
ag411
ag88
ag419
ag800
ag344
ag189
atp1273
Rp1274
sg411
g75
((lp1275
g328
ag800
ag195
ag52
ag40
ag54
ag401
ag43
ag56
ag348
ag419
ag92
ag189
ag38
atp1276
Rp1277
sg45
g75
((lp1278
g42
ag418
ag38
ag251
ag40
ag54
ag43
ag344
ag800
ag348
ag60
ag88
ag328
ag92
atp1279
Rp1280
sg320
g75
((lp1281
g36
ag800
ag195
ag52
ag40
ag54
ag41
ag43
ag56
ag348
ag416
ag46
ag45
ag644
ag419
atp1282
Rp1283
sg61
g75
((lp1284
g800
ag195
ag52
ag251
ag40
ag54
ag63
ag43
ag56
ag53
ag348
ag419
ag41
atp1285
Rp1286
sg83
g75
((lp1287
g42
ag800
ag52
ag40
ag44
ag348
ag416
ag60
ag46
ag88
ag644
ag92
atp1288
Rp1289
ssS'beta_triggers'
p1290
g423
(g75
tp1291
Rp1292
(g42
I01
tp1293
(lp1294
I8
aI9
aI10
aI13
aI14
aI16
aI17
aI18
aI21
aI22
aI23
aI24
aI25
aI26
aI27
aI30
aI31
aI33
aI36
as(g45
I00
tp1295
(lp1296
I3
aI4
aI7
aI8
aI10
aI35
aI36
as(g36
I00
tp1297
(lp1298
I3
aI4
aI7
aI8
aI10
aI35
aI36
as(g332
I01
tp1299
(lp1300
I4
aI5
aI6
aI9
aI10
aI12
aI13
aI15
aI17
aI18
aI22
aI26
aI28
aI35
aI36
as(g43
I01
tp1301
(lp1302
I0
aI34
aI35
as(g419
I00
tp1303
g75
((lp1304
tp1305
Rp1306
s(g57
I00
tp1307
(lp1308
I7
aI8
aI10
aI15
aI16
aI21
aI36
as(g44
I01
tp1309
(lp1310
I3
aI5
aI6
aI23
aI24
aI25
aI26
aI27
as(g249
I00
tp1311
(lp1312
I15
aI17
aI21
aI22
as(g92
I01
tp1313
(lp1314
I8
aI10
aI11
aI12
aI13
aI14
aI16
aI18
aI19
aI20
aI21
aI22
aI23
aI24
aI25
aI26
as(g63
I01
tp1315
(lp1316
I4
aI5
aI6
aI8
aI9
aI11
aI14
aI15
aI16
aI17
aI21
aI25
aI28
aI35
aI36
as(g83
I01
tp1317
(lp1318
I3
aI5
aI6
aI7
aI8
aI10
aI15
aI16
aI18
aI23
aI24
aI25
aI26
aI27
aI34
aI35
aI36
as(g597
I01
tp1319
(lp1320
I0
aI3
aI5
aI6
aI23
aI24
aI25
aI26
aI27
as(g60
I01
tp1321
(lp1322
I8
aI9
aI10
aI13
aI14
aI16
aI17
aI18
aI21
aI22
aI23
aI24
aI25
aI26
aI27
aI35
aI36
as(g348
I01
tp1323
(lp1324
s(g418
I01
tp1325
(lp1326
I0
aI8
aI9
aI10
aI13
aI14
aI16
aI17
aI18
aI21
aI22
aI23
aI24
aI25
aI26
aI27
aI34
aI35
aI36
as(g58
I00
tp1327
(lp1328
I30
aI32
aI33
as(g39
I00
tp1329
(lp1330
s(g54
I01
tp1331
(lp1332
I0
aI30
aI31
aI32
aI34
aI35
as(g419
I01
tp1333
(lp1334
I0
as(g61
I00
tp1335
(lp1336
I7
aI8
aI9
aI13
aI15
aI16
aI17
aI21
as(g53
I00
tp1337
(lp1338
I7
aI9
aI13
aI14
aI15
aI17
aI21
aI22
as(g328
I01
tp1339
(lp1340
I0
aI8
aI10
aI11
aI12
aI13
aI14
aI16
aI18
aI19
aI20
aI21
aI22
aI23
aI24
aI25
aI26
aI34
aI35
as(g139
I00
tp1341
(lp1342
I7
aI8
aI10
aI15
aI16
aI18
aI36
as(g217
I00
tp1343
(lp1344
I15
aI17
aI18
aI22
as(g416
I00
tp1345
(lp1346
I3
aI4
aI7
aI8
aI10
aI35
aI36
as(g52
I01
tp1347
g75
((lp1348
tp1349
Rp1350
s(g56
I00
tp1351
(lp1352
I7
aI9
aI10
aI14
aI15
aI17
aI18
aI22
as(g800
I01
tp1353
(lp1354
I1
aI2
as(g612
I00
tp1355
(lp1356
I0
aI7
aI8
aI10
aI15
aI16
aI18
aI34
aI35
aI36
as(g844
I00
tp1357
(lp1358
I15
aI16
aI17
aI21
as(g51
I01
tp1359
(lp1360
I4
aI5
aI6
aI8
aI9
aI10
aI13
aI14
aI35
aI36
as(g189
I01
tp1361
(lp1362
I4
aI5
aI6
aI15
aI18
aI22
aI23
aI26
aI27
aI35
as(g251
I01
tp1363
(lp1364
I0
aI8
aI9
aI11
aI14
aI16
aI17
aI19
aI22
aI24
aI26
aI27
aI28
aI29
aI34
aI35
aI36
as(g45
I01
tp1365
g75
((lp1366
tp1367
Rp1368
s(g359
I00
tp1369
(lp1370
I31
aI32
aI33
as(g411
I01
tp1371
(lp1372
I4
aI5
aI6
aI8
aI10
aI11
aI12
aI13
aI14
aI15
aI16
aI18
aI27
aI35
as(g56
I01
tp1373
(lp1374
I4
aI5
aI6
aI15
aI16
aI21
aI24
aI25
aI27
aI35
as(g624
I00
tp1375
(lp1376
I1
aI7
aI8
aI10
aI15
aI16
aI18
aI36
as(g88
I01
tp1377
(lp1378
I1
aI2
aI8
aI9
aI10
aI13
aI14
aI16
aI17
aI18
aI21
aI22
aI23
aI24
aI25
aI26
aI27
aI36
as(g52
I00
tp1379
(lp1380
s(g41
I00
tp1381
(lp1382
I7
aI8
aI13
aI15
aI16
aI21
aI36
as(g38
I01
tp1383
(lp1384
I0
aI8
aI10
aI11
aI12
aI13
aI14
aI16
aI18
aI19
aI20
aI21
aI22
aI23
aI24
aI25
aI26
as(g105
I00
tp1385
(lp1386
I3
aI5
as(g37
I01
tp1387
g75
((lp1388
tp1389
Rp1390
s(g417
I01
tp1391
(lp1392
I3
aI5
aI6
aI23
aI24
aI25
aI26
aI27
as(g342
I00
tp1393
(lp1394
I7
aI8
aI10
aI15
aI18
aI22
aI36
as(g83
I00
tp1395
g75
((lp1396
tp1397
Rp1398
s(g40
I01
tp1399
(lp1400
I1
aI2
as(g644
I00
tp1401
(lp1402
I3
aI4
aI7
aI8
aI10
aI35
aI36
as(g344
I01
tp1403
(lp1404
I0
aI9
aI10
aI12
aI13
aI17
aI18
aI20
aI21
aI23
aI25
aI27
aI28
aI29
aI34
aI35
aI36
as(g401
I00
tp1405
g75
((lp1406
tp1407
Rp1408
s(g195
I00
tp1409
(lp1410
s(g47
I00
tp1411
(lp1412
I7
aI8
aI10
aI15
aI16
aI18
aI35
aI36
as(g401
I01
tp1413
(lp1414
I4
aI5
aI6
aI8
aI10
aI11
aI12
aI13
aI14
aI15
aI16
aI18
aI27
as(g49
I00
tp1415
(lp1416
I2
as(g46
I01
tp1417
(lp1418
I7
aI8
aI10
aI35
aI36
as(g63
I00
tp1419
(lp1420
I7
aI10
aI14
aI15
aI18
aI22
aI36
as(g60
I00
tp1421
(lp1422
I7
aI8
aI10
aI15
aI16
aI18
aI34
aI35
aI36
assbsS'_generator'
p1423
(dp1424
g50
I01
sS'finite'
p1425
I01
ssbsbcsympy.core.numbers
NegativeOne
p1426
(I-1
tp1427
Rp1428
(dp1429
btp1430
Rp1431
(dp1432
btp1433
Rp1434
(dp1435
b.