csympy.core.mul
Mul
p0
(csympy.core.numbers
NegativeOne
p1
(I-1
tp2
Rp3
(dp4
bcsympy.core.power
Pow
p5
(csympy.core.numbers
Integer
p6
(I6
tp7
Rp8
(dp9
bcsympy.core.numbers
Half
p10
(I1
I2
tp11
Rp12
(dp13
btp14
Rp15
(dp16
bg5
(csympy.core.numbers
Pi
p17
(tRp18
(dp19
bg6
(I4
tp20
Rp21
(dp22
btp23
Rp24
(dp25
bg5
(csympy.core.symbol
Symbol
p26
(S'\\alpha'
p27
tp28
Rp29
(dp30
S'_assumptions'
p31
ccopy_reg
_reconstructor
p32
(csympy.core.assumptions
StdFactKB
p33
c__builtin__
dict
p34
(dp35
S'real'
p36
I01
sS'polar'
p37
NsS'irrational'
p38
NsS'antihermitian'
p39
NsS'composite'
p40
NsS'extended_nonnegative'
p41
NsS'even'
p42
NsS'negative'
p43
NsS'algebraic'
p44
NsS'hermitian'
p45
I01
sS'infinite'
p46
I00
sS'integer'
p47
NsS'imaginary'
p48
I00
sS'odd'
p49
NsS'nonzero'
p50
I01
sS'extended_real'
p51
I01
sS'commutative'
p52
I01
sS'extended_nonzero'
p53
I01
sS'positive'
p54
NsS'zero'
p55
I00
sS'extended_negative'
p56
NsS'nonnegative'
p57
NsS'prime'
p58
NsS'complex'
p59
I01
sS'rational'
p60
NsS'extended_positive'
p61
NsS'finite'
p62
I01
sS'extended_nonpositive'
p63
Nstp64
Rp65
(dp66
S'rules'
p67
g32
(csympy.core.facts
FactRules
p68
c__builtin__
object
p69
Ntp70
Rp71
(dp72
S'beta_rules'
p73
(lp74
(c__builtin__
set
p75
((lp76
(S'algebraic'
p77
I00
tp78
a(S'complex'
p79
I01
tp80
atp81
Rp82
(S'transcendental'
p83
I01
tp84
tp85
a(g75
((lp86
(g42
I00
tp87
a(S'integer'
p88
I01
tp89
atp90
Rp91
(S'odd'
p92
I01
tp93
tp94
a(g75
((lp95
(S'integer'
p96
I01
tp97
a(g49
I00
tp98
atp99
Rp100
(S'even'
p101
I01
tp102
tp103
a(g75
((lp104
(S'infinite'
p105
I00
tp106
a(S'real'
p107
I00
tp108
atp109
Rp110
(S'extended_real'
p111
I00
tp112
tp113
a(g75
((lp114
(g111
I01
tp115
a(g107
I00
tp116
atp117
Rp118
(g105
I01
tp119
tp120
a(g75
((lp121
(g111
I01
tp122
a(g105
I00
tp123
atp124
Rp125
(g107
I01
tp126
tp127
a(g75
((lp128
(S'extended_real'
p129
I01
tp130
a(S'finite'
p131
I01
tp132
atp133
Rp134
(S'real'
p135
I01
tp136
tp137
a(g75
((lp138
(S'zero'
p139
I00
tp140
a(S'extended_negative'
p141
I00
tp142
a(g61
I00
tp143
atp144
Rp145
(S'extended_real'
p146
I00
tp147
tp148
a(g75
((lp149
(g139
I00
tp150
a(g146
I01
tp151
a(g61
I00
tp152
atp153
Rp154
(g141
I01
tp155
tp156
a(g75
((lp157
(g61
I00
tp158
a(g146
I01
tp159
a(g141
I00
tp160
atp161
Rp162
(g139
I01
tp163
tp164
a(g75
((lp165
(g139
I00
tp166
a(g146
I01
tp167
a(g141
I00
tp168
atp169
Rp170
(g61
I01
tp171
tp172
a(g75
((lp173
(S'extended_nonzero'
p174
I01
tp175
a(S'extended_nonpositive'
p176
I01
tp177
atp178
Rp179
(S'extended_negative'
p180
I01
tp181
tp182
a(g75
((lp183
(S'extended_nonzero'
p184
I01
tp185
a(g41
I01
tp186
atp187
Rp188
(S'extended_positive'
p189
I01
tp190
tp191
a(g75
((lp192
(S'extended_positive'
p193
I00
tp194
a(S'extended_real'
p195
I01
tp196
atp197
Rp198
(S'extended_nonpositive'
p199
I01
tp200
tp201
a(g75
((lp202
(S'extended_real'
p203
I01
tp204
a(S'extended_negative'
p205
I00
tp206
atp207
Rp208
(S'extended_nonnegative'
p209
I01
tp210
tp211
a(g75
((lp212
(S'zero'
p213
I00
tp214
a(S'positive'
p215
I00
tp216
a(S'negative'
p217
I00
tp218
atp219
Rp220
(S'real'
p221
I00
tp222
tp223
a(g75
((lp224
(g221
I01
tp225
a(g213
I00
tp226
a(g215
I00
tp227
atp228
Rp229
(g217
I01
tp230
tp231
a(g75
((lp232
(g221
I01
tp233
a(g215
I00
tp234
a(g217
I00
tp235
atp236
Rp237
(g213
I01
tp238
tp239
a(g75
((lp240
(g221
I01
tp241
a(g213
I00
tp242
a(g217
I00
tp243
atp244
Rp245
(g215
I01
tp246
tp247
a(g75
((lp248
(S'nonzero'
p249
I01
tp250
a(S'nonpositive'
p251
I01
tp252
atp253
Rp254
(g43
I01
tp255
tp256
a(g75
((lp257
(S'nonzero'
p258
I01
tp259
a(g57
I01
tp260
atp261
Rp262
(S'positive'
p263
I01
tp264
tp265
a(g75
((lp266
(S'real'
p267
I01
tp268
a(S'positive'
p269
I00
tp270
atp271
Rp272
(S'nonpositive'
p273
I01
tp274
tp275
a(g75
((lp276
(S'real'
p277
I01
tp278
a(S'negative'
p279
I00
tp280
atp281
Rp282
(S'nonnegative'
p283
I01
tp284
tp285
a(g75
((lp286
(S'finite'
p287
I01
tp288
a(S'extended_positive'
p289
I01
tp290
atp291
Rp292
(g54
I01
tp293
tp294
a(g75
((lp295
(g56
I01
tp296
a(S'finite'
p297
I01
tp298
atp299
Rp300
(S'negative'
p301
I01
tp302
tp303
a(g75
((lp304
(S'finite'
p305
I01
tp306
a(g63
I01
tp307
atp308
Rp309
(S'nonpositive'
p310
I01
tp311
tp312
a(g75
((lp313
(S'finite'
p314
I01
tp315
a(S'extended_nonnegative'
p316
I01
tp317
atp318
Rp319
(S'nonnegative'
p320
I01
tp321
tp322
a(g75
((lp323
(g62
I01
tp324
a(g53
I01
tp325
atp326
Rp327
(S'nonzero'
p328
I01
tp329
tp330
a(g75
((lp331
(S'extended_nonnegative'
p332
I01
tp333
a(S'extended_nonpositive'
p334
I01
tp335
atp336
Rp337
(S'zero'
p338
I01
tp339
tp340
a(g75
((lp341
(S'nonpositive'
p342
I01
tp343
a(S'nonnegative'
p344
I01
tp345
atp346
Rp347
(S'zero'
p348
I01
tp349
tp350
a(g75
((lp351
(S'even'
p352
I01
tp353
a(g58
I00
tp354
a(S'positive'
p355
I01
tp356
atp357
Rp358
(S'composite'
p359
I01
tp360
tp361
a(g75
((lp362
(g352
I01
tp363
a(g359
I00
tp364
a(g355
I01
tp365
atp366
Rp367
(g58
I01
tp368
tp369
a(g75
((lp370
(g359
I00
tp371
a(g58
I00
tp372
a(g355
I01
tp373
atp374
Rp375
(g352
I00
tp376
tp377
a(g75
((lp378
(g352
I01
tp379
a(g359
I00
tp380
a(g58
I00
tp381
atp382
Rp383
(g355
I00
tp384
tp385
a(g75
((lp386
(S'real'
p387
I01
tp388
a(g60
I00
tp389
atp390
Rp391
(g38
I01
tp392
tp393
a(g75
((lp394
(S'integer'
p395
I00
tp396
a(S'extended_real'
p397
I01
tp398
atp399
Rp400
(S'noninteger'
p401
I01
tp402
tp403
a(g75
((lp404
(S'zero'
p405
I00
tp406
a(S'extended_real'
p407
I01
tp408
atp409
Rp410
(S'extended_nonzero'
p411
I01
tp412
tp413
asS'defined_facts'
p414
g75
((lp415
g342
ag45
ag49
ag42
ag52
ag54
ag401
ag43
ag56
aS'complex'
p416
ag60
aS'finite'
p417
ag41
aS'real'
p418
ag328
ag38
ag39
ag40
ag63
ag53
ag105
ag47
aS'imaginary'
p419
ag58
ag51
ag44
ag348
ag57
ag61
ag83
atp420
Rp421
sS'full_implications'
p422
ccollections
defaultdict
p423
(g75
tp424
Rp425
(g42
I01
tp426
g75
((lp427
(S'real'
p428
I01
tp429
a(S'finite'
p430
I01
tp431
a(g48
I00
tp432
a(g51
I01
tp433
a(g44
I01
tp434
a(g401
I00
tp435
a(g46
I00
tp436
a(g96
I01
tp437
a(g38
I00
tp438
a(g92
I00
tp439
a(g52
I01
tp440
a(g60
I01
tp441
a(g59
I01
tp442
a(g83
I00
tp443
a(g45
I01
tp444
atp445
Rp446
s(g45
I00
tp447
g75
((lp448
(g55
I00
tp449
a(S'positive'
p450
I00
tp451
a(S'prime'
p452
I00
tp453
a(g342
I00
tp454
a(g40
I00
tp455
a(g320
I00
tp456
a(S'nonzero'
p457
I00
tp458
a(g47
I00
tp459
a(g428
I00
tp460
a(g101
I00
tp461
a(g38
I00
tp462
a(g92
I00
tp463
a(g60
I00
tp464
a(g43
I00
tp465
atp466
Rp467
s(g36
I00
tp468
g75
((lp469
(g213
I00
tp470
a(g215
I00
tp471
a(g457
I00
tp472
a(g273
I00
tp473
a(g40
I00
tp474
a(g283
I00
tp475
a(g47
I00
tp476
a(g452
I00
tp477
a(g101
I00
tp478
a(g38
I00
tp479
a(g92
I00
tp480
a(S'rational'
p481
I00
tp482
a(g217
I00
tp483
atp484
Rp485
s(g332
I01
tp486
g75
((lp487
(g48
I00
tp488
a(g203
I01
tp489
a(g205
I00
tp490
a(g43
I00
tp491
a(g52
I01
tp492
atp493
Rp494
s(g43
I01
tp495
g75
((lp496
(g221
I01
tp497
a(g249
I01
tp498
a(g450
I00
tp499
a(g452
I00
tp500
a(g251
I01
tp501
a(g40
I00
tp502
a(g61
I00
tp503
a(g51
I01
tp504
a(g283
I00
tp505
a(g411
I01
tp506
a(g59
I01
tp507
a(g56
I01
tp508
a(g297
I01
tp509
a(g55
I00
tp510
a(g63
I01
tp511
a(g48
I00
tp512
a(g52
I01
tp513
a(g46
I00
tp514
a(g45
I01
tp515
a(g316
I00
tp516
atp517
Rp518
s(g419
I00
tp519
g75
((lp520
tp521
Rp522
s(g57
I00
tp523
g75
((lp524
(g348
I00
tp525
a(g263
I00
tp526
a(g452
I00
tp527
a(g40
I00
tp528
atp529
Rp530
s(g44
I01
tp531
g75
((lp532
(g52
I01
tp533
a(g46
I00
tp534
a(g59
I01
tp535
a(g83
I00
tp536
a(g430
I01
tp537
atp538
Rp539
s(g249
I00
tp540
g75
((lp541
(g263
I00
tp542
a(g452
I00
tp543
a(g43
I00
tp544
a(g40
I00
tp545
atp546
Rp547
s(g92
I01
tp548
g75
((lp549
(g428
I01
tp550
a(g55
I00
tp551
a(g42
I00
tp552
a(g48
I00
tp553
a(g51
I01
tp554
a(g44
I01
tp555
a(g328
I01
tp556
a(g411
I01
tp557
a(g401
I00
tp558
a(g46
I00
tp559
a(g430
I01
tp560
a(g88
I01
tp561
a(g38
I00
tp562
a(g52
I01
tp563
a(g60
I01
tp564
a(g59
I01
tp565
a(g83
I00
tp566
a(g45
I01
tp567
atp568
Rp569
s(g63
I01
tp570
g75
((lp571
(g450
I00
tp572
a(g40
I00
tp573
a(g193
I00
tp574
a(g195
I01
tp575
a(g452
I00
tp576
a(g48
I00
tp577
a(g52
I01
tp578
atp579
Rp580
s(g83
I01
tp581
g75
((lp582
(g55
I00
tp583
a(g452
I00
tp584
a(g46
I00
tp585
a(g77
I00
tp586
a(g40
I00
tp587
a(g47
I00
tp588
a(g101
I00
tp589
a(g92
I00
tp590
a(g52
I01
tp591
a(g79
I01
tp592
a(g60
I00
tp593
a(g430
I01
tp594
atp595
Rp596
s(S'complex'
p597
I01
tp598
g75
((lp599
(g52
I01
tp600
a(g46
I00
tp601
a(g430
I01
tp602
atp603
Rp604
s(g60
I01
tp605
g75
((lp606
(S'real'
p607
I01
tp608
a(g430
I01
tp609
a(g48
I00
tp610
a(g51
I01
tp611
a(S'algebraic'
p612
I01
tp613
a(g46
I00
tp614
a(g38
I00
tp615
a(g52
I01
tp616
a(g59
I01
tp617
a(g83
I00
tp618
a(g45
I01
tp619
atp620
Rp621
s(g348
I01
tp622
g75
((lp623
(S'even'
p624
I01
tp625
a(g332
I01
tp626
a(g48
I00
tp627
a(g44
I01
tp628
a(g334
I01
tp629
a(g60
I01
tp630
a(g59
I01
tp631
a(g43
I00
tp632
a(g221
I01
tp633
a(g452
I00
tp634
a(g61
I00
tp635
a(g411
I00
tp636
a(g45
I01
tp637
a(g52
I01
tp638
a(g180
I00
tp639
a(g450
I00
tp640
a(g40
I00
tp641
a(g342
I01
tp642
a(g146
I01
tp643
a(S'finite'
p644
I01
tp645
a(g88
I01
tp646
a(g46
I00
tp647
a(g457
I00
tp648
a(g344
I01
tp649
a(g401
I00
tp650
a(g38
I00
tp651
a(g92
I00
tp652
a(g83
I00
tp653
atp654
Rp655
s(g418
I01
tp656
g75
((lp657
(S'complex'
p658
I01
tp659
a(g48
I00
tp660
a(g129
I01
tp661
a(g131
I01
tp662
a(g52
I01
tp663
a(g46
I00
tp664
a(g45
I01
tp665
atp666
Rp667
s(g58
I00
tp668
g75
((lp669
tp670
Rp671
s(g39
I00
tp672
g75
((lp673
(g419
I00
tp674
atp675
Rp676
s(g54
I01
tp677
g75
((lp678
(g221
I01
tp679
a(g55
I00
tp680
a(g287
I01
tp681
a(g273
I00
tp682
a(g289
I01
tp683
a(g48
I00
tp684
a(g51
I01
tp685
a(g411
I01
tp686
a(g258
I01
tp687
a(g57
I01
tp688
a(g46
I00
tp689
a(g43
I00
tp690
a(g332
I01
tp691
a(g52
I01
tp692
a(g63
I00
tp693
a(g59
I01
tp694
a(g45
I01
tp695
a(g180
I00
tp696
atp697
Rp698
s(g419
I01
tp699
g75
((lp700
(g55
I00
tp701
a(g36
I00
tp702
a(g320
I00
tp703
a(g416
I01
tp704
a(g43
I00
tp705
a(g452
I00
tp706
a(g61
I00
tp707
a(g39
I01
tp708
a(g180
I00
tp709
a(g52
I01
tp710
a(g430
I01
tp711
a(g450
I00
tp712
a(g40
I00
tp713
a(g101
I00
tp714
a(g63
I00
tp715
a(g46
I00
tp716
a(g457
I00
tp717
a(g342
I00
tp718
a(g51
I00
tp719
a(g60
I00
tp720
a(g401
I00
tp721
a(g47
I00
tp722
a(g38
I00
tp723
a(g92
I00
tp724
a(g316
I00
tp725
a(g53
I00
tp726
atp727
Rp728
s(g61
I00
tp729
g75
((lp730
(g54
I00
tp731
a(g452
I00
tp732
a(g40
I00
tp733
atp734
Rp735
s(g53
I00
tp736
g75
((lp737
(g450
I00
tp738
a(g328
I00
tp739
a(g189
I00
tp740
a(g40
I00
tp741
a(g452
I00
tp742
a(g180
I00
tp743
a(g43
I00
tp744
atp745
Rp746
s(g328
I01
tp747
g75
((lp748
(g36
I01
tp749
a(g55
I00
tp750
a(g62
I01
tp751
a(g48
I00
tp752
a(g51
I01
tp753
a(g53
I01
tp754
a(g46
I00
tp755
a(g52
I01
tp756
a(g59
I01
tp757
a(g45
I01
tp758
atp759
Rp760
s(g139
I00
tp761
g75
((lp762
tp763
Rp764
s(g217
I00
tp765
g75
((lp766
tp767
Rp768
s(g416
I00
tp769
g75
((lp770
(g55
I00
tp771
a(g450
I00
tp772
a(g452
I00
tp773
a(g342
I00
tp774
a(S'imaginary'
p775
I00
tp776
a(g44
I00
tp777
a(g40
I00
tp778
a(g320
I00
tp779
a(g60
I00
tp780
a(g457
I00
tp781
a(g47
I00
tp782
a(g418
I00
tp783
a(g101
I00
tp784
a(g38
I00
tp785
a(g92
I00
tp786
a(g83
I00
tp787
a(g43
I00
tp788
atp789
Rp790
s(g52
I01
tp791
g75
((lp792
tp793
Rp794
s(g56
I00
tp795
g75
((lp796
(g301
I00
tp797
atp798
Rp799
s(S'prime'
p800
I01
tp801
g75
((lp802
(g328
I01
tp803
a(g55
I00
tp804
a(g48
I00
tp805
a(g411
I01
tp806
a(g43
I00
tp807
a(g332
I01
tp808
a(g60
I01
tp809
a(g59
I01
tp810
a(g45
I01
tp811
a(g428
I01
tp812
a(g450
I01
tp813
a(g180
I00
tp814
a(g52
I01
tp815
a(g51
I01
tp816
a(g189
I01
tp817
a(g40
I00
tp818
a(g44
I01
tp819
a(S'integer'
p820
I01
tp821
a(g46
I00
tp822
a(g430
I01
tp823
a(g342
I00
tp824
a(g344
I01
tp825
a(g401
I00
tp826
a(g38
I00
tp827
a(g63
I00
tp828
a(g83
I00
tp829
atp830
Rp831
s(g612
I00
tp832
g75
((lp833
(g55
I00
tp834
a(g452
I00
tp835
a(g40
I00
tp836
a(g47
I00
tp837
a(g101
I00
tp838
a(g92
I00
tp839
a(S'rational'
p840
I00
tp841
atp842
Rp843
s(S'positive'
p844
I00
tp845
g75
((lp846
(g40
I00
tp847
a(g452
I00
tp848
atp849
Rp850
s(g51
I01
tp851
g75
((lp852
(g48
I00
tp853
a(S'commutative'
p854
I01
tp855
atp856
Rp857
s(g189
I01
tp858
g75
((lp859
(g55
I00
tp860
a(g342
I00
tp861
a(g48
I00
tp862
a(g146
I01
tp863
a(g184
I01
tp864
a(g180
I00
tp865
a(g41
I01
tp866
a(g52
I01
tp867
a(g199
I00
tp868
a(g43
I00
tp869
atp870
Rp871
s(g251
I01
tp872
g75
((lp873
(g267
I01
tp874
a(g269
I00
tp875
a(g452
I00
tp876
a(g51
I01
tp877
a(g61
I00
tp878
a(g40
I00
tp879
a(g46
I00
tp880
a(g305
I01
tp881
a(g63
I01
tp882
a(g48
I00
tp883
a(g52
I01
tp884
a(g59
I01
tp885
a(g45
I01
tp886
atp887
Rp888
s(g45
I01
tp889
g75
((lp890
tp891
Rp892
s(g359
I00
tp893
g75
((lp894
tp895
Rp896
s(g411
I01
tp897
g75
((lp898
(g48
I00
tp899
a(g407
I01
tp900
a(g405
I00
tp901
a(g52
I01
tp902
atp903
Rp904
s(g56
I01
tp905
g75
((lp906
(g55
I00
tp907
a(g450
I00
tp908
a(g40
I00
tp909
a(g48
I00
tp910
a(g146
I01
tp911
a(g320
I00
tp912
a(g174
I01
tp913
a(g452
I00
tp914
a(g176
I01
tp915
a(g61
I00
tp916
a(g52
I01
tp917
a(g209
I00
tp918
atp919
Rp920
s(g624
I00
tp921
g75
((lp922
(g55
I00
tp923
atp924
Rp925
s(g88
I01
tp926
g75
((lp927
(g428
I01
tp928
a(g430
I01
tp929
a(g48
I00
tp930
a(g51
I01
tp931
a(g44
I01
tp932
a(g401
I00
tp933
a(g46
I00
tp934
a(g38
I00
tp935
a(g52
I01
tp936
a(S'rational'
p937
I01
tp938
a(g59
I01
tp939
a(g83
I00
tp940
a(g45
I01
tp941
atp942
Rp943
s(g52
I00
tp944
g75
((lp945
(g55
I00
tp946
a(g36
I00
tp947
a(g48
I00
tp948
a(g320
I00
tp949
a(g43
I00
tp950
a(g452
I00
tp951
a(g61
I00
tp952
a(g77
I00
tp953
a(g53
I00
tp954
a(g180
I00
tp955
a(S'complex'
p956
I00
tp957
a(g450
I00
tp958
a(g40
I00
tp959
a(g101
I00
tp960
a(g316
I00
tp961
a(g457
I00
tp962
a(g342
I00
tp963
a(S'extended_real'
p964
I00
tp965
a(g60
I00
tp966
a(g401
I00
tp967
a(g47
I00
tp968
a(g38
I00
tp969
a(g92
I00
tp970
a(g63
I00
tp971
a(g83
I00
tp972
atp973
Rp974
s(g41
I00
tp975
g75
((lp976
(g338
I00
tp977
a(g450
I00
tp978
a(g452
I00
tp979
a(g189
I00
tp980
a(g40
I00
tp981
a(g320
I00
tp982
atp983
Rp984
s(g38
I01
tp985
g75
((lp986
(g387
I01
tp987
a(g55
I00
tp988
a(g40
I00
tp989
a(g46
I00
tp990
a(g48
I00
tp991
a(g51
I01
tp992
a(g101
I00
tp993
a(g411
I01
tp994
a(g328
I01
tp995
a(g47
I00
tp996
a(g452
I00
tp997
a(g92
I00
tp998
a(g52
I01
tp999
a(g401
I01
tp1000
a(g59
I01
tp1001
a(g60
I00
tp1002
a(g45
I01
tp1003
a(g430
I01
tp1004
atp1005
Rp1006
s(g105
I00
tp1007
g75
((lp1008
tp1009
Rp1010
s(g37
I01
tp1011
g75
((lp1012
tp1013
Rp1014
s(g417
I01
tp1015
g75
((lp1016
(g46
I00
tp1017
atp1018
Rp1019
s(g342
I00
tp1020
g75
((lp1021
(g348
I00
tp1022
a(g43
I00
tp1023
atp1024
Rp1025
s(g83
I00
tp1026
g75
((lp1027
tp1028
Rp1029
s(g40
I01
tp1030
g75
((lp1031
(g328
I01
tp1032
a(g55
I00
tp1033
a(g48
I00
tp1034
a(g44
I01
tp1035
a(g43
I00
tp1036
a(g332
I01
tp1037
a(g60
I01
tp1038
a(g59
I01
tp1039
a(g45
I01
tp1040
a(g428
I01
tp1041
a(g800
I00
tp1042
a(g844
I01
tp1043
a(g180
I00
tp1044
a(g52
I01
tp1045
a(g189
I01
tp1046
a(g51
I01
tp1047
a(g411
I01
tp1048
a(g47
I01
tp1049
a(g46
I00
tp1050
a(g430
I01
tp1051
a(g342
I00
tp1052
a(g344
I01
tp1053
a(g401
I00
tp1054
a(g38
I00
tp1055
a(g63
I00
tp1056
a(g83
I00
tp1057
atp1058
Rp1059
s(g644
I00
tp1060
g75
((lp1061
(g55
I00
tp1062
a(g54
I00
tp1063
a(g452
I00
tp1064
a(g310
I00
tp1065
a(g48
I00
tp1066
a(g77
I00
tp1067
a(g40
I00
tp1068
a(g320
I00
tp1069
a(g83
I00
tp1070
a(g135
I00
tp1071
a(g47
I00
tp1072
a(g328
I00
tp1073
a(g101
I00
tp1074
a(g38
I00
tp1075
a(g92
I00
tp1076
a(g597
I00
tp1077
a(g60
I00
tp1078
a(g301
I00
tp1079
atp1080
Rp1081
s(g344
I01
tp1082
g75
((lp1083
(g277
I01
tp1084
a(g314
I01
tp1085
a(g48
I00
tp1086
a(g51
I01
tp1087
a(g279
I00
tp1088
a(g46
I00
tp1089
a(g180
I00
tp1090
a(g316
I01
tp1091
a(g52
I01
tp1092
a(g59
I01
tp1093
a(g45
I01
tp1094
atp1095
Rp1096
s(g401
I00
tp1097
g75
((lp1098
tp1099
Rp1100
s(g195
I00
tp1101
g75
((lp1102
(g139
I00
tp1103
a(g450
I00
tp1104
a(g135
I00
tp1105
a(g342
I00
tp1106
a(g61
I00
tp1107
a(g411
I00
tp1108
a(g40
I00
tp1109
a(g320
I00
tp1110
a(g452
I00
tp1111
a(g401
I00
tp1112
a(g47
I00
tp1113
a(g457
I00
tp1114
a(g101
I00
tp1115
a(g141
I00
tp1116
a(g38
I00
tp1117
a(g92
I00
tp1118
a(g209
I00
tp1119
a(g60
I00
tp1120
a(g43
I00
tp1121
a(g199
I00
tp1122
atp1123
Rp1124
s(g47
I00
tp1125
g75
((lp1126
(g55
I00
tp1127
a(g40
I00
tp1128
a(g101
I00
tp1129
a(g452
I00
tp1130
a(g92
I00
tp1131
atp1132
Rp1133
s(g401
I01
tp1134
g75
((lp1135
(g55
I00
tp1136
a(g397
I01
tp1137
a(g48
I00
tp1138
a(g40
I00
tp1139
a(g411
I01
tp1140
a(g395
I00
tp1141
a(g101
I00
tp1142
a(g92
I00
tp1143
a(g52
I01
tp1144
a(g452
I00
tp1145
atp1146
Rp1147
s(g49
I00
tp1148
g75
((lp1149
tp1150
Rp1151
s(g46
I01
tp1152
g75
((lp1153
(g417
I00
tp1154
a(g55
I00
tp1155
a(g450
I00
tp1156
a(g452
I00
tp1157
a(g342
I00
tp1158
a(g48
I00
tp1159
a(g77
I00
tp1160
a(g40
I00
tp1161
a(g320
I00
tp1162
a(g60
I00
tp1163
a(g457
I00
tp1164
a(g47
I00
tp1165
a(g36
I00
tp1166
a(g101
I00
tp1167
a(g38
I00
tp1168
a(g92
I00
tp1169
a(g416
I00
tp1170
a(g83
I00
tp1171
a(g43
I00
tp1172
atp1173
Rp1174
s(g63
I00
tp1175
g75
((lp1176
(g338
I00
tp1177
a(g310
I00
tp1178
a(g180
I00
tp1179
a(g43
I00
tp1180
atp1181
Rp1182
s(g60
I00
tp1183
g75
((lp1184
(g55
I00
tp1185
a(g101
I00
tp1186
a(g40
I00
tp1187
a(S'integer'
p1188
I00
tp1189
a(g452
I00
tp1190
a(g92
I00
tp1191
atp1192
Rp1193
ssS'prereq'
p1194
g423
(g75
tp1195
Rp1196
g342
g75
((lp1197
g36
ag800
ag195
ag52
ag348
ag40
ag54
ag63
ag43
ag45
ag416
ag46
ag189
ag644
ag419
atp1198
Rp1199
sg55
g75
((lp1200
g342
ag45
ag92
ag38
ag624
ag52
ag54
ag401
ag43
ag56
ag416
ag60
ag644
ag63
ag36
ag328
ag83
ag40
ag41
ag411
ag46
ag47
ag419
ag800
ag195
ag612
ag57
ag189
atp1201
Rp1202
sg92
g75
((lp1203
g36
ag42
ag195
ag38
ag401
ag348
ag612
ag45
ag416
ag60
ag46
ag47
ag419
ag83
ag644
ag52
atp1204
Rp1205
sg457
g75
((lp1206
g36
ag800
ag195
ag38
ag348
ag40
ag54
ag43
ag53
ag45
ag416
ag46
ag419
ag644
ag92
ag52
atp1207
Rp1208
sg52
g75
((lp1209
g251
ag348
ag92
ag328
ag54
ag401
ag43
ag56
ag597
ag60
ag63
ag418
ag42
ag38
ag40
ag332
ag44
ag88
ag419
ag800
ag51
ag411
ag344
ag189
ag83
atp1210
Rp1211
sg450
g75
((lp1212
g36
ag800
ag195
ag52
ag348
ag251
ag40
ag249
ag63
ag43
ag56
ag57
ag53
ag45
ag416
ag46
ag61
ag419
ag644
ag41
atp1213
Rp1214
sg401
g75
((lp1215
g42
ag800
ag195
ag52
ag40
ag348
ag88
ag419
ag92
ag38
atp1216
Rp1217
sg43
g75
((lp1218
g36
ag800
ag195
ag52
ag249
ag342
ag40
ag54
ag332
ag348
ag56
ag344
ag53
ag45
ag416
ag46
ag189
ag419
ag644
ag63
atp1219
Rp1220
sg205
g75
((lp1221
g800
ag195
ag52
ag40
ag54
ag332
ag43
ag344
ag419
ag53
ag348
ag189
ag63
atp1222
Rp1223
sg59
g75
((lp1224
g418
ag800
ag38
ag251
ag40
ag54
ag42
ag43
ag344
ag52
ag44
ag348
ag328
ag60
ag46
ag88
ag419
ag644
ag92
ag83
atp1225
Rp1226
sg60
g75
((lp1227
g36
ag800
ag195
ag38
ag40
ag42
ag348
ag612
ag45
ag416
ag83
ag46
ag88
ag419
ag644
ag92
ag52
atp1228
Rp1229
sg430
g75
((lp1230
g418
ag800
ag38
ag251
ag40
ag54
ag42
ag43
ag344
ag44
ag348
ag597
ag60
ag46
ag88
ag419
ag328
ag92
ag83
atp1231
Rp1232
sg63
g75
((lp1233
g800
ag195
ag52
ag251
ag40
ag54
ag43
ag56
ag348
ag419
ag189
atp1234
Rp1235
sg428
g75
((lp1236
g328
ag42
ag195
ag38
ag348
ag251
ag40
ag54
ag43
ag344
ag800
ag45
ag416
ag60
ag46
ag88
ag419
ag644
ag92
ag52
atp1237
Rp1238
sg37
g75
((lp1239
tp1240
Rp1241
sg38
g75
((lp1242
g42
ag36
ag195
ag52
ag40
ag800
ag45
ag348
ag416
ag60
ag46
ag88
ag419
ag644
ag92
atp1243
Rp1244
sg39
g75
((lp1245
g419
atp1246
Rp1247
sg40
g75
((lp1248
g251
ag348
ag38
ag249
ag52
ag844
ag401
ag43
ag56
ag416
ag60
ag644
ag41
ag36
ag83
ag63
ag53
ag46
ag47
ag419
ag800
ag195
ag612
ag45
ag57
ag61
atp1249
Rp1250
sg316
g75
((lp1251
g800
ag195
ag52
ag40
ag54
ag43
ag56
ag344
ag348
ag419
ag189
atp1252
Rp1253
sg101
g75
((lp1254
g36
ag195
ag38
ag401
ag348
ag612
ag45
ag416
ag60
ag46
ag47
ag419
ag83
ag92
ag644
ag52
atp1255
Rp1256
sg44
g75
((lp1257
g42
ag800
ag83
ag40
ag348
ag416
ag60
ag46
ag88
ag644
ag92
ag52
atp1258
Rp1259
sg46
g75
((lp1260
g418
ag800
ag38
ag328
ag251
ag40
ag54
ag42
ag43
ag344
ag44
ag348
ag597
ag60
ag88
ag419
ag417
ag92
ag83
atp1261
Rp1262
sg96
g75
((lp1263
g36
ag800
ag195
ag38
ag348
ag40
ag42
ag401
ag612
ag45
ag416
ag60
ag46
ag419
ag83
ag92
ag644
ag52
atp1264
Rp1265
sg48
g75
((lp1266
g251
ag348
ag92
ag328
ag52
ag54
ag401
ag43
ag56
ag416
ag60
ag644
ag63
ag418
ag42
ag38
ag39
ag40
ag332
ag411
ag46
ag88
ag800
ag51
ag344
ag189
atp1267
Rp1268
sg452
g75
((lp1269
g251
ag348
ag38
ag249
ag52
ag844
ag401
ag43
ag56
ag416
ag60
ag644
ag41
ag36
ag83
ag40
ag63
ag53
ag46
ag47
ag419
ag195
ag612
ag45
ag57
ag61
atp1270
Rp1271
sg51
g75
((lp1272
g251
ag348
ag92
ag328
ag52
ag54
ag401
ag43
ag56
ag60
ag63
ag418
ag42
ag38
ag40
ag332
ag411
ag88
ag419
ag800
ag344
ag189
atp1273
Rp1274
sg411
g75
((lp1275
g328
ag800
ag195
ag52
ag40
ag54
ag401
ag43
ag56
ag348
ag419
ag92
ag189
ag38
atp1276
Rp1277
sg45
g75
((lp1278
g42
ag418
ag38
ag251
ag40
ag54
ag43
ag344
ag800
ag348
ag60
ag88
ag328
ag92
atp1279
Rp1280
sg320
g75
((lp1281
g36
ag800
ag195
ag52
ag40
ag54
ag41
ag43
ag56
ag348
ag416
ag46
ag45
ag644
ag419
atp1282
Rp1283
sg61
g75
((lp1284
g800
ag195
ag52
ag251
ag40
ag54
ag63
ag43
ag56
ag53
ag348
ag419
ag41
atp1285
Rp1286
sg83
g75
((lp1287
g42
ag800
ag52
ag40
ag44
ag348
ag416
ag60
ag46
ag88
ag644
ag92
atp1288
Rp1289
ssS'beta_triggers'
p1290
g423
(g75
tp1291
Rp1292
(g42
I01
tp1293
(lp1294
I8
aI9
aI10
aI13
aI14
aI16
aI17
aI18
aI21
aI22
aI23
aI24
aI25
aI26
aI27
aI30
aI31
aI33
aI36
as(g45
I00
tp1295
(lp1296
I3
aI4
aI7
aI8
aI10
aI35
aI36
as(g36
I00
tp1297
(lp1298
I3
aI4
aI7
aI8
aI10
aI35
aI36
as(g332
I01
tp1299
(lp1300
I4
aI5
aI6
aI9
aI10
aI12
aI13
aI15
aI17
aI18
aI22
aI26
aI28
aI35
aI36
as(g43
I01
tp1301
(lp1302
I0
aI34
aI35
as(g419
I00
tp1303
g75
((lp1304
tp1305
Rp1306
s(g57
I00
tp1307
(lp1308
I7
aI8
aI10
aI15
aI16
aI21
aI36
as(g44
I01
tp1309
(lp1310
I3
aI5
aI6
aI23
aI24
aI25
aI26
aI27
as(g249
I00
tp1311
(lp1312
I15
aI17
aI21
aI22
as(g92
I01
tp1313
(lp1314
I8
aI10
aI11
aI12
aI13
aI14
aI16
aI18
aI19
aI20
aI21
aI22
aI23
aI24
aI25
aI26
as(g63
I01
tp1315
(lp1316
I4
aI5
aI6
aI8
aI9
aI11
aI14
aI15
aI16
aI17
aI21
aI25
aI28
aI35
aI36
as(g83
I01
tp1317
(lp1318
I3
aI5
aI6
aI7
aI8
aI10
aI15
aI16
aI18
aI23
aI24
aI25
aI26
aI27
aI34
aI35
aI36
as(g597
I01
tp1319
(lp1320
I0
aI3
aI5
aI6
aI23
aI24
aI25
aI26
aI27
as(g60
I01
tp1321
(lp1322
I8
aI9
aI10
aI13
aI14
aI16
aI17
aI18
aI21
aI22
aI23
aI24
aI25
aI26
aI27
aI35
aI36
as(g348
I01
tp1323
(lp1324
s(g418
I01
tp1325
(lp1326
I0
aI8
aI9
aI10
aI13
aI14
aI16
aI17
aI18
aI21
aI22
aI23
aI24
aI25
aI26
aI27
aI34
aI35
aI36
as(g58
I00
tp1327
(lp1328
I30
aI32
aI33
as(g39
I00
tp1329
(lp1330
s(g54
I01
tp1331
(lp1332
I0
aI30
aI31
aI32
aI34
aI35
as(g419
I01
tp1333
(lp1334
I0
as(g61
I00
tp1335
(lp1336
I7
aI8
aI9
aI13
aI15
aI16
aI17
aI21
as(g53
I00
tp1337
(lp1338
I7
aI9
aI13
aI14
aI15
aI17
aI21
aI22
as(g328
I01
tp1339
(lp1340
I0
aI8
aI10
aI11
aI12
aI13
aI14
aI16
aI18
aI19
aI20
aI21
aI22
aI23
aI24
aI25
aI26
aI34
aI35
as(g139
I00
tp1341
(lp1342
I7
aI8
aI10
aI15
aI16
aI18
aI36
as(g217
I00
tp1343
(lp1344
I15
aI17
aI18
aI22
as(g416
I00
tp1345
(lp1346
I3
aI4
aI7
aI8
aI10
aI35
aI36
as(g52
I01
tp1347
g75
((lp1348
tp1349
Rp1350
s(g56
I00
tp1351
(lp1352
I7
aI9
aI10
aI14
aI15
aI17
aI18
aI22
as(g800
I01
tp1353
(lp1354
I1
aI2
as(g612
I00
tp1355
(lp1356
I0
aI7
aI8
aI10
aI15
aI16
aI18
aI34
aI35
aI36
as(g844
I00
tp1357
(lp1358
I15
aI16
aI17
aI21
as(g51
I01
tp1359
(lp1360
I4
aI5
aI6
aI8
aI9
aI10
aI13
aI14
aI35
aI36
as(g189
I01
tp1361
(lp1362
I4
aI5
aI6
aI15
aI18
aI22
aI23
aI26
aI27
aI35
as(g251
I01
tp1363
(lp1364
I0
aI8
aI9
aI11
aI14
aI16
aI17
aI19
aI22
aI24
aI26
aI27
aI28
aI29
aI34
aI35
aI36
as(g45
I01
tp1365
g75
((lp1366
tp1367
Rp1368
s(g359
I00
tp1369
(lp1370
I31
aI32
aI33
as(g411
I01
tp1371
(lp1372
I4
aI5
aI6
aI8
aI10
aI11
aI12
aI13
aI14
aI15
aI16
aI18
aI27
aI35
as(g56
I01
tp1373
(lp1374
I4
aI5
aI6
aI15
aI16
aI21
aI24
aI25
aI27
aI35
as(g624
I00
tp1375
(lp1376
I1
aI7
aI8
aI10
aI15
aI16
aI18
aI36
as(g88
I01
tp1377
(lp1378
I1
aI2
aI8
aI9
aI10
aI13
aI14
aI16
aI17
aI18
aI21
aI22
aI23
aI24
aI25
aI26
aI27
aI36
as(g52
I00
tp1379
(lp1380
s(g41
I00
tp1381
(lp1382
I7
aI8
aI13
aI15
aI16
aI21
aI36
as(g38
I01
tp1383
(lp1384
I0
aI8
aI10
aI11
aI12
aI13
aI14
aI16
aI18
aI19
aI20
aI21
aI22
aI23
aI24
aI25
aI26
as(g105
I00
tp1385
(lp1386
I3
aI5
as(g37
I01
tp1387
g75
((lp1388
tp1389
Rp1390
s(g417
I01
tp1391
(lp1392
I3
aI5
aI6
aI23
aI24
aI25
aI26
aI27
as(g342
I00
tp1393
(lp1394
I7
aI8
aI10
aI15
aI18
aI22
aI36
as(g83
I00
tp1395
g75
((lp1396
tp1397
Rp1398
s(g40
I01
tp1399
(lp1400
I1
aI2
as(g644
I00
tp1401
(lp1402
I3
aI4
aI7
aI8
aI10
aI35
aI36
as(g344
I01
tp1403
(lp1404
I0
aI9
aI10
aI12
aI13
aI17
aI18
aI20
aI21
aI23
aI25
aI27
aI28
aI29
aI34
aI35
aI36
as(g401
I00
tp1405
g75
((lp1406
tp1407
Rp1408
s(g195
I00
tp1409
(lp1410
s(g47
I00
tp1411
(lp1412
I7
aI8
aI10
aI15
aI16
aI18
aI35
aI36
as(g401
I01
tp1413
(lp1414
I4
aI5
aI6
aI8
aI10
aI11
aI12
aI13
aI14
aI15
aI16
aI18
aI27
as(g49
I00
tp1415
(lp1416
I2
as(g46
I01
tp1417
(lp1418
I7
aI8
aI10
aI35
aI36
as(g63
I00
tp1419
(lp1420
I7
aI10
aI14
aI15
aI18
aI22
aI36
as(g60
I00
tp1421
(lp1422
I7
aI8
aI10
aI15
aI16
aI18
aI34
aI35
aI36
assbsS'_generator'
p1423
(dp1424
g50
I01
sS'finite'
p1425
I01
ssbsbg3
tp1426
Rp1427
(dp1428
bg5
(g26
(S'\\gamma'
p1429
tp1430
Rp1431
(dp1432
g31
g32
(g33
g34
(dp1433
g36
I01
sg37
Nsg38
Nsg39
Nsg40
Nsg41
Nsg42
Nsg43
Nsg44
Nsg45
I01
sg46
I00
sg47
Nsg48
I00
sg49
Nsg50
I01
sg51
I01
sg52
I01
sg53
I01
sg54
Nsg55
I00
sg56
Nsg57
Nsg58
Nsg59
I01
sg60
Nsg61
Nsg62
I01
sg63
Nstp1434
Rp1435
(dp1436
g67
g71
sg1423
(dp1437
g50
I01
sg1425
I01
ssbsbg3
tp1438
Rp1439
(dp1440
bg5
(csympy.core.add
Add
p1441
(g0
(g6
(I16
tp1442
Rp1443
(dp1444
bg5
(g26
(S'\\gamma'
p1445
tp1446
Rp1447
(dp1448
g31
g32
(g33
g34
(dp1449
S'real'
p1450
I01
sS'polar'
p1451
NsS'irrational'
p1452
NsS'antihermitian'
p1453
NsS'composite'
p1454
NsS'extended_nonnegative'
p1455
NsS'even'
p1456
NsS'algebraic'
p1457
NsS'hermitian'
p1458
I01
sS'infinite'
p1459
I00
sS'integer'
p1460
NsS'imaginary'
p1461
I00
sS'odd'
p1462
NsS'nonzero'
p1463
I01
sS'extended_real'
p1464
I01
sS'commutative'
p1465
I01
sS'zero'
p1466
I00
sS'extended_nonzero'
p1467
I01
sS'positive'
p1468
NsS'negative'
p1469
NsS'extended_negative'
p1470
NsS'nonnegative'
p1471
NsS'prime'
p1472
NsS'complex'
p1473
I01
sS'rational'
p1474
NsS'extended_positive'
p1475
NsS'finite'
p1476
I01
sS'extended_nonpositive'
p1477
Nstp1478
Rp1479
(dp1480
g67
g32
(g68
g69
Ntp1481
Rp1482
(dp1483
g73
(lp1484
(g75
((lp1485
(S'algebraic'
p1486
I00
tp1487
a(S'complex'
p1488
I01
tp1489
atp1490
Rp1491
(S'transcendental'
p1492
I01
tp1493
tp1494
a(g75
((lp1495
(g1456
I00
tp1496
a(S'integer'
p1497
I01
tp1498
atp1499
Rp1500
(S'odd'
p1501
I01
tp1502
tp1503
a(g75
((lp1504
(S'integer'
p1505
I01
tp1506
a(g1462
I00
tp1507
atp1508
Rp1509
(S'even'
p1510
I01
tp1511
tp1512
a(g75
((lp1513
(S'infinite'
p1514
I00
tp1515
a(S'real'
p1516
I00
tp1517
atp1518
Rp1519
(S'extended_real'
p1520
I00
tp1521
tp1522
a(g75
((lp1523
(g1520
I01
tp1524
a(g1516
I00
tp1525
atp1526
Rp1527
(g1514
I01
tp1528
tp1529
a(g75
((lp1530
(g1520
I01
tp1531
a(g1514
I00
tp1532
atp1533
Rp1534
(g1516
I01
tp1535
tp1536
a(g75
((lp1537
(S'extended_real'
p1538
I01
tp1539
a(S'finite'
p1540
I01
tp1541
atp1542
Rp1543
(S'real'
p1544
I01
tp1545
tp1546
a(g75
((lp1547
(S'zero'
p1548
I00
tp1549
a(S'extended_negative'
p1550
I00
tp1551
a(g1475
I00
tp1552
atp1553
Rp1554
(S'extended_real'
p1555
I00
tp1556
tp1557
a(g75
((lp1558
(g1548
I00
tp1559
a(g1555
I01
tp1560
a(g1475
I00
tp1561
atp1562
Rp1563
(g1550
I01
tp1564
tp1565
a(g75
((lp1566
(g1475
I00
tp1567
a(g1555
I01
tp1568
a(g1550
I00
tp1569
atp1570
Rp1571
(g1548
I01
tp1572
tp1573
a(g75
((lp1574
(g1548
I00
tp1575
a(g1555
I01
tp1576
a(g1550
I00
tp1577
atp1578
Rp1579
(g1475
I01
tp1580
tp1581
a(g75
((lp1582
(S'extended_nonzero'
p1583
I01
tp1584
a(S'extended_nonpositive'
p1585
I01
tp1586
atp1587
Rp1588
(S'extended_negative'
p1589
I01
tp1590
tp1591
a(g75
((lp1592
(S'extended_nonzero'
p1593
I01
tp1594
a(g1455
I01
tp1595
atp1596
Rp1597
(S'extended_positive'
p1598
I01
tp1599
tp1600
a(g75
((lp1601
(S'extended_positive'
p1602
I00
tp1603
a(S'extended_real'
p1604
I01
tp1605
atp1606
Rp1607
(S'extended_nonpositive'
p1608
I01
tp1609
tp1610
a(g75
((lp1611
(S'extended_real'
p1612
I01
tp1613
a(S'extended_negative'
p1614
I00
tp1615
atp1616
Rp1617
(S'extended_nonnegative'
p1618
I01
tp1619
tp1620
a(g75
((lp1621
(S'zero'
p1622
I00
tp1623
a(S'positive'
p1624
I00
tp1625
a(S'negative'
p1626
I00
tp1627
atp1628
Rp1629
(S'real'
p1630
I00
tp1631
tp1632
a(g75
((lp1633
(g1630
I01
tp1634
a(g1622
I00
tp1635
a(g1624
I00
tp1636
atp1637
Rp1638
(g1626
I01
tp1639
tp1640
a(g75
((lp1641
(g1630
I01
tp1642
a(g1624
I00
tp1643
a(g1626
I00
tp1644
atp1645
Rp1646
(g1622
I01
tp1647
tp1648
a(g75
((lp1649
(g1630
I01
tp1650
a(g1622
I00
tp1651
a(g1626
I00
tp1652
atp1653
Rp1654
(g1624
I01
tp1655
tp1656
a(g75
((lp1657
(S'nonzero'
p1658
I01
tp1659
a(S'nonpositive'
p1660
I01
tp1661
atp1662
Rp1663
(g1469
I01
tp1664
tp1665
a(g75
((lp1666
(S'nonzero'
p1667
I01
tp1668
a(g1471
I01
tp1669
atp1670
Rp1671
(S'positive'
p1672
I01
tp1673
tp1674
a(g75
((lp1675
(S'real'
p1676
I01
tp1677
a(S'positive'
p1678
I00
tp1679
atp1680
Rp1681
(S'nonpositive'
p1682
I01
tp1683
tp1684
a(g75
((lp1685
(S'real'
p1686
I01
tp1687
a(S'negative'
p1688
I00
tp1689
atp1690
Rp1691
(S'nonnegative'
p1692
I01
tp1693
tp1694
a(g75
((lp1695
(S'finite'
p1696
I01
tp1697
a(S'extended_positive'
p1698
I01
tp1699
atp1700
Rp1701
(g1468
I01
tp1702
tp1703
a(g75
((lp1704
(g1470
I01
tp1705
a(S'finite'
p1706
I01
tp1707
atp1708
Rp1709
(S'negative'
p1710
I01
tp1711
tp1712
a(g75
((lp1713
(S'finite'
p1714
I01
tp1715
a(g1477
I01
tp1716
atp1717
Rp1718
(S'nonpositive'
p1719
I01
tp1720
tp1721
a(g75
((lp1722
(S'finite'
p1723
I01
tp1724
a(S'extended_nonnegative'
p1725
I01
tp1726
atp1727
Rp1728
(S'nonnegative'
p1729
I01
tp1730
tp1731
a(g75
((lp1732
(g1476
I01
tp1733
a(g1467
I01
tp1734
atp1735
Rp1736
(S'nonzero'
p1737
I01
tp1738
tp1739
a(g75
((lp1740
(S'extended_nonnegative'
p1741
I01
tp1742
a(S'extended_nonpositive'
p1743
I01
tp1744
atp1745
Rp1746
(S'zero'
p1747
I01
tp1748
tp1749
a(g75
((lp1750
(S'nonpositive'
p1751
I01
tp1752
a(S'nonnegative'
p1753
I01
tp1754
atp1755
Rp1756
(S'zero'
p1757
I01
tp1758
tp1759
a(g75
((lp1760
(S'even'
p1761
I01
tp1762
a(g1472
I00
tp1763
a(S'positive'
p1764
I01
tp1765
atp1766
Rp1767
(S'composite'
p1768
I01
tp1769
tp1770
a(g75
((lp1771
(g1761
I01
tp1772
a(g1768
I00
tp1773
a(g1764
I01
tp1774
atp1775
Rp1776
(g1472
I01
tp1777
tp1778
a(g75
((lp1779
(g1768
I00
tp1780
a(g1472
I00
tp1781
a(g1764
I01
tp1782
atp1783
Rp1784
(g1761
I00
tp1785
tp1786
a(g75
((lp1787
(g1761
I01
tp1788
a(g1768
I00
tp1789
a(g1472
I00
tp1790
atp1791
Rp1792
(g1764
I00
tp1793
tp1794
a(g75
((lp1795
(S'real'
p1796
I01
tp1797
a(g1474
I00
tp1798
atp1799
Rp1800
(g1452
I01
tp1801
tp1802
a(g75
((lp1803
(S'integer'
p1804
I00
tp1805
a(S'extended_real'
p1806
I01
tp1807
atp1808
Rp1809
(S'noninteger'
p1810
I01
tp1811
tp1812
a(g75
((lp1813
(S'zero'
p1814
I00
tp1815
a(S'extended_real'
p1816
I01
tp1817
atp1818
Rp1819
(S'extended_nonzero'
p1820
I01
tp1821
tp1822
asg414
g75
((lp1823
g1751
ag1458
ag1462
ag1456
ag1465
ag1468
ag1810
ag1469
ag1470
aS'complex'
p1824
ag1474
aS'finite'
p1825
ag1455
aS'real'
p1826
ag1737
ag1452
ag1453
ag1454
ag1477
ag1467
ag1514
ag1460
aS'imaginary'
p1827
ag1472
ag1464
ag1457
ag1757
ag1471
ag1475
ag1492
atp1828
Rp1829
sg422
g423
(g75
tp1830
Rp1831
(g1456
I01
tp1832
g75
((lp1833
(S'real'
p1834
I01
tp1835
a(g1459
I00
tp1836
a(g1461
I00
tp1837
a(g1464
I01
tp1838
a(g1457
I01
tp1839
a(g1810
I00
tp1840
a(S'finite'
p1841
I01
tp1842
a(g1505
I01
tp1843
a(g1452
I00
tp1844
a(g1501
I00
tp1845
a(g1465
I01
tp1846
a(g1474
I01
tp1847
a(g1473
I01
tp1848
a(g1492
I00
tp1849
a(g1458
I01
tp1850
atp1851
Rp1852
s(g1458
I00
tp1853
g75
((lp1854
(g1466
I00
tp1855
a(S'positive'
p1856
I00
tp1857
a(S'prime'
p1858
I00
tp1859
a(g1751
I00
tp1860
a(g1454
I00
tp1861
a(g1729
I00
tp1862
a(S'nonzero'
p1863
I00
tp1864
a(g1460
I00
tp1865
a(g1834
I00
tp1866
a(g1510
I00
tp1867
a(g1452
I00
tp1868
a(g1501
I00
tp1869
a(g1474
I00
tp1870
a(g1469
I00
tp1871
atp1872
Rp1873
s(g1450
I00
tp1874
g75
((lp1875
(g1622
I00
tp1876
a(g1624
I00
tp1877
a(g1863
I00
tp1878
a(g1682
I00
tp1879
a(g1454
I00
tp1880
a(g1692
I00
tp1881
a(g1460
I00
tp1882
a(g1858
I00
tp1883
a(g1510
I00
tp1884
a(g1452
I00
tp1885
a(g1501
I00
tp1886
a(S'rational'
p1887
I00
tp1888
a(g1626
I00
tp1889
atp1890
Rp1891
s(g1741
I01
tp1892
g75
((lp1893
(g1461
I00
tp1894
a(g1612
I01
tp1895
a(g1614
I00
tp1896
a(g1469
I00
tp1897
a(g1465
I01
tp1898
atp1899
Rp1900
s(g1469
I01
tp1901
g75
((lp1902
(g1630
I01
tp1903
a(g1658
I01
tp1904
a(g1856
I00
tp1905
a(g1858
I00
tp1906
a(g1459
I00
tp1907
a(g1660
I01
tp1908
a(g1464
I01
tp1909
a(g1475
I00
tp1910
a(g1454
I00
tp1911
a(g1692
I00
tp1912
a(g1820
I01
tp1913
a(g1461
I00
tp1914
a(g1470
I01
tp1915
a(g1706
I01
tp1916
a(g1466
I00
tp1917
a(g1477
I01
tp1918
a(g1465
I01
tp1919
a(g1725
I00
tp1920
a(g1473
I01
tp1921
a(g1458
I01
tp1922
atp1923
Rp1924
s(g1827
I00
tp1925
g75
((lp1926
tp1927
Rp1928
s(g1471
I00
tp1929
g75
((lp1930
(g1858
I00
tp1931
a(g1672
I00
tp1932
a(g1454
I00
tp1933
a(g1757
I00
tp1934
atp1935
Rp1936
s(g1457
I01
tp1937
g75
((lp1938
(g1465
I01
tp1939
a(g1459
I00
tp1940
a(g1473
I01
tp1941
a(g1492
I00
tp1942
a(g1841
I01
tp1943
atp1944
Rp1945
s(g1658
I00
tp1946
g75
((lp1947
(g1672
I00
tp1948
a(g1858
I00
tp1949
a(g1469
I00
tp1950
a(g1454
I00
tp1951
atp1952
Rp1953
s(g1501
I01
tp1954
g75
((lp1955
(g1834
I01
tp1956
a(g1466
I00
tp1957
a(g1459
I00
tp1958
a(g1461
I00
tp1959
a(g1464
I01
tp1960
a(g1456
I00
tp1961
a(g1457
I01
tp1962
a(g1737
I01
tp1963
a(g1820
I01
tp1964
a(g1810
I00
tp1965
a(g1841
I01
tp1966
a(g1497
I01
tp1967
a(g1452
I00
tp1968
a(g1465
I01
tp1969
a(g1474
I01
tp1970
a(g1473
I01
tp1971
a(g1492
I00
tp1972
a(g1458
I01
tp1973
atp1974
Rp1975
s(g1477
I01
tp1976
g75
((lp1977
(g1856
I00
tp1978
a(g1454
I00
tp1979
a(g1602
I00
tp1980
a(g1604
I01
tp1981
a(g1858
I00
tp1982
a(g1461
I00
tp1983
a(g1465
I01
tp1984
atp1985
Rp1986
s(g1474
I01
tp1987
g75
((lp1988
(S'real'
p1989
I01
tp1990
a(g1459
I00
tp1991
a(g1461
I00
tp1992
a(g1464
I01
tp1993
a(S'algebraic'
p1994
I01
tp1995
a(g1841
I01
tp1996
a(g1452
I00
tp1997
a(g1465
I01
tp1998
a(g1473
I01
tp1999
a(g1492
I00
tp2000
a(g1458
I01
tp2001
atp2002
Rp2003
s(S'complex'
p2004
I01
tp2005
g75
((lp2006
(g1465
I01
tp2007
a(g1459
I00
tp2008
a(g1841
I01
tp2009
atp2010
Rp2011
s(g1492
I01
tp2012
g75
((lp2013
(g1466
I00
tp2014
a(g1459
I00
tp2015
a(g1486
I00
tp2016
a(g1454
I00
tp2017
a(g1510
I00
tp2018
a(g1460
I00
tp2019
a(g1858
I00
tp2020
a(g1501
I00
tp2021
a(g1465
I01
tp2022
a(g1488
I01
tp2023
a(g1474
I00
tp2024
a(g1841
I01
tp2025
atp2026
Rp2027
s(g1757
I01
tp2028
g75
((lp2029
(S'even'
p2030
I01
tp2031
a(g1741
I01
tp2032
a(g1461
I00
tp2033
a(g1457
I01
tp2034
a(g1743
I01
tp2035
a(g1474
I01
tp2036
a(g1473
I01
tp2037
a(g1469
I00
tp2038
a(g1630
I01
tp2039
a(g1858
I00
tp2040
a(g1475
I00
tp2041
a(g1820
I00
tp2042
a(g1458
I01
tp2043
a(g1465
I01
tp2044
a(g1589
I00
tp2045
a(g1856
I00
tp2046
a(g1454
I00
tp2047
a(g1751
I01
tp2048
a(g1555
I01
tp2049
a(S'finite'
p2050
I01
tp2051
a(g1497
I01
tp2052
a(g1459
I00
tp2053
a(g1863
I00
tp2054
a(g1753
I01
tp2055
a(g1810
I00
tp2056
a(g1452
I00
tp2057
a(g1501
I00
tp2058
a(g1492
I00
tp2059
atp2060
Rp2061
s(g1826
I01
tp2062
g75
((lp2063
(S'complex'
p2064
I01
tp2065
a(g1461
I00
tp2066
a(g1538
I01
tp2067
a(g1540
I01
tp2068
a(g1465
I01
tp2069
a(g1459
I00
tp2070
a(g1458
I01
tp2071
atp2072
Rp2073
s(g1472
I00
tp2074
g75
((lp2075
tp2076
Rp2077
s(g1453
I00
tp2078
g75
((lp2079
(g1827
I00
tp2080
atp2081
Rp2082
s(g1468
I01
tp2083
g75
((lp2084
(g1630
I01
tp2085
a(g1466
I00
tp2086
a(g1459
I00
tp2087
a(g1682
I00
tp2088
a(g1698
I01
tp2089
a(g1461
I00
tp2090
a(g1464
I01
tp2091
a(g1820
I01
tp2092
a(g1667
I01
tp2093
a(g1471
I01
tp2094
a(g1696
I01
tp2095
a(g1469
I00
tp2096
a(g1741
I01
tp2097
a(g1465
I01
tp2098
a(g1477
I00
tp2099
a(g1473
I01
tp2100
a(g1458
I01
tp2101
a(g1589
I00
tp2102
atp2103
Rp2104
s(g1827
I01
tp2105
g75
((lp2106
(g1466
I00
tp2107
a(g1450
I00
tp2108
a(g1729
I00
tp2109
a(g1863
I00
tp2110
a(g1824
I01
tp2111
a(g1469
I00
tp2112
a(g1858
I00
tp2113
a(g1475
I00
tp2114
a(g1453
I01
tp2115
a(g1589
I00
tp2116
a(g1465
I01
tp2117
a(g1856
I00
tp2118
a(g1454
I00
tp2119
a(g1841
I01
tp2120
a(g1477
I00
tp2121
a(g1459
I00
tp2122
a(g1510
I00
tp2123
a(g1751
I00
tp2124
a(g1464
I00
tp2125
a(g1474
I00
tp2126
a(g1810
I00
tp2127
a(g1460
I00
tp2128
a(g1452
I00
tp2129
a(g1501
I00
tp2130
a(g1725
I00
tp2131
a(g1467
I00
tp2132
atp2133
Rp2134
s(g1475
I00
tp2135
g75
((lp2136
(g1858
I00
tp2137
a(g1468
I00
tp2138
a(g1454
I00
tp2139
atp2140
Rp2141
s(g1467
I00
tp2142
g75
((lp2143
(g1856
I00
tp2144
a(g1737
I00
tp2145
a(g1598
I00
tp2146
a(g1454
I00
tp2147
a(g1858
I00
tp2148
a(g1589
I00
tp2149
a(g1469
I00
tp2150
atp2151
Rp2152
s(g1458
I01
tp2153
g75
((lp2154
tp2155
Rp2156
s(g1737
I01
tp2157
g75
((lp2158
(g1450
I01
tp2159
a(g1466
I00
tp2160
a(g1459
I00
tp2161
a(g1461
I00
tp2162
a(g1464
I01
tp2163
a(g1467
I01
tp2164
a(g1476
I01
tp2165
a(g1465
I01
tp2166
a(g1473
I01
tp2167
a(g1458
I01
tp2168
atp2169
Rp2170
s(g1548
I00
tp2171
g75
((lp2172
tp2173
Rp2174
s(g1626
I00
tp2175
g75
((lp2176
tp2177
Rp2178
s(g1824
I00
tp2179
g75
((lp2180
(g1466
I00
tp2181
a(g1856
I00
tp2182
a(g1858
I00
tp2183
a(g1751
I00
tp2184
a(S'imaginary'
p2185
I00
tp2186
a(g1457
I00
tp2187
a(g1454
I00
tp2188
a(g1729
I00
tp2189
a(g1474
I00
tp2190
a(g1863
I00
tp2191
a(g1460
I00
tp2192
a(g1826
I00
tp2193
a(g1510
I00
tp2194
a(g1452
I00
tp2195
a(g1501
I00
tp2196
a(g1492
I00
tp2197
a(g1469
I00
tp2198
atp2199
Rp2200
s(g1465
I01
tp2201
g75
((lp2202
tp2203
Rp2204
s(g1470
I00
tp2205
g75
((lp2206
(g1710
I00
tp2207
atp2208
Rp2209
s(S'prime'
p2210
I01
tp2211
g75
((lp2212
(g1737
I01
tp2213
a(g1466
I00
tp2214
a(g1461
I00
tp2215
a(g1820
I01
tp2216
a(g1741
I01
tp2217
a(g1474
I01
tp2218
a(g1473
I01
tp2219
a(g1469
I00
tp2220
a(g1834
I01
tp2221
a(g1856
I01
tp2222
a(g1589
I00
tp2223
a(g1465
I01
tp2224
a(g1464
I01
tp2225
a(g1598
I01
tp2226
a(g1458
I01
tp2227
a(g1454
I00
tp2228
a(g1457
I01
tp2229
a(S'integer'
p2230
I01
tp2231
a(g1459
I00
tp2232
a(g1841
I01
tp2233
a(g1751
I00
tp2234
a(g1753
I01
tp2235
a(g1810
I00
tp2236
a(g1452
I00
tp2237
a(g1477
I00
tp2238
a(g1492
I00
tp2239
atp2240
Rp2241
s(g1994
I00
tp2242
g75
((lp2243
(g1466
I00
tp2244
a(g1858
I00
tp2245
a(g1454
I00
tp2246
a(g1460
I00
tp2247
a(g1510
I00
tp2248
a(g1501
I00
tp2249
a(S'rational'
p2250
I00
tp2251
atp2252
Rp2253
s(S'positive'
p2254
I00
tp2255
g75
((lp2256
(g1454
I00
tp2257
a(g1858
I00
tp2258
atp2259
Rp2260
s(g1464
I01
tp2261
g75
((lp2262
(g1461
I00
tp2263
a(S'commutative'
p2264
I01
tp2265
atp2266
Rp2267
s(g1598
I01
tp2268
g75
((lp2269
(g1466
I00
tp2270
a(g1751
I00
tp2271
a(g1461
I00
tp2272
a(g1555
I01
tp2273
a(g1593
I01
tp2274
a(g1589
I00
tp2275
a(g1455
I01
tp2276
a(g1465
I01
tp2277
a(g1608
I00
tp2278
a(g1469
I00
tp2279
atp2280
Rp2281
s(g1660
I01
tp2282
g75
((lp2283
(g1676
I01
tp2284
a(g1678
I00
tp2285
a(g1459
I00
tp2286
a(g1464
I01
tp2287
a(g1475
I00
tp2288
a(g1454
I00
tp2289
a(g1858
I00
tp2290
a(g1477
I01
tp2291
a(g1461
I00
tp2292
a(g1465
I01
tp2293
a(g1473
I01
tp2294
a(g1458
I01
tp2295
a(g1714
I01
tp2296
atp2297
Rp2298
s(g2050
I00
tp2299
g75
((lp2300
(g1466
I00
tp2301
a(g1468
I00
tp2302
a(g1858
I00
tp2303
a(g1719
I00
tp2304
a(g1461
I00
tp2305
a(g1486
I00
tp2306
a(g1454
I00
tp2307
a(g1729
I00
tp2308
a(g1492
I00
tp2309
a(g1544
I00
tp2310
a(g1460
I00
tp2311
a(g1737
I00
tp2312
a(g1510
I00
tp2313
a(g1452
I00
tp2314
a(g1501
I00
tp2315
a(g2004
I00
tp2316
a(g1474
I00
tp2317
a(g1710
I00
tp2318
atp2319
Rp2320
s(g1768
I00
tp2321
g75
((lp2322
tp2323
Rp2324
s(g1820
I01
tp2325
g75
((lp2326
(g1465
I01
tp2327
a(g1816
I01
tp2328
a(g1814
I00
tp2329
a(g1461
I00
tp2330
atp2331
Rp2332
s(g1470
I01
tp2333
g75
((lp2334
(g1466
I00
tp2335
a(g1856
I00
tp2336
a(g1555
I01
tp2337
a(g1465
I01
tp2338
a(g1461
I00
tp2339
a(g1454
I00
tp2340
a(g1729
I00
tp2341
a(g1583
I01
tp2342
a(g1858
I00
tp2343
a(g1585
I01
tp2344
a(g1475
I00
tp2345
a(g1618
I00
tp2346
atp2347
Rp2348
s(g2030
I00
tp2349
g75
((lp2350
(g1466
I00
tp2351
atp2352
Rp2353
s(g1497
I01
tp2354
g75
((lp2355
(g1834
I01
tp2356
a(g1459
I00
tp2357
a(g1461
I00
tp2358
a(g1464
I01
tp2359
a(g1457
I01
tp2360
a(g1810
I00
tp2361
a(g1841
I01
tp2362
a(g1452
I00
tp2363
a(g1465
I01
tp2364
a(S'rational'
p2365
I01
tp2366
a(g1473
I01
tp2367
a(g1492
I00
tp2368
a(g1458
I01
tp2369
atp2370
Rp2371
s(g1465
I00
tp2372
g75
((lp2373
(g1466
I00
tp2374
a(g1450
I00
tp2375
a(g1461
I00
tp2376
a(g1729
I00
tp2377
a(g1469
I00
tp2378
a(g1858
I00
tp2379
a(g1475
I00
tp2380
a(g1486
I00
tp2381
a(g1467
I00
tp2382
a(g1589
I00
tp2383
a(S'complex'
p2384
I00
tp2385
a(g1856
I00
tp2386
a(g1454
I00
tp2387
a(g1863
I00
tp2388
a(g1725
I00
tp2389
a(g1510
I00
tp2390
a(g1751
I00
tp2391
a(S'extended_real'
p2392
I00
tp2393
a(g1474
I00
tp2394
a(g1810
I00
tp2395
a(g1460
I00
tp2396
a(g1452
I00
tp2397
a(g1501
I00
tp2398
a(g1477
I00
tp2399
a(g1492
I00
tp2400
atp2401
Rp2402
s(g1455
I00
tp2403
g75
((lp2404
(g1747
I00
tp2405
a(g1856
I00
tp2406
a(g1858
I00
tp2407
a(g1598
I00
tp2408
a(g1454
I00
tp2409
a(g1729
I00
tp2410
atp2411
Rp2412
s(g1452
I01
tp2413
g75
((lp2414
(g1796
I01
tp2415
a(g1466
I00
tp2416
a(g1464
I01
tp2417
a(g1858
I00
tp2418
a(g1459
I00
tp2419
a(g1461
I00
tp2420
a(g1454
I00
tp2421
a(g1510
I00
tp2422
a(g1820
I01
tp2423
a(g1737
I01
tp2424
a(g1460
I00
tp2425
a(g1810
I01
tp2426
a(g1501
I00
tp2427
a(g1465
I01
tp2428
a(g1473
I01
tp2429
a(g1474
I00
tp2430
a(g1458
I01
tp2431
a(g1841
I01
tp2432
atp2433
Rp2434
s(g1514
I00
tp2435
g75
((lp2436
tp2437
Rp2438
s(g1451
I01
tp2439
g75
((lp2440
tp2441
Rp2442
s(g1825
I01
tp2443
g75
((lp2444
(g1459
I00
tp2445
atp2446
Rp2447
s(g1751
I00
tp2448
g75
((lp2449
(g1757
I00
tp2450
a(g1469
I00
tp2451
atp2452
Rp2453
s(g1492
I00
tp2454
g75
((lp2455
tp2456
Rp2457
s(g1454
I01
tp2458
g75
((lp2459
(g1737
I01
tp2460
a(g1466
I00
tp2461
a(g1461
I00
tp2462
a(g1457
I01
tp2463
a(g1741
I01
tp2464
a(g1474
I01
tp2465
a(g1473
I01
tp2466
a(g1469
I00
tp2467
a(g1834
I01
tp2468
a(g2210
I00
tp2469
a(g2254
I01
tp2470
a(g1589
I00
tp2471
a(g1465
I01
tp2472
a(g1598
I01
tp2473
a(g1458
I01
tp2474
a(g1464
I01
tp2475
a(g1820
I01
tp2476
a(g1460
I01
tp2477
a(g1459
I00
tp2478
a(g1841
I01
tp2479
a(g1751
I00
tp2480
a(g1753
I01
tp2481
a(g1810
I00
tp2482
a(g1452
I00
tp2483
a(g1477
I00
tp2484
a(g1492
I00
tp2485
atp2486
Rp2487
s(g1753
I01
tp2488
g75
((lp2489
(g1686
I01
tp2490
a(g1459
I00
tp2491
a(g1461
I00
tp2492
a(g1464
I01
tp2493
a(g1688
I00
tp2494
a(g1723
I01
tp2495
a(g1589
I00
tp2496
a(g1725
I01
tp2497
a(g1465
I01
tp2498
a(g1473
I01
tp2499
a(g1458
I01
tp2500
atp2501
Rp2502
s(g1810
I00
tp2503
g75
((lp2504
tp2505
Rp2506
s(g1604
I00
tp2507
g75
((lp2508
(g1548
I00
tp2509
a(g1856
I00
tp2510
a(g1858
I00
tp2511
a(g1751
I00
tp2512
a(g1544
I00
tp2513
a(g1475
I00
tp2514
a(g1820
I00
tp2515
a(g1454
I00
tp2516
a(g1729
I00
tp2517
a(g1810
I00
tp2518
a(g1460
I00
tp2519
a(g1863
I00
tp2520
a(g1510
I00
tp2521
a(g1550
I00
tp2522
a(g1452
I00
tp2523
a(g1501
I00
tp2524
a(g1618
I00
tp2525
a(g1474
I00
tp2526
a(g1469
I00
tp2527
a(g1608
I00
tp2528
atp2529
Rp2530
s(g1460
I00
tp2531
g75
((lp2532
(g1466
I00
tp2533
a(g1454
I00
tp2534
a(g1858
I00
tp2535
a(g1510
I00
tp2536
a(g1501
I00
tp2537
atp2538
Rp2539
s(g1810
I01
tp2540
g75
((lp2541
(g1466
I00
tp2542
a(g1806
I01
tp2543
a(g1461
I00
tp2544
a(g1454
I00
tp2545
a(g1510
I00
tp2546
a(g1820
I01
tp2547
a(g1804
I00
tp2548
a(g1858
I00
tp2549
a(g1501
I00
tp2550
a(g1465
I01
tp2551
atp2552
Rp2553
s(g1462
I00
tp2554
g75
((lp2555
tp2556
Rp2557
s(g1459
I01
tp2558
g75
((lp2559
(g1825
I00
tp2560
a(g1466
I00
tp2561
a(g1856
I00
tp2562
a(g1858
I00
tp2563
a(g1751
I00
tp2564
a(g1461
I00
tp2565
a(g1486
I00
tp2566
a(g1454
I00
tp2567
a(g1729
I00
tp2568
a(g1474
I00
tp2569
a(g1863
I00
tp2570
a(g1460
I00
tp2571
a(g1450
I00
tp2572
a(g1510
I00
tp2573
a(g1452
I00
tp2574
a(g1501
I00
tp2575
a(g1824
I00
tp2576
a(g1492
I00
tp2577
a(g1469
I00
tp2578
atp2579
Rp2580
s(g1477
I00
tp2581
g75
((lp2582
(g1747
I00
tp2583
a(g1719
I00
tp2584
a(g1589
I00
tp2585
a(g1469
I00
tp2586
atp2587
Rp2588
s(g1474
I00
tp2589
g75
((lp2590
(g1466
I00
tp2591
a(g1510
I00
tp2592
a(g1454
I00
tp2593
a(S'integer'
p2594
I00
tp2595
a(g1858
I00
tp2596
a(g1501
I00
tp2597
atp2598
Rp2599
ssg1194
g423
(g75
tp2600
Rp2601
g1751
g75
((lp2602
g1450
ag2210
ag1604
ag1465
ag1454
ag1468
ag1477
ag1469
ag1757
ag1824
ag1459
ag1598
ag1458
ag2050
ag1827
atp2603
Rp2604
sg1466
g75
((lp2605
g1450
ag2030
ag1492
ag1751
ag1454
ag1477
ag1994
ag1458
ag1459
ag1460
ag1827
ag1501
ag1452
ag1737
ag1604
ag1465
ag1820
ag1468
ag1810
ag1469
ag1470
ag1471
ag2210
ag1824
ag1474
ag1598
ag2050
ag1455
atp2606
Rp2607
sg1501
g75
((lp2608
g1450
ag1492
ag1994
ag1757
ag1459
ag1460
ag1827
ag1452
ag1456
ag1604
ag1465
ag1810
ag1458
ag1824
ag1474
ag2050
atp2609
Rp2610
sg1452
g75
((lp2611
g1456
ag1450
ag1604
ag1465
ag1454
ag2210
ag1458
ag1757
ag1824
ag1474
ag1459
ag1497
ag1827
ag2050
ag1501
atp2612
Rp2613
sg1863
g75
((lp2614
g1450
ag1452
ag1454
ag1467
ag1757
ag1459
ag1458
ag1501
ag1827
ag2210
ag1604
ag1465
ag1468
ag1469
ag1824
ag2050
atp2615
Rp2616
sg1451
g75
((lp2617
tp2618
Rp2619
sg1465
g75
((lp2620
g1826
ag1737
ag1452
ag1660
ag1454
ag1477
ag1820
ag1757
ag1497
ag1827
ag1753
ag1501
ag1456
ag1464
ag1457
ag1468
ag1810
ag1469
ag1470
ag1474
ag2210
ag2004
ag1492
ag1598
ag1741
atp2621
Rp2622
sg1856
g75
((lp2623
g1450
ag2210
ag1660
ag1454
ag1477
ag1467
ag1757
ag1459
ag1458
ag1827
ag1658
ag1604
ag1465
ag1469
ag1470
ag1471
ag1824
ag1475
ag2050
ag1455
atp2624
Rp2625
sg1810
g75
((lp2626
g1456
ag2210
ag1604
ag1465
ag1454
ag1757
ag1497
ag1827
ag1501
ag1452
atp2627
Rp2628
sg1469
g75
((lp2629
g1450
ag2210
ag1751
ag1454
ag1741
ag1467
ag1757
ag1459
ag1827
ag1658
ag1604
ag1465
ag1468
ag1458
ag1470
ag1753
ag1824
ag1598
ag2050
ag1477
atp2630
Rp2631
sg1614
g75
((lp2632
g2210
ag1604
ag1465
ag1454
ag1468
ag1741
ag1469
ag1753
ag1467
ag1757
ag1598
ag1827
ag1477
atp2633
Rp2634
sg1473
g75
((lp2635
g1826
ag2210
ag1452
ag1660
ag1454
ag1457
ag1757
ag1737
ag1459
ag1497
ag1827
ag1501
ag1465
ag1456
ag1492
ag1468
ag1469
ag1753
ag1474
ag2050
atp2636
Rp2637
sg1474
g75
((lp2638
g1450
ag2210
ag1452
ag1454
ag1994
ag1757
ag1459
ag1497
ag1827
ag1501
ag1456
ag1604
ag1465
ag1458
ag1824
ag1492
ag2050
atp2639
Rp2640
sg1841
g75
((lp2641
g1826
ag2210
ag1474
ag1660
ag1454
ag1457
ag1757
ag1459
ag1497
ag1827
ag1501
ag1452
ag1456
ag1468
ag1469
ag1753
ag2004
ag1492
ag1737
atp2642
Rp2643
sg1477
g75
((lp2644
g2210
ag1604
ag1465
ag1660
ag1454
ag1468
ag1469
ag1470
ag1757
ag1827
ag1598
atp2645
Rp2646
sg1834
g75
((lp2647
g1737
ag1452
ag1660
ag1454
ag1757
ag1459
ag1497
ag1458
ag1501
ag1827
ag1456
ag1604
ag1465
ag1468
ag1469
ag1753
ag2210
ag1824
ag1474
ag2050
atp2648
Rp2649
sg1510
g75
((lp2650
g1450
ag1492
ag1994
ag1757
ag1459
ag1460
ag1827
ag1501
ag1452
ag1604
ag1465
ag1810
ag1458
ag1824
ag1474
ag2050
atp2651
Rp2652
sg1492
g75
((lp2653
g1456
ag2210
ag1465
ag1454
ag1457
ag1757
ag1824
ag1474
ag1459
ag1497
ag2050
ag1501
atp2654
Rp2655
sg1453
g75
((lp2656
g1827
atp2657
Rp2658
sg1454
g75
((lp2659
g1450
ag2210
ag1458
ag1492
ag1660
ag1455
ag1994
ag1757
ag1459
ag1460
ag1827
ag1452
ag1658
ag1604
ag1465
ag1467
ag2254
ag1810
ag1469
ag1470
ag1471
ag1824
ag1474
ag1475
ag2050
ag1477
atp2660
Rp2661
sg1725
g75
((lp2662
g2210
ag1604
ag1465
ag1454
ag1468
ag1469
ag1470
ag1753
ag1757
ag1827
ag1598
atp2663
Rp2664
sg1457
g75
((lp2665
g1456
ag2210
ag1492
ag1454
ag1757
ag1824
ag1474
ag1459
ag1497
ag2050
ag1501
ag1465
atp2666
Rp2667
sg1459
g75
((lp2668
g1826
ag2210
ag1474
ag1660
ag1454
ag1457
ag1757
ag1737
ag1497
ag1827
ag1501
ag1452
ag1456
ag1468
ag1469
ag1753
ag2004
ag1492
ag1825
atp2669
Rp2670
sg1505
g75
((lp2671
g1450
ag2210
ag1492
ag1454
ag1994
ag1757
ag1459
ag1827
ag1501
ag1452
ag1456
ag1604
ag1465
ag1810
ag1458
ag1824
ag1474
ag2050
atp2672
Rp2673
sg1461
g75
((lp2674
g1826
ag1737
ag1452
ag1453
ag1660
ag1454
ag1477
ag1820
ag1757
ag1459
ag1497
ag1501
ag1456
ag1464
ag1465
ag1468
ag1810
ag1469
ag1470
ag1753
ag2210
ag1824
ag1474
ag1598
ag2050
ag1741
atp2675
Rp2676
sg1858
g75
((lp2677
g1450
ag1458
ag1492
ag1660
ag1454
ag1455
ag1994
ag1757
ag1459
ag1460
ag1827
ag1452
ag1658
ag1604
ag1465
ag1467
ag2254
ag1810
ag1469
ag1470
ag1471
ag1824
ag1474
ag1475
ag2050
ag1477
atp2678
Rp2679
sg1464
g75
((lp2680
g1826
ag1737
ag1452
ag1660
ag1454
ag1477
ag1820
ag1757
ag1497
ag1827
ag1501
ag1456
ag1465
ag1468
ag1810
ag1469
ag1470
ag1753
ag2210
ag1474
ag1598
ag1741
atp2681
Rp2682
sg1820
g75
((lp2683
g1737
ag2210
ag1604
ag1465
ag1454
ag1468
ag1810
ag1469
ag1470
ag1757
ag1827
ag1501
ag1598
ag1452
atp2684
Rp2685
sg1458
g75
((lp2686
g1456
ag1826
ag1452
ag1660
ag1454
ag1468
ag1469
ag1753
ag2210
ag1757
ag1474
ag1497
ag1737
ag1501
atp2687
Rp2688
sg1729
g75
((lp2689
g1450
ag2210
ag1604
ag1465
ag1454
ag1468
ag1455
ag1469
ag1470
ag1757
ag1824
ag1459
ag1458
ag2050
ag1827
atp2690
Rp2691
sg1475
g75
((lp2692
g2210
ag1604
ag1465
ag1660
ag1454
ag1468
ag1477
ag1469
ag1470
ag1467
ag1757
ag1827
ag1455
atp2693
Rp2694
ssg1290
g423
(g75
tp2695
Rp2696
(g1456
I01
tp2697
(lp2698
I8
aI9
aI10
aI13
aI14
aI16
aI17
aI18
aI21
aI22
aI23
aI24
aI25
aI26
aI27
aI30
aI31
aI33
aI36
as(g1458
I00
tp2699
(lp2700
I3
aI4
aI7
aI8
aI10
aI35
aI36
as(g1450
I00
tp2701
(lp2702
I3
aI4
aI7
aI8
aI10
aI35
aI36
as(g1741
I01
tp2703
(lp2704
I4
aI5
aI6
aI9
aI10
aI12
aI13
aI15
aI17
aI18
aI22
aI26
aI28
aI35
aI36
as(g1469
I01
tp2705
(lp2706
I0
aI34
aI35
as(g1827
I00
tp2707
g75
((lp2708
tp2709
Rp2710
s(g1471
I00
tp2711
(lp2712
I7
aI8
aI10
aI15
aI16
aI21
aI36
as(g1457
I01
tp2713
(lp2714
I3
aI5
aI6
aI23
aI24
aI25
aI26
aI27
as(g1658
I00
tp2715
(lp2716
I15
aI17
aI21
aI22
as(g1501
I01
tp2717
(lp2718
I8
aI10
aI11
aI12
aI13
aI14
aI16
aI18
aI19
aI20
aI21
aI22
aI23
aI24
aI25
aI26
as(g1477
I01
tp2719
(lp2720
I4
aI5
aI6
aI8
aI9
aI11
aI14
aI15
aI16
aI17
aI21
aI25
aI28
aI35
aI36
as(g1474
I01
tp2721
(lp2722
I8
aI9
aI10
aI13
aI14
aI16
aI17
aI18
aI21
aI22
aI23
aI24
aI25
aI26
aI27
aI35
aI36
as(g2004
I01
tp2723
(lp2724
I0
aI3
aI5
aI6
aI23
aI24
aI25
aI26
aI27
as(g1492
I01
tp2725
(lp2726
I3
aI5
aI6
aI7
aI8
aI10
aI15
aI16
aI18
aI23
aI24
aI25
aI26
aI27
aI34
aI35
aI36
as(g1757
I01
tp2727
(lp2728
s(g1826
I01
tp2729
(lp2730
I0
aI8
aI9
aI10
aI13
aI14
aI16
aI17
aI18
aI21
aI22
aI23
aI24
aI25
aI26
aI27
aI34
aI35
aI36
as(g1472
I00
tp2731
(lp2732
I30
aI32
aI33
as(g1453
I00
tp2733
(lp2734
s(g1468
I01
tp2735
(lp2736
I0
aI30
aI31
aI32
aI34
aI35
as(g1827
I01
tp2737
(lp2738
I0
as(g1475
I00
tp2739
(lp2740
I7
aI8
aI9
aI13
aI15
aI16
aI17
aI21
as(g1467
I00
tp2741
(lp2742
I7
aI9
aI13
aI14
aI15
aI17
aI21
aI22
as(g1458
I01
tp2743
g75
((lp2744
tp2745
Rp2746
s(g1737
I01
tp2747
(lp2748
I0
aI8
aI10
aI11
aI12
aI13
aI14
aI16
aI18
aI19
aI20
aI21
aI22
aI23
aI24
aI25
aI26
aI34
aI35
as(g1548
I00
tp2749
(lp2750
I7
aI8
aI10
aI15
aI16
aI18
aI36
as(g1626
I00
tp2751
(lp2752
I15
aI17
aI18
aI22
as(g1824
I00
tp2753
(lp2754
I3
aI4
aI7
aI8
aI10
aI35
aI36
as(g1465
I01
tp2755
g75
((lp2756
tp2757
Rp2758
s(g1470
I00
tp2759
(lp2760
I7
aI9
aI10
aI14
aI15
aI17
aI18
aI22
as(g2210
I01
tp2761
(lp2762
I1
aI2
as(g1994
I00
tp2763
(lp2764
I0
aI7
aI8
aI10
aI15
aI16
aI18
aI34
aI35
aI36
as(g2254
I00
tp2765
(lp2766
I15
aI16
aI17
aI21
as(g1464
I01
tp2767
(lp2768
I4
aI5
aI6
aI8
aI9
aI10
aI13
aI14
aI35
aI36
as(g1598
I01
tp2769
(lp2770
I4
aI5
aI6
aI15
aI18
aI22
aI23
aI26
aI27
aI35
as(g1660
I01
tp2771
(lp2772
I0
aI8
aI9
aI11
aI14
aI16
aI17
aI19
aI22
aI24
aI26
aI27
aI28
aI29
aI34
aI35
aI36
as(g2050
I00
tp2773
(lp2774
I3
aI4
aI7
aI8
aI10
aI35
aI36
as(g1768
I00
tp2775
(lp2776
I31
aI32
aI33
as(g1820
I01
tp2777
(lp2778
I4
aI5
aI6
aI8
aI10
aI11
aI12
aI13
aI14
aI15
aI16
aI18
aI27
aI35
as(g1470
I01
tp2779
(lp2780
I4
aI5
aI6
aI15
aI16
aI21
aI24
aI25
aI27
aI35
as(g2030
I00
tp2781
(lp2782
I1
aI7
aI8
aI10
aI15
aI16
aI18
aI36
as(g1497
I01
tp2783
(lp2784
I1
aI2
aI8
aI9
aI10
aI13
aI14
aI16
aI17
aI18
aI21
aI22
aI23
aI24
aI25
aI26
aI27
aI36
as(g1465
I00
tp2785
(lp2786
s(g1455
I00
tp2787
(lp2788
I7
aI8
aI13
aI15
aI16
aI21
aI36
as(g1452
I01
tp2789
(lp2790
I0
aI8
aI10
aI11
aI12
aI13
aI14
aI16
aI18
aI19
aI20
aI21
aI22
aI23
aI24
aI25
aI26
as(g1514
I00
tp2791
(lp2792
I3
aI5
as(g1451
I01
tp2793
g75
((lp2794
tp2795
Rp2796
s(g1825
I01
tp2797
(lp2798
I3
aI5
aI6
aI23
aI24
aI25
aI26
aI27
as(g1751
I00
tp2799
(lp2800
I7
aI8
aI10
aI15
aI18
aI22
aI36
as(g1492
I00
tp2801
g75
((lp2802
tp2803
Rp2804
s(g1454
I01
tp2805
(lp2806
I1
aI2
as(g1753
I01
tp2807
(lp2808
I0
aI9
aI10
aI12
aI13
aI17
aI18
aI20
aI21
aI23
aI25
aI27
aI28
aI29
aI34
aI35
aI36
as(g1810
I00
tp2809
g75
((lp2810
tp2811
Rp2812
s(g1604
I00
tp2813
(lp2814
s(g1460
I00
tp2815
(lp2816
I7
aI8
aI10
aI15
aI16
aI18
aI35
aI36
as(g1810
I01
tp2817
(lp2818
I4
aI5
aI6
aI8
aI10
aI11
aI12
aI13
aI14
aI15
aI16
aI18
aI27
as(g1462
I00
tp2819
(lp2820
I2
as(g1459
I01
tp2821
(lp2822
I7
aI8
aI10
aI35
aI36
as(g1477
I00
tp2823
(lp2824
I7
aI10
aI14
aI15
aI18
aI22
aI36
as(g1474
I00
tp2825
(lp2826
I7
aI8
aI10
aI15
aI16
aI18
aI34
aI35
aI36
assbsg1423
(dp2827
g1463
I01
sS'finite'
p2828
I01
ssbsbg8
tp2829
Rp2830
(dp2831
btp2832
Rp2833
(dp2834
bg0
(g24
g5
(g26
(S'\\alpha'
p2835
tp2836
Rp2837
(dp2838
g31
g32
(g33
g34
(dp2839
g1450
I01
sg1451
Nsg1452
Nsg1453
Nsg1454
Nsg1455
Nsg1456
Nsg1457
Nsg1458
I01
sg1459
I00
sg1460
Nsg1461
I00
sg1462
Nsg1463
I01
sg1464
I01
sg1465
I01
sg1466
I00
sg1467
I01
sg1468
Nsg1469
Nsg1470
Nsg1471
Nsg1472
Nsg1473
I01
sg1474
Nsg1475
Nsg1476
I01
sg1477
Nstp2840
Rp2841
(dp2842
g67
g1482
sg1423
(dp2843
g1463
I01
sg2828
I01
ssbsbg6
(I2
tp2844
Rp2845
(dp2846
btp2847
Rp2848
(dp2849
btp2850
Rp2851
(dp2852
bg0
(g24
g5
(g1447
g2845
tp2853
Rp2854
(dp2855
btp2856
Rp2857
(dp2858
bg0
(g6
(I4
tp2859
Rp2860
(dp2861
bg5
(g18
g2845
tp2862
Rp2863
(dp2864
bg5
(g2837
g21
tp2865
Rp2866
(dp2867
btp2868
Rp2869
(dp2870
bg0
(g6
(I8
tp2871
Rp2872
(dp2873
bg2863
g5
(g1447
g21
tp2874
Rp2875
(dp2876
btp2877
Rp2878
(dp2879
bg0
(g1443
g2866
g2854
tp2880
Rp2881
(dp2882
bg0
(g6
(I32
tp2883
Rp2884
(dp2885
bg2848
g2875
tp2886
Rp2887
(dp2888
bg0
(g6
(I12
tp2889
Rp2890
(dp2891
bg2863
g2848
g2854
tp2892
Rp2893
(dp2894
btp2895
Rp2896
(dp2897
bcsympy.core.numbers
Rational
p2898
(I-1
I2
tp2899
Rp2900
(dp2901
btp2902
Rp2903
(dp2904
bg1441
(g0
(g2860
g2848
tp2905
Rp2906
(dp2907
bg0
(g2898
(I8
I3
tp2908
Rp2909
(dp2910
bg2854
tp2911
Rp2912
(dp2913
btp2914
Rp2915
(dp2916
btp2917
Rp2918
(dp2919
b.