csympy.core.mul
Mul
p0
(csympy.core.power
Pow
p1
(csympy.core.numbers
Integer
p2
(I6
tp3
Rp4
(dp5
bcsympy.core.numbers
Half
p6
(I1
I2
tp7
Rp8
(dp9
btp10
Rp11
(dp12
bg1
(csympy.core.numbers
Pi
p13
(tRp14
(dp15
bg2
(I4
tp16
Rp17
(dp18
btp19
Rp20
(dp21
bg1
(csympy.core.symbol
Symbol
p22
(S'\\alpha'
p23
tp24
Rp25
(dp26
S'_assumptions'
p27
ccopy_reg
_reconstructor
p28
(csympy.core.assumptions
StdFactKB
p29
c__builtin__
dict
p30
(dp31
S'real'
p32
I01
sS'polar'
p33
NsS'irrational'
p34
NsS'antihermitian'
p35
NsS'composite'
p36
NsS'extended_nonnegative'
p37
NsS'even'
p38
NsS'algebraic'
p39
NsS'hermitian'
p40
I01
sS'infinite'
p41
I00
sS'integer'
p42
NsS'imaginary'
p43
I00
sS'odd'
p44
NsS'nonzero'
p45
I01
sS'extended_real'
p46
I01
sS'commutative'
p47
I01
sS'zero'
p48
I00
sS'extended_nonzero'
p49
I01
sS'positive'
p50
NsS'negative'
p51
NsS'extended_negative'
p52
NsS'nonnegative'
p53
NsS'prime'
p54
NsS'complex'
p55
I01
sS'rational'
p56
NsS'extended_positive'
p57
NsS'finite'
p58
I01
sS'extended_nonpositive'
p59
Nstp60
Rp61
(dp62
S'rules'
p63
g28
(csympy.core.facts
FactRules
p64
c__builtin__
object
p65
Ntp66
Rp67
(dp68
S'beta_rules'
p69
(lp70
(c__builtin__
set
p71
((lp72
(S'algebraic'
p73
I00
tp74
a(S'complex'
p75
I01
tp76
atp77
Rp78
(S'transcendental'
p79
I01
tp80
tp81
a(g71
((lp82
(g38
I00
tp83
a(S'integer'
p84
I01
tp85
atp86
Rp87
(S'odd'
p88
I01
tp89
tp90
a(g71
((lp91
(S'integer'
p92
I01
tp93
a(g44
I00
tp94
atp95
Rp96
(S'even'
p97
I01
tp98
tp99
a(g71
((lp100
(S'infinite'
p101
I00
tp102
a(S'real'
p103
I00
tp104
atp105
Rp106
(S'extended_real'
p107
I00
tp108
tp109
a(g71
((lp110
(g107
I01
tp111
a(g103
I00
tp112
atp113
Rp114
(g101
I01
tp115
tp116
a(g71
((lp117
(g107
I01
tp118
a(g101
I00
tp119
atp120
Rp121
(g103
I01
tp122
tp123
a(g71
((lp124
(S'extended_real'
p125
I01
tp126
a(S'finite'
p127
I01
tp128
atp129
Rp130
(S'real'
p131
I01
tp132
tp133
a(g71
((lp134
(S'zero'
p135
I00
tp136
a(S'extended_negative'
p137
I00
tp138
a(g57
I00
tp139
atp140
Rp141
(S'extended_real'
p142
I00
tp143
tp144
a(g71
((lp145
(g135
I00
tp146
a(g142
I01
tp147
a(g57
I00
tp148
atp149
Rp150
(g137
I01
tp151
tp152
a(g71
((lp153
(g57
I00
tp154
a(g142
I01
tp155
a(g137
I00
tp156
atp157
Rp158
(g135
I01
tp159
tp160
a(g71
((lp161
(g135
I00
tp162
a(g142
I01
tp163
a(g137
I00
tp164
atp165
Rp166
(g57
I01
tp167
tp168
a(g71
((lp169
(S'extended_nonzero'
p170
I01
tp171
a(S'extended_nonpositive'
p172
I01
tp173
atp174
Rp175
(S'extended_negative'
p176
I01
tp177
tp178
a(g71
((lp179
(S'extended_nonzero'
p180
I01
tp181
a(g37
I01
tp182
atp183
Rp184
(S'extended_positive'
p185
I01
tp186
tp187
a(g71
((lp188
(S'extended_positive'
p189
I00
tp190
a(S'extended_real'
p191
I01
tp192
atp193
Rp194
(S'extended_nonpositive'
p195
I01
tp196
tp197
a(g71
((lp198
(S'extended_real'
p199
I01
tp200
a(S'extended_negative'
p201
I00
tp202
atp203
Rp204
(S'extended_nonnegative'
p205
I01
tp206
tp207
a(g71
((lp208
(S'zero'
p209
I00
tp210
a(S'positive'
p211
I00
tp212
a(S'negative'
p213
I00
tp214
atp215
Rp216
(S'real'
p217
I00
tp218
tp219
a(g71
((lp220
(g217
I01
tp221
a(g209
I00
tp222
a(g211
I00
tp223
atp224
Rp225
(g213
I01
tp226
tp227
a(g71
((lp228
(g217
I01
tp229
a(g211
I00
tp230
a(g213
I00
tp231
atp232
Rp233
(g209
I01
tp234
tp235
a(g71
((lp236
(g217
I01
tp237
a(g209
I00
tp238
a(g213
I00
tp239
atp240
Rp241
(g211
I01
tp242
tp243
a(g71
((lp244
(S'nonzero'
p245
I01
tp246
a(S'nonpositive'
p247
I01
tp248
atp249
Rp250
(g51
I01
tp251
tp252
a(g71
((lp253
(S'nonzero'
p254
I01
tp255
a(g53
I01
tp256
atp257
Rp258
(S'positive'
p259
I01
tp260
tp261
a(g71
((lp262
(S'real'
p263
I01
tp264
a(S'positive'
p265
I00
tp266
atp267
Rp268
(S'nonpositive'
p269
I01
tp270
tp271
a(g71
((lp272
(S'real'
p273
I01
tp274
a(S'negative'
p275
I00
tp276
atp277
Rp278
(S'nonnegative'
p279
I01
tp280
tp281
a(g71
((lp282
(S'finite'
p283
I01
tp284
a(S'extended_positive'
p285
I01
tp286
atp287
Rp288
(g50
I01
tp289
tp290
a(g71
((lp291
(g52
I01
tp292
a(S'finite'
p293
I01
tp294
atp295
Rp296
(S'negative'
p297
I01
tp298
tp299
a(g71
((lp300
(S'finite'
p301
I01
tp302
a(g59
I01
tp303
atp304
Rp305
(S'nonpositive'
p306
I01
tp307
tp308
a(g71
((lp309
(S'finite'
p310
I01
tp311
a(S'extended_nonnegative'
p312
I01
tp313
atp314
Rp315
(S'nonnegative'
p316
I01
tp317
tp318
a(g71
((lp319
(g58
I01
tp320
a(g49
I01
tp321
atp322
Rp323
(S'nonzero'
p324
I01
tp325
tp326
a(g71
((lp327
(S'extended_nonnegative'
p328
I01
tp329
a(S'extended_nonpositive'
p330
I01
tp331
atp332
Rp333
(S'zero'
p334
I01
tp335
tp336
a(g71
((lp337
(S'nonpositive'
p338
I01
tp339
a(S'nonnegative'
p340
I01
tp341
atp342
Rp343
(S'zero'
p344
I01
tp345
tp346
a(g71
((lp347
(S'even'
p348
I01
tp349
a(g54
I00
tp350
a(S'positive'
p351
I01
tp352
atp353
Rp354
(S'composite'
p355
I01
tp356
tp357
a(g71
((lp358
(g348
I01
tp359
a(g355
I00
tp360
a(g351
I01
tp361
atp362
Rp363
(g54
I01
tp364
tp365
a(g71
((lp366
(g355
I00
tp367
a(g54
I00
tp368
a(g351
I01
tp369
atp370
Rp371
(g348
I00
tp372
tp373
a(g71
((lp374
(g348
I01
tp375
a(g355
I00
tp376
a(g54
I00
tp377
atp378
Rp379
(g351
I00
tp380
tp381
a(g71
((lp382
(S'real'
p383
I01
tp384
a(g56
I00
tp385
atp386
Rp387
(g34
I01
tp388
tp389
a(g71
((lp390
(S'integer'
p391
I00
tp392
a(S'extended_real'
p393
I01
tp394
atp395
Rp396
(S'noninteger'
p397
I01
tp398
tp399
a(g71
((lp400
(S'zero'
p401
I00
tp402
a(S'extended_real'
p403
I01
tp404
atp405
Rp406
(S'extended_nonzero'
p407
I01
tp408
tp409
asS'defined_facts'
p410
g71
((lp411
g338
ag40
ag44
ag38
ag47
ag50
ag397
ag51
ag52
aS'complex'
p412
ag56
aS'finite'
p413
ag37
aS'real'
p414
ag324
ag34
ag35
ag36
ag59
ag49
ag101
ag42
aS'imaginary'
p415
ag54
ag46
ag39
ag344
ag53
ag57
ag79
atp416
Rp417
sS'full_implications'
p418
ccollections
defaultdict
p419
(g71
tp420
Rp421
(g38
I01
tp422
g71
((lp423
(S'real'
p424
I01
tp425
a(g41
I00
tp426
a(g43
I00
tp427
a(g46
I01
tp428
a(g39
I01
tp429
a(g397
I00
tp430
a(S'finite'
p431
I01
tp432
a(g92
I01
tp433
a(g34
I00
tp434
a(g88
I00
tp435
a(g47
I01
tp436
a(g56
I01
tp437
a(g55
I01
tp438
a(g79
I00
tp439
a(g40
I01
tp440
atp441
Rp442
s(g40
I00
tp443
g71
((lp444
(g48
I00
tp445
a(S'positive'
p446
I00
tp447
a(S'prime'
p448
I00
tp449
a(g338
I00
tp450
a(g36
I00
tp451
a(g316
I00
tp452
a(S'nonzero'
p453
I00
tp454
a(g42
I00
tp455
a(g424
I00
tp456
a(g97
I00
tp457
a(g34
I00
tp458
a(g88
I00
tp459
a(g56
I00
tp460
a(g51
I00
tp461
atp462
Rp463
s(g32
I00
tp464
g71
((lp465
(g209
I00
tp466
a(g211
I00
tp467
a(g453
I00
tp468
a(g269
I00
tp469
a(g36
I00
tp470
a(g279
I00
tp471
a(g42
I00
tp472
a(g448
I00
tp473
a(g97
I00
tp474
a(g34
I00
tp475
a(g88
I00
tp476
a(S'rational'
p477
I00
tp478
a(g213
I00
tp479
atp480
Rp481
s(g328
I01
tp482
g71
((lp483
(g43
I00
tp484
a(g199
I01
tp485
a(g201
I00
tp486
a(g51
I00
tp487
a(g47
I01
tp488
atp489
Rp490
s(g51
I01
tp491
g71
((lp492
(g217
I01
tp493
a(g245
I01
tp494
a(g446
I00
tp495
a(g448
I00
tp496
a(g41
I00
tp497
a(g247
I01
tp498
a(g46
I01
tp499
a(g57
I00
tp500
a(g36
I00
tp501
a(g279
I00
tp502
a(g407
I01
tp503
a(g43
I00
tp504
a(g52
I01
tp505
a(g293
I01
tp506
a(g48
I00
tp507
a(g59
I01
tp508
a(g47
I01
tp509
a(g312
I00
tp510
a(g55
I01
tp511
a(g40
I01
tp512
atp513
Rp514
s(g415
I00
tp515
g71
((lp516
tp517
Rp518
s(g53
I00
tp519
g71
((lp520
(g448
I00
tp521
a(g259
I00
tp522
a(g36
I00
tp523
a(g344
I00
tp524
atp525
Rp526
s(g39
I01
tp527
g71
((lp528
(g47
I01
tp529
a(g41
I00
tp530
a(g55
I01
tp531
a(g79
I00
tp532
a(g431
I01
tp533
atp534
Rp535
s(g245
I00
tp536
g71
((lp537
(g259
I00
tp538
a(g448
I00
tp539
a(g51
I00
tp540
a(g36
I00
tp541
atp542
Rp543
s(g88
I01
tp544
g71
((lp545
(g424
I01
tp546
a(g48
I00
tp547
a(g41
I00
tp548
a(g43
I00
tp549
a(g46
I01
tp550
a(g38
I00
tp551
a(g39
I01
tp552
a(g324
I01
tp553
a(g407
I01
tp554
a(g397
I00
tp555
a(g431
I01
tp556
a(g84
I01
tp557
a(g34
I00
tp558
a(g47
I01
tp559
a(g56
I01
tp560
a(g55
I01
tp561
a(g79
I00
tp562
a(g40
I01
tp563
atp564
Rp565
s(g59
I01
tp566
g71
((lp567
(g446
I00
tp568
a(g36
I00
tp569
a(g189
I00
tp570
a(g191
I01
tp571
a(g448
I00
tp572
a(g43
I00
tp573
a(g47
I01
tp574
atp575
Rp576
s(g56
I01
tp577
g71
((lp578
(S'real'
p579
I01
tp580
a(g41
I00
tp581
a(g43
I00
tp582
a(g46
I01
tp583
a(S'algebraic'
p584
I01
tp585
a(g431
I01
tp586
a(g34
I00
tp587
a(g47
I01
tp588
a(g55
I01
tp589
a(g79
I00
tp590
a(g40
I01
tp591
atp592
Rp593
s(S'complex'
p594
I01
tp595
g71
((lp596
(g47
I01
tp597
a(g41
I00
tp598
a(g431
I01
tp599
atp600
Rp601
s(g79
I01
tp602
g71
((lp603
(g48
I00
tp604
a(g41
I00
tp605
a(g73
I00
tp606
a(g36
I00
tp607
a(g97
I00
tp608
a(g42
I00
tp609
a(g448
I00
tp610
a(g88
I00
tp611
a(g47
I01
tp612
a(g75
I01
tp613
a(g56
I00
tp614
a(g431
I01
tp615
atp616
Rp617
s(g344
I01
tp618
g71
((lp619
(S'even'
p620
I01
tp621
a(g328
I01
tp622
a(g43
I00
tp623
a(g39
I01
tp624
a(g330
I01
tp625
a(g56
I01
tp626
a(g55
I01
tp627
a(g51
I00
tp628
a(g217
I01
tp629
a(g448
I00
tp630
a(g57
I00
tp631
a(g407
I00
tp632
a(g40
I01
tp633
a(g47
I01
tp634
a(g176
I00
tp635
a(g446
I00
tp636
a(g36
I00
tp637
a(g338
I01
tp638
a(g142
I01
tp639
a(S'finite'
p640
I01
tp641
a(g84
I01
tp642
a(g41
I00
tp643
a(g453
I00
tp644
a(g340
I01
tp645
a(g397
I00
tp646
a(g34
I00
tp647
a(g88
I00
tp648
a(g79
I00
tp649
atp650
Rp651
s(g414
I01
tp652
g71
((lp653
(S'complex'
p654
I01
tp655
a(g43
I00
tp656
a(g125
I01
tp657
a(g127
I01
tp658
a(g47
I01
tp659
a(g41
I00
tp660
a(g40
I01
tp661
atp662
Rp663
s(g54
I00
tp664
g71
((lp665
tp666
Rp667
s(g35
I00
tp668
g71
((lp669
(g415
I00
tp670
atp671
Rp672
s(g50
I01
tp673
g71
((lp674
(g217
I01
tp675
a(g48
I00
tp676
a(g41
I00
tp677
a(g269
I00
tp678
a(g285
I01
tp679
a(g43
I00
tp680
a(g46
I01
tp681
a(g407
I01
tp682
a(g254
I01
tp683
a(g53
I01
tp684
a(g283
I01
tp685
a(g51
I00
tp686
a(g328
I01
tp687
a(g47
I01
tp688
a(g59
I00
tp689
a(g55
I01
tp690
a(g40
I01
tp691
a(g176
I00
tp692
atp693
Rp694
s(g415
I01
tp695
g71
((lp696
(g48
I00
tp697
a(g32
I00
tp698
a(g316
I00
tp699
a(g453
I00
tp700
a(g412
I01
tp701
a(g51
I00
tp702
a(g448
I00
tp703
a(g57
I00
tp704
a(g35
I01
tp705
a(g176
I00
tp706
a(g47
I01
tp707
a(g446
I00
tp708
a(g36
I00
tp709
a(g431
I01
tp710
a(g59
I00
tp711
a(g41
I00
tp712
a(g97
I00
tp713
a(g338
I00
tp714
a(g46
I00
tp715
a(g56
I00
tp716
a(g397
I00
tp717
a(g42
I00
tp718
a(g34
I00
tp719
a(g88
I00
tp720
a(g312
I00
tp721
a(g49
I00
tp722
atp723
Rp724
s(g57
I00
tp725
g71
((lp726
(g448
I00
tp727
a(g50
I00
tp728
a(g36
I00
tp729
atp730
Rp731
s(g49
I00
tp732
g71
((lp733
(g446
I00
tp734
a(g324
I00
tp735
a(g185
I00
tp736
a(g36
I00
tp737
a(g448
I00
tp738
a(g176
I00
tp739
a(g51
I00
tp740
atp741
Rp742
s(g40
I01
tp743
g71
((lp744
tp745
Rp746
s(g324
I01
tp747
g71
((lp748
(g32
I01
tp749
a(g48
I00
tp750
a(g41
I00
tp751
a(g43
I00
tp752
a(g46
I01
tp753
a(g49
I01
tp754
a(g58
I01
tp755
a(g47
I01
tp756
a(g55
I01
tp757
a(g40
I01
tp758
atp759
Rp760
s(g135
I00
tp761
g71
((lp762
tp763
Rp764
s(g213
I00
tp765
g71
((lp766
tp767
Rp768
s(g412
I00
tp769
g71
((lp770
(g48
I00
tp771
a(g446
I00
tp772
a(g448
I00
tp773
a(g338
I00
tp774
a(S'imaginary'
p775
I00
tp776
a(g39
I00
tp777
a(g36
I00
tp778
a(g316
I00
tp779
a(g56
I00
tp780
a(g453
I00
tp781
a(g42
I00
tp782
a(g414
I00
tp783
a(g97
I00
tp784
a(g34
I00
tp785
a(g88
I00
tp786
a(g79
I00
tp787
a(g51
I00
tp788
atp789
Rp790
s(g47
I01
tp791
g71
((lp792
tp793
Rp794
s(g52
I00
tp795
g71
((lp796
(g297
I00
tp797
atp798
Rp799
s(S'prime'
p800
I01
tp801
g71
((lp802
(g324
I01
tp803
a(g48
I00
tp804
a(g43
I00
tp805
a(g407
I01
tp806
a(g328
I01
tp807
a(g56
I01
tp808
a(g55
I01
tp809
a(g51
I00
tp810
a(g424
I01
tp811
a(g446
I01
tp812
a(g176
I00
tp813
a(g47
I01
tp814
a(g46
I01
tp815
a(g185
I01
tp816
a(g40
I01
tp817
a(g36
I00
tp818
a(g39
I01
tp819
a(S'integer'
p820
I01
tp821
a(g41
I00
tp822
a(g431
I01
tp823
a(g338
I00
tp824
a(g340
I01
tp825
a(g397
I00
tp826
a(g34
I00
tp827
a(g59
I00
tp828
a(g79
I00
tp829
atp830
Rp831
s(g584
I00
tp832
g71
((lp833
(g48
I00
tp834
a(g448
I00
tp835
a(g36
I00
tp836
a(g42
I00
tp837
a(g97
I00
tp838
a(g88
I00
tp839
a(S'rational'
p840
I00
tp841
atp842
Rp843
s(S'positive'
p844
I00
tp845
g71
((lp846
(g36
I00
tp847
a(g448
I00
tp848
atp849
Rp850
s(g46
I01
tp851
g71
((lp852
(g43
I00
tp853
a(S'commutative'
p854
I01
tp855
atp856
Rp857
s(g185
I01
tp858
g71
((lp859
(g48
I00
tp860
a(g338
I00
tp861
a(g43
I00
tp862
a(g142
I01
tp863
a(g180
I01
tp864
a(g176
I00
tp865
a(g37
I01
tp866
a(g47
I01
tp867
a(g195
I00
tp868
a(g51
I00
tp869
atp870
Rp871
s(g247
I01
tp872
g71
((lp873
(g263
I01
tp874
a(g265
I00
tp875
a(g41
I00
tp876
a(g46
I01
tp877
a(g57
I00
tp878
a(g36
I00
tp879
a(g448
I00
tp880
a(g59
I01
tp881
a(g43
I00
tp882
a(g47
I01
tp883
a(g55
I01
tp884
a(g40
I01
tp885
a(g301
I01
tp886
atp887
Rp888
s(g640
I00
tp889
g71
((lp890
(g48
I00
tp891
a(g50
I00
tp892
a(g448
I00
tp893
a(g306
I00
tp894
a(g43
I00
tp895
a(g73
I00
tp896
a(g36
I00
tp897
a(g316
I00
tp898
a(g79
I00
tp899
a(g131
I00
tp900
a(g42
I00
tp901
a(g324
I00
tp902
a(g97
I00
tp903
a(g34
I00
tp904
a(g88
I00
tp905
a(g594
I00
tp906
a(g56
I00
tp907
a(g297
I00
tp908
atp909
Rp910
s(g355
I00
tp911
g71
((lp912
tp913
Rp914
s(g407
I01
tp915
g71
((lp916
(g47
I01
tp917
a(g403
I01
tp918
a(g401
I00
tp919
a(g43
I00
tp920
atp921
Rp922
s(g52
I01
tp923
g71
((lp924
(g48
I00
tp925
a(g446
I00
tp926
a(g142
I01
tp927
a(g47
I01
tp928
a(g43
I00
tp929
a(g36
I00
tp930
a(g316
I00
tp931
a(g170
I01
tp932
a(g448
I00
tp933
a(g172
I01
tp934
a(g57
I00
tp935
a(g205
I00
tp936
atp937
Rp938
s(g620
I00
tp939
g71
((lp940
(g48
I00
tp941
atp942
Rp943
s(g84
I01
tp944
g71
((lp945
(g424
I01
tp946
a(g41
I00
tp947
a(g43
I00
tp948
a(g46
I01
tp949
a(g39
I01
tp950
a(g397
I00
tp951
a(g431
I01
tp952
a(g34
I00
tp953
a(g47
I01
tp954
a(S'rational'
p955
I01
tp956
a(g55
I01
tp957
a(g79
I00
tp958
a(g40
I01
tp959
atp960
Rp961
s(g47
I00
tp962
g71
((lp963
(g48
I00
tp964
a(g32
I00
tp965
a(g43
I00
tp966
a(g316
I00
tp967
a(g51
I00
tp968
a(g448
I00
tp969
a(g57
I00
tp970
a(g73
I00
tp971
a(g49
I00
tp972
a(g176
I00
tp973
a(S'complex'
p974
I00
tp975
a(g446
I00
tp976
a(g36
I00
tp977
a(g453
I00
tp978
a(g312
I00
tp979
a(g97
I00
tp980
a(g338
I00
tp981
a(S'extended_real'
p982
I00
tp983
a(g56
I00
tp984
a(g397
I00
tp985
a(g42
I00
tp986
a(g34
I00
tp987
a(g88
I00
tp988
a(g59
I00
tp989
a(g79
I00
tp990
atp991
Rp992
s(g37
I00
tp993
g71
((lp994
(g334
I00
tp995
a(g446
I00
tp996
a(g448
I00
tp997
a(g185
I00
tp998
a(g36
I00
tp999
a(g316
I00
tp1000
atp1001
Rp1002
s(g34
I01
tp1003
g71
((lp1004
(g383
I01
tp1005
a(g48
I00
tp1006
a(g46
I01
tp1007
a(g448
I00
tp1008
a(g41
I00
tp1009
a(g43
I00
tp1010
a(g36
I00
tp1011
a(g97
I00
tp1012
a(g407
I01
tp1013
a(g324
I01
tp1014
a(g42
I00
tp1015
a(g397
I01
tp1016
a(g88
I00
tp1017
a(g47
I01
tp1018
a(g55
I01
tp1019
a(g56
I00
tp1020
a(g40
I01
tp1021
a(g431
I01
tp1022
atp1023
Rp1024
s(g101
I00
tp1025
g71
((lp1026
tp1027
Rp1028
s(g33
I01
tp1029
g71
((lp1030
tp1031
Rp1032
s(g413
I01
tp1033
g71
((lp1034
(g41
I00
tp1035
atp1036
Rp1037
s(g338
I00
tp1038
g71
((lp1039
(g344
I00
tp1040
a(g51
I00
tp1041
atp1042
Rp1043
s(g79
I00
tp1044
g71
((lp1045
tp1046
Rp1047
s(g36
I01
tp1048
g71
((lp1049
(g324
I01
tp1050
a(g48
I00
tp1051
a(g43
I00
tp1052
a(g39
I01
tp1053
a(g328
I01
tp1054
a(g56
I01
tp1055
a(g55
I01
tp1056
a(g51
I00
tp1057
a(g424
I01
tp1058
a(g800
I00
tp1059
a(g844
I01
tp1060
a(g176
I00
tp1061
a(g47
I01
tp1062
a(g185
I01
tp1063
a(g40
I01
tp1064
a(g46
I01
tp1065
a(g407
I01
tp1066
a(g42
I01
tp1067
a(g41
I00
tp1068
a(g431
I01
tp1069
a(g338
I00
tp1070
a(g340
I01
tp1071
a(g397
I00
tp1072
a(g34
I00
tp1073
a(g59
I00
tp1074
a(g79
I00
tp1075
atp1076
Rp1077
s(g340
I01
tp1078
g71
((lp1079
(g273
I01
tp1080
a(g41
I00
tp1081
a(g43
I00
tp1082
a(g46
I01
tp1083
a(g275
I00
tp1084
a(g310
I01
tp1085
a(g176
I00
tp1086
a(g312
I01
tp1087
a(g47
I01
tp1088
a(g55
I01
tp1089
a(g40
I01
tp1090
atp1091
Rp1092
s(g397
I00
tp1093
g71
((lp1094
tp1095
Rp1096
s(g191
I00
tp1097
g71
((lp1098
(g135
I00
tp1099
a(g446
I00
tp1100
a(g448
I00
tp1101
a(g338
I00
tp1102
a(g131
I00
tp1103
a(g57
I00
tp1104
a(g407
I00
tp1105
a(g36
I00
tp1106
a(g316
I00
tp1107
a(g397
I00
tp1108
a(g42
I00
tp1109
a(g453
I00
tp1110
a(g97
I00
tp1111
a(g137
I00
tp1112
a(g34
I00
tp1113
a(g88
I00
tp1114
a(g205
I00
tp1115
a(g56
I00
tp1116
a(g51
I00
tp1117
a(g195
I00
tp1118
atp1119
Rp1120
s(g42
I00
tp1121
g71
((lp1122
(g48
I00
tp1123
a(g36
I00
tp1124
a(g448
I00
tp1125
a(g97
I00
tp1126
a(g88
I00
tp1127
atp1128
Rp1129
s(g397
I01
tp1130
g71
((lp1131
(g48
I00
tp1132
a(g393
I01
tp1133
a(g43
I00
tp1134
a(g36
I00
tp1135
a(g97
I00
tp1136
a(g407
I01
tp1137
a(g391
I00
tp1138
a(g448
I00
tp1139
a(g88
I00
tp1140
a(g47
I01
tp1141
atp1142
Rp1143
s(g44
I00
tp1144
g71
((lp1145
tp1146
Rp1147
s(g41
I01
tp1148
g71
((lp1149
(g413
I00
tp1150
a(g48
I00
tp1151
a(g446
I00
tp1152
a(g448
I00
tp1153
a(g338
I00
tp1154
a(g43
I00
tp1155
a(g73
I00
tp1156
a(g36
I00
tp1157
a(g316
I00
tp1158
a(g56
I00
tp1159
a(g453
I00
tp1160
a(g42
I00
tp1161
a(g32
I00
tp1162
a(g97
I00
tp1163
a(g34
I00
tp1164
a(g88
I00
tp1165
a(g412
I00
tp1166
a(g79
I00
tp1167
a(g51
I00
tp1168
atp1169
Rp1170
s(g59
I00
tp1171
g71
((lp1172
(g334
I00
tp1173
a(g306
I00
tp1174
a(g176
I00
tp1175
a(g51
I00
tp1176
atp1177
Rp1178
s(g56
I00
tp1179
g71
((lp1180
(g48
I00
tp1181
a(g97
I00
tp1182
a(g36
I00
tp1183
a(S'integer'
p1184
I00
tp1185
a(g448
I00
tp1186
a(g88
I00
tp1187
atp1188
Rp1189
ssS'prereq'
p1190
g419
(g71
tp1191
Rp1192
g338
g71
((lp1193
g32
ag800
ag191
ag47
ag36
ag50
ag59
ag51
ag344
ag412
ag41
ag185
ag40
ag640
ag415
atp1194
Rp1195
sg48
g71
((lp1196
g32
ag620
ag79
ag338
ag36
ag59
ag584
ag40
ag41
ag42
ag415
ag88
ag34
ag324
ag191
ag47
ag407
ag50
ag397
ag51
ag52
ag53
ag800
ag412
ag56
ag185
ag640
ag37
atp1197
Rp1198
sg88
g71
((lp1199
g32
ag79
ag584
ag344
ag41
ag42
ag415
ag34
ag38
ag191
ag47
ag397
ag40
ag412
ag56
ag640
atp1200
Rp1201
sg34
g71
((lp1202
g38
ag32
ag191
ag47
ag36
ag800
ag40
ag344
ag412
ag56
ag41
ag84
ag415
ag640
ag88
atp1203
Rp1204
sg453
g71
((lp1205
g32
ag34
ag36
ag49
ag344
ag41
ag40
ag88
ag415
ag800
ag191
ag47
ag50
ag51
ag412
ag640
atp1206
Rp1207
sg33
g71
((lp1208
tp1209
Rp1210
sg47
g71
((lp1211
g414
ag324
ag34
ag247
ag36
ag59
ag407
ag344
ag84
ag415
ag340
ag88
ag38
ag46
ag39
ag50
ag397
ag51
ag52
ag56
ag800
ag594
ag79
ag185
ag328
atp1212
Rp1213
sg446
g71
((lp1214
g32
ag800
ag247
ag36
ag59
ag49
ag344
ag41
ag40
ag415
ag245
ag191
ag47
ag51
ag52
ag53
ag412
ag57
ag640
ag37
atp1215
Rp1216
sg397
g71
((lp1217
g38
ag800
ag191
ag47
ag36
ag344
ag84
ag415
ag88
ag34
atp1218
Rp1219
sg51
g71
((lp1220
g32
ag800
ag338
ag36
ag328
ag49
ag344
ag41
ag415
ag245
ag191
ag47
ag50
ag40
ag52
ag340
ag412
ag185
ag640
ag59
atp1221
Rp1222
sg201
g71
((lp1223
g800
ag191
ag47
ag36
ag50
ag328
ag51
ag340
ag49
ag344
ag185
ag415
ag59
atp1224
Rp1225
sg55
g71
((lp1226
g414
ag800
ag34
ag247
ag36
ag39
ag344
ag324
ag41
ag84
ag415
ag88
ag47
ag38
ag79
ag50
ag51
ag340
ag56
ag640
atp1227
Rp1228
sg56
g71
((lp1229
g32
ag800
ag34
ag36
ag584
ag344
ag41
ag84
ag415
ag88
ag38
ag191
ag47
ag40
ag412
ag79
ag640
atp1230
Rp1231
sg431
g71
((lp1232
g414
ag800
ag56
ag247
ag36
ag39
ag344
ag41
ag84
ag415
ag88
ag34
ag38
ag50
ag51
ag340
ag594
ag79
ag324
atp1233
Rp1234
sg59
g71
((lp1235
g800
ag191
ag47
ag247
ag36
ag50
ag51
ag52
ag344
ag415
ag185
atp1236
Rp1237
sg424
g71
((lp1238
g324
ag34
ag247
ag36
ag344
ag41
ag84
ag40
ag88
ag415
ag38
ag191
ag47
ag50
ag51
ag340
ag800
ag412
ag56
ag640
atp1239
Rp1240
sg97
g71
((lp1241
g32
ag79
ag584
ag344
ag41
ag42
ag415
ag88
ag34
ag191
ag47
ag397
ag40
ag412
ag56
ag640
atp1242
Rp1243
sg79
g71
((lp1244
g38
ag800
ag47
ag36
ag39
ag344
ag412
ag56
ag41
ag84
ag640
ag88
atp1245
Rp1246
sg35
g71
((lp1247
g415
atp1248
Rp1249
sg36
g71
((lp1250
g32
ag800
ag40
ag79
ag247
ag37
ag584
ag344
ag41
ag42
ag415
ag34
ag245
ag191
ag47
ag49
ag844
ag397
ag51
ag52
ag53
ag412
ag56
ag57
ag640
ag59
atp1251
Rp1252
sg312
g71
((lp1253
g800
ag191
ag47
ag36
ag50
ag51
ag52
ag340
ag344
ag415
ag185
atp1254
Rp1255
sg39
g71
((lp1256
g38
ag800
ag79
ag36
ag344
ag412
ag56
ag41
ag84
ag640
ag88
ag47
atp1257
Rp1258
sg41
g71
((lp1259
g414
ag800
ag56
ag247
ag36
ag39
ag344
ag324
ag84
ag415
ag88
ag34
ag38
ag50
ag51
ag340
ag594
ag79
ag413
atp1260
Rp1261
sg92
g71
((lp1262
g32
ag800
ag79
ag36
ag584
ag344
ag41
ag415
ag88
ag34
ag38
ag191
ag47
ag397
ag40
ag412
ag56
ag640
atp1263
Rp1264
sg43
g71
((lp1265
g414
ag324
ag34
ag35
ag247
ag36
ag59
ag407
ag344
ag41
ag84
ag88
ag38
ag46
ag47
ag50
ag397
ag51
ag52
ag340
ag800
ag412
ag56
ag185
ag640
ag328
atp1266
Rp1267
sg448
g71
((lp1268
g32
ag40
ag79
ag247
ag36
ag37
ag584
ag344
ag41
ag42
ag415
ag34
ag245
ag191
ag47
ag49
ag844
ag397
ag51
ag52
ag53
ag412
ag56
ag57
ag640
ag59
atp1269
Rp1270
sg46
g71
((lp1271
g414
ag324
ag34
ag247
ag36
ag59
ag407
ag344
ag84
ag415
ag88
ag38
ag47
ag50
ag397
ag51
ag52
ag340
ag800
ag56
ag185
ag328
atp1272
Rp1273
sg407
g71
((lp1274
g324
ag800
ag191
ag47
ag36
ag50
ag397
ag51
ag52
ag344
ag415
ag88
ag185
ag34
atp1275
Rp1276
sg40
g71
((lp1277
g38
ag414
ag34
ag247
ag36
ag50
ag51
ag340
ag800
ag344
ag56
ag84
ag324
ag88
atp1278
Rp1279
sg316
g71
((lp1280
g32
ag800
ag191
ag47
ag36
ag50
ag37
ag51
ag52
ag344
ag412
ag41
ag40
ag640
ag415
atp1281
Rp1282
sg57
g71
((lp1283
g800
ag191
ag47
ag247
ag36
ag50
ag59
ag51
ag52
ag49
ag344
ag415
ag37
atp1284
Rp1285
ssS'beta_triggers'
p1286
g419
(g71
tp1287
Rp1288
(g38
I01
tp1289
(lp1290
I8
aI9
aI10
aI13
aI14
aI16
aI17
aI18
aI21
aI22
aI23
aI24
aI25
aI26
aI27
aI30
aI31
aI33
aI36
as(g40
I00
tp1291
(lp1292
I3
aI4
aI7
aI8
aI10
aI35
aI36
as(g32
I00
tp1293
(lp1294
I3
aI4
aI7
aI8
aI10
aI35
aI36
as(g328
I01
tp1295
(lp1296
I4
aI5
aI6
aI9
aI10
aI12
aI13
aI15
aI17
aI18
aI22
aI26
aI28
aI35
aI36
as(g51
I01
tp1297
(lp1298
I0
aI34
aI35
as(g415
I00
tp1299
g71
((lp1300
tp1301
Rp1302
s(g53
I00
tp1303
(lp1304
I7
aI8
aI10
aI15
aI16
aI21
aI36
as(g39
I01
tp1305
(lp1306
I3
aI5
aI6
aI23
aI24
aI25
aI26
aI27
as(g245
I00
tp1307
(lp1308
I15
aI17
aI21
aI22
as(g88
I01
tp1309
(lp1310
I8
aI10
aI11
aI12
aI13
aI14
aI16
aI18
aI19
aI20
aI21
aI22
aI23
aI24
aI25
aI26
as(g59
I01
tp1311
(lp1312
I4
aI5
aI6
aI8
aI9
aI11
aI14
aI15
aI16
aI17
aI21
aI25
aI28
aI35
aI36
as(g56
I01
tp1313
(lp1314
I8
aI9
aI10
aI13
aI14
aI16
aI17
aI18
aI21
aI22
aI23
aI24
aI25
aI26
aI27
aI35
aI36
as(g594
I01
tp1315
(lp1316
I0
aI3
aI5
aI6
aI23
aI24
aI25
aI26
aI27
as(g79
I01
tp1317
(lp1318
I3
aI5
aI6
aI7
aI8
aI10
aI15
aI16
aI18
aI23
aI24
aI25
aI26
aI27
aI34
aI35
aI36
as(g344
I01
tp1319
(lp1320
s(g414
I01
tp1321
(lp1322
I0
aI8
aI9
aI10
aI13
aI14
aI16
aI17
aI18
aI21
aI22
aI23
aI24
aI25
aI26
aI27
aI34
aI35
aI36
as(g54
I00
tp1323
(lp1324
I30
aI32
aI33
as(g35
I00
tp1325
(lp1326
s(g50
I01
tp1327
(lp1328
I0
aI30
aI31
aI32
aI34
aI35
as(g415
I01
tp1329
(lp1330
I0
as(g57
I00
tp1331
(lp1332
I7
aI8
aI9
aI13
aI15
aI16
aI17
aI21
as(g49
I00
tp1333
(lp1334
I7
aI9
aI13
aI14
aI15
aI17
aI21
aI22
as(g40
I01
tp1335
g71
((lp1336
tp1337
Rp1338
s(g324
I01
tp1339
(lp1340
I0
aI8
aI10
aI11
aI12
aI13
aI14
aI16
aI18
aI19
aI20
aI21
aI22
aI23
aI24
aI25
aI26
aI34
aI35
as(g135
I00
tp1341
(lp1342
I7
aI8
aI10
aI15
aI16
aI18
aI36
as(g213
I00
tp1343
(lp1344
I15
aI17
aI18
aI22
as(g412
I00
tp1345
(lp1346
I3
aI4
aI7
aI8
aI10
aI35
aI36
as(g47
I01
tp1347
g71
((lp1348
tp1349
Rp1350
s(g52
I00
tp1351
(lp1352
I7
aI9
aI10
aI14
aI15
aI17
aI18
aI22
as(g800
I01
tp1353
(lp1354
I1
aI2
as(g584
I00
tp1355
(lp1356
I0
aI7
aI8
aI10
aI15
aI16
aI18
aI34
aI35
aI36
as(g844
I00
tp1357
(lp1358
I15
aI16
aI17
aI21
as(g46
I01
tp1359
(lp1360
I4
aI5
aI6
aI8
aI9
aI10
aI13
aI14
aI35
aI36
as(g185
I01
tp1361
(lp1362
I4
aI5
aI6
aI15
aI18
aI22
aI23
aI26
aI27
aI35
as(g247
I01
tp1363
(lp1364
I0
aI8
aI9
aI11
aI14
aI16
aI17
aI19
aI22
aI24
aI26
aI27
aI28
aI29
aI34
aI35
aI36
as(g640
I00
tp1365
(lp1366
I3
aI4
aI7
aI8
aI10
aI35
aI36
as(g355
I00
tp1367
(lp1368
I31
aI32
aI33
as(g407
I01
tp1369
(lp1370
I4
aI5
aI6
aI8
aI10
aI11
aI12
aI13
aI14
aI15
aI16
aI18
aI27
aI35
as(g52
I01
tp1371
(lp1372
I4
aI5
aI6
aI15
aI16
aI21
aI24
aI25
aI27
aI35
as(g620
I00
tp1373
(lp1374
I1
aI7
aI8
aI10
aI15
aI16
aI18
aI36
as(g84
I01
tp1375
(lp1376
I1
aI2
aI8
aI9
aI10
aI13
aI14
aI16
aI17
aI18
aI21
aI22
aI23
aI24
aI25
aI26
aI27
aI36
as(g47
I00
tp1377
(lp1378
s(g37
I00
tp1379
(lp1380
I7
aI8
aI13
aI15
aI16
aI21
aI36
as(g34
I01
tp1381
(lp1382
I0
aI8
aI10
aI11
aI12
aI13
aI14
aI16
aI18
aI19
aI20
aI21
aI22
aI23
aI24
aI25
aI26
as(g101
I00
tp1383
(lp1384
I3
aI5
as(g33
I01
tp1385
g71
((lp1386
tp1387
Rp1388
s(g413
I01
tp1389
(lp1390
I3
aI5
aI6
aI23
aI24
aI25
aI26
aI27
as(g338
I00
tp1391
(lp1392
I7
aI8
aI10
aI15
aI18
aI22
aI36
as(g79
I00
tp1393
g71
((lp1394
tp1395
Rp1396
s(g36
I01
tp1397
(lp1398
I1
aI2
as(g340
I01
tp1399
(lp1400
I0
aI9
aI10
aI12
aI13
aI17
aI18
aI20
aI21
aI23
aI25
aI27
aI28
aI29
aI34
aI35
aI36
as(g397
I00
tp1401
g71
((lp1402
tp1403
Rp1404
s(g191
I00
tp1405
(lp1406
s(g42
I00
tp1407
(lp1408
I7
aI8
aI10
aI15
aI16
aI18
aI35
aI36
as(g397
I01
tp1409
(lp1410
I4
aI5
aI6
aI8
aI10
aI11
aI12
aI13
aI14
aI15
aI16
aI18
aI27
as(g44
I00
tp1411
(lp1412
I2
as(g41
I01
tp1413
(lp1414
I7
aI8
aI10
aI35
aI36
as(g59
I00
tp1415
(lp1416
I7
aI10
aI14
aI15
aI18
aI22
aI36
as(g56
I00
tp1417
(lp1418
I7
aI8
aI10
aI15
aI16
aI18
aI34
aI35
aI36
assbsS'_generator'
p1419
(dp1420
g45
I01
sS'finite'
p1421
I01
ssbsbcsympy.core.numbers
NegativeOne
p1422
(I-1
tp1423
Rp1424
(dp1425
btp1426
Rp1427
(dp1428
bg1
(g22
(S'\\gamma'
p1429
tp1430
Rp1431
(dp1432
g27
g28
(g29
g30
(dp1433
g32
I01
sg33
Nsg34
Nsg35
Nsg36
Nsg37
Nsg38
Nsg39
Nsg40
I01
sg41
I00
sg42
Nsg43
I00
sg44
Nsg45
I01
sg46
I01
sg47
I01
sg48
I00
sg49
I01
sg50
Nsg51
Nsg52
Nsg53
Nsg54
Nsg55
I01
sg56
Nsg57
Nsg58
I01
sg59
Nstp1434
Rp1435
(dp1436
g63
g67
sg1419
(dp1437
g45
I01
sg1421
I01
ssbsbg1424
tp1438
Rp1439
(dp1440
bg1
(csympy.core.add
Add
p1441
(g0
(g2
(I16
tp1442
Rp1443
(dp1444
bg1
(g1431
g4
tp1445
Rp1446
(dp1447
btp1448
Rp1449
(dp1450
bg0
(g20
g1
(g25
g2
(I2
tp1451
Rp1452
(dp1453
btp1454
Rp1455
(dp1456
btp1457
Rp1458
(dp1459
bg0
(g20
g1
(g1431
g1452
tp1460
Rp1461
(dp1462
btp1463
Rp1464
(dp1465
bg0
(g17
g1
(g14
g1452
tp1466
Rp1467
(dp1468
bg1
(g25
g17
tp1469
Rp1470
(dp1471
btp1472
Rp1473
(dp1474
bg0
(g2
(I8
tp1475
Rp1476
(dp1477
bg1467
g1
(g1431
g17
tp1478
Rp1479
(dp1480
btp1481
Rp1482
(dp1483
bg0
(g1443
g1470
g1461
tp1484
Rp1485
(dp1486
bg0
(g2
(I32
tp1487
Rp1488
(dp1489
bg1455
g1479
tp1490
Rp1491
(dp1492
bg0
(g2
(I12
tp1493
Rp1494
(dp1495
bg1467
g1455
g1461
tp1496
Rp1497
(dp1498
btp1499
Rp1500
(dp1501
bcsympy.core.numbers
Rational
p1502
(I-1
I2
tp1503
Rp1504
(dp1505
btp1506
Rp1507
(dp1508
bg1441
(g0
(g17
g1455
tp1509
Rp1510
(dp1511
bg0
(g1502
(I8
I3
tp1512
Rp1513
(dp1514
bg1461
tp1515
Rp1516
(dp1517
btp1518
Rp1519
(dp1520
btp1521
Rp1522
(dp1523
b.