csympy.core.mul
Mul
p0
(csympy.core.numbers
Integer
p1
(I4
tp2
Rp3
(dp4
bcsympy.core.power
Pow
p5
(g1
(I6
tp6
Rp7
(dp8
bcsympy.core.numbers
Half
p9
(I1
I2
tp10
Rp11
(dp12
btp13
Rp14
(dp15
bg5
(csympy.core.numbers
Pi
p16
(tRp17
(dp18
bg1
(I3
tp19
Rp20
(dp21
btp22
Rp23
(dp24
bg5
(csympy.core.add
Add
p25
(g5
(g17
g1
(I2
tp26
Rp27
(dp28
btp29
Rp30
(dp31
bg0
(g3
g5
(csympy.core.symbol
Symbol
p32
(S'\\gamma'
p33
tp34
Rp35
(dp36
S'_assumptions'
p37
ccopy_reg
_reconstructor
p38
(csympy.core.assumptions
StdFactKB
p39
c__builtin__
dict
p40
(dp41
S'real'
p42
I01
sS'polar'
p43
NsS'irrational'
p44
NsS'antihermitian'
p45
NsS'composite'
p46
NsS'extended_nonnegative'
p47
NsS'even'
p48
NsS'algebraic'
p49
NsS'hermitian'
p50
I01
sS'infinite'
p51
I00
sS'integer'
p52
NsS'imaginary'
p53
I00
sS'odd'
p54
NsS'nonzero'
p55
I01
sS'extended_real'
p56
I01
sS'commutative'
p57
I01
sS'zero'
p58
I00
sS'extended_nonzero'
p59
I01
sS'positive'
p60
NsS'negative'
p61
NsS'extended_negative'
p62
NsS'nonnegative'
p63
NsS'prime'
p64
NsS'complex'
p65
I01
sS'rational'
p66
NsS'extended_positive'
p67
NsS'finite'
p68
I01
sS'extended_nonpositive'
p69
Nstp70
Rp71
(dp72
S'rules'
p73
g38
(csympy.core.facts
FactRules
p74
c__builtin__
object
p75
Ntp76
Rp77
(dp78
S'beta_rules'
p79
(lp80
(c__builtin__
set
p81
((lp82
(S'algebraic'
p83
I00
tp84
a(S'complex'
p85
I01
tp86
atp87
Rp88
(S'transcendental'
p89
I01
tp90
tp91
a(g81
((lp92
(g48
I00
tp93
a(S'integer'
p94
I01
tp95
atp96
Rp97
(S'odd'
p98
I01
tp99
tp100
a(g81
((lp101
(S'integer'
p102
I01
tp103
a(g54
I00
tp104
atp105
Rp106
(S'even'
p107
I01
tp108
tp109
a(g81
((lp110
(S'infinite'
p111
I00
tp112
a(S'real'
p113
I00
tp114
atp115
Rp116
(S'extended_real'
p117
I00
tp118
tp119
a(g81
((lp120
(g117
I01
tp121
a(g113
I00
tp122
atp123
Rp124
(g111
I01
tp125
tp126
a(g81
((lp127
(g117
I01
tp128
a(g111
I00
tp129
atp130
Rp131
(g113
I01
tp132
tp133
a(g81
((lp134
(S'extended_real'
p135
I01
tp136
a(S'finite'
p137
I01
tp138
atp139
Rp140
(S'real'
p141
I01
tp142
tp143
a(g81
((lp144
(S'zero'
p145
I00
tp146
a(S'extended_negative'
p147
I00
tp148
a(g67
I00
tp149
atp150
Rp151
(S'extended_real'
p152
I00
tp153
tp154
a(g81
((lp155
(g145
I00
tp156
a(g152
I01
tp157
a(g67
I00
tp158
atp159
Rp160
(g147
I01
tp161
tp162
a(g81
((lp163
(g67
I00
tp164
a(g152
I01
tp165
a(g147
I00
tp166
atp167
Rp168
(g145
I01
tp169
tp170
a(g81
((lp171
(g145
I00
tp172
a(g152
I01
tp173
a(g147
I00
tp174
atp175
Rp176
(g67
I01
tp177
tp178
a(g81
((lp179
(S'extended_nonzero'
p180
I01
tp181
a(S'extended_nonpositive'
p182
I01
tp183
atp184
Rp185
(S'extended_negative'
p186
I01
tp187
tp188
a(g81
((lp189
(S'extended_nonzero'
p190
I01
tp191
a(g47
I01
tp192
atp193
Rp194
(S'extended_positive'
p195
I01
tp196
tp197
a(g81
((lp198
(S'extended_positive'
p199
I00
tp200
a(S'extended_real'
p201
I01
tp202
atp203
Rp204
(S'extended_nonpositive'
p205
I01
tp206
tp207
a(g81
((lp208
(S'extended_real'
p209
I01
tp210
a(S'extended_negative'
p211
I00
tp212
atp213
Rp214
(S'extended_nonnegative'
p215
I01
tp216
tp217
a(g81
((lp218
(S'zero'
p219
I00
tp220
a(S'positive'
p221
I00
tp222
a(S'negative'
p223
I00
tp224
atp225
Rp226
(S'real'
p227
I00
tp228
tp229
a(g81
((lp230
(g227
I01
tp231
a(g219
I00
tp232
a(g221
I00
tp233
atp234
Rp235
(g223
I01
tp236
tp237
a(g81
((lp238
(g227
I01
tp239
a(g221
I00
tp240
a(g223
I00
tp241
atp242
Rp243
(g219
I01
tp244
tp245
a(g81
((lp246
(g227
I01
tp247
a(g219
I00
tp248
a(g223
I00
tp249
atp250
Rp251
(g221
I01
tp252
tp253
a(g81
((lp254
(S'nonzero'
p255
I01
tp256
a(S'nonpositive'
p257
I01
tp258
atp259
Rp260
(g61
I01
tp261
tp262
a(g81
((lp263
(S'nonzero'
p264
I01
tp265
a(g63
I01
tp266
atp267
Rp268
(S'positive'
p269
I01
tp270
tp271
a(g81
((lp272
(S'real'
p273
I01
tp274
a(S'positive'
p275
I00
tp276
atp277
Rp278
(S'nonpositive'
p279
I01
tp280
tp281
a(g81
((lp282
(S'real'
p283
I01
tp284
a(S'negative'
p285
I00
tp286
atp287
Rp288
(S'nonnegative'
p289
I01
tp290
tp291
a(g81
((lp292
(S'finite'
p293
I01
tp294
a(S'extended_positive'
p295
I01
tp296
atp297
Rp298
(g60
I01
tp299
tp300
a(g81
((lp301
(g62
I01
tp302
a(S'finite'
p303
I01
tp304
atp305
Rp306
(S'negative'
p307
I01
tp308
tp309
a(g81
((lp310
(S'finite'
p311
I01
tp312
a(g69
I01
tp313
atp314
Rp315
(S'nonpositive'
p316
I01
tp317
tp318
a(g81
((lp319
(S'finite'
p320
I01
tp321
a(S'extended_nonnegative'
p322
I01
tp323
atp324
Rp325
(S'nonnegative'
p326
I01
tp327
tp328
a(g81
((lp329
(g68
I01
tp330
a(g59
I01
tp331
atp332
Rp333
(S'nonzero'
p334
I01
tp335
tp336
a(g81
((lp337
(S'extended_nonnegative'
p338
I01
tp339
a(S'extended_nonpositive'
p340
I01
tp341
atp342
Rp343
(S'zero'
p344
I01
tp345
tp346
a(g81
((lp347
(S'nonpositive'
p348
I01
tp349
a(S'nonnegative'
p350
I01
tp351
atp352
Rp353
(S'zero'
p354
I01
tp355
tp356
a(g81
((lp357
(S'even'
p358
I01
tp359
a(g64
I00
tp360
a(S'positive'
p361
I01
tp362
atp363
Rp364
(S'composite'
p365
I01
tp366
tp367
a(g81
((lp368
(g358
I01
tp369
a(g365
I00
tp370
a(g361
I01
tp371
atp372
Rp373
(g64
I01
tp374
tp375
a(g81
((lp376
(g365
I00
tp377
a(g64
I00
tp378
a(g361
I01
tp379
atp380
Rp381
(g358
I00
tp382
tp383
a(g81
((lp384
(g358
I01
tp385
a(g365
I00
tp386
a(g64
I00
tp387
atp388
Rp389
(g361
I00
tp390
tp391
a(g81
((lp392
(S'real'
p393
I01
tp394
a(g66
I00
tp395
atp396
Rp397
(g44
I01
tp398
tp399
a(g81
((lp400
(S'integer'
p401
I00
tp402
a(S'extended_real'
p403
I01
tp404
atp405
Rp406
(S'noninteger'
p407
I01
tp408
tp409
a(g81
((lp410
(S'zero'
p411
I00
tp412
a(S'extended_real'
p413
I01
tp414
atp415
Rp416
(S'extended_nonzero'
p417
I01
tp418
tp419
asS'defined_facts'
p420
g81
((lp421
g348
ag50
ag54
ag48
ag57
ag60
ag407
ag61
ag62
aS'complex'
p422
ag66
aS'finite'
p423
ag47
aS'real'
p424
ag334
ag44
ag45
ag46
ag69
ag59
ag111
ag52
aS'imaginary'
p425
ag64
ag56
ag49
ag354
ag63
ag67
ag89
atp426
Rp427
sS'full_implications'
p428
ccollections
defaultdict
p429
(g81
tp430
Rp431
(g48
I01
tp432
g81
((lp433
(S'real'
p434
I01
tp435
a(g51
I00
tp436
a(g53
I00
tp437
a(g56
I01
tp438
a(g49
I01
tp439
a(g407
I00
tp440
a(S'finite'
p441
I01
tp442
a(g102
I01
tp443
a(g44
I00
tp444
a(g98
I00
tp445
a(g57
I01
tp446
a(g66
I01
tp447
a(g65
I01
tp448
a(g89
I00
tp449
a(g50
I01
tp450
atp451
Rp452
s(g50
I00
tp453
g81
((lp454
(g58
I00
tp455
a(S'positive'
p456
I00
tp457
a(S'prime'
p458
I00
tp459
a(g348
I00
tp460
a(g46
I00
tp461
a(g326
I00
tp462
a(S'nonzero'
p463
I00
tp464
a(g52
I00
tp465
a(g434
I00
tp466
a(g107
I00
tp467
a(g44
I00
tp468
a(g98
I00
tp469
a(g66
I00
tp470
a(g61
I00
tp471
atp472
Rp473
s(g42
I00
tp474
g81
((lp475
(g219
I00
tp476
a(g221
I00
tp477
a(g463
I00
tp478
a(g279
I00
tp479
a(g46
I00
tp480
a(g289
I00
tp481
a(g52
I00
tp482
a(g458
I00
tp483
a(g107
I00
tp484
a(g44
I00
tp485
a(g98
I00
tp486
a(S'rational'
p487
I00
tp488
a(g223
I00
tp489
atp490
Rp491
s(g338
I01
tp492
g81
((lp493
(g53
I00
tp494
a(g209
I01
tp495
a(g211
I00
tp496
a(g61
I00
tp497
a(g57
I01
tp498
atp499
Rp500
s(g61
I01
tp501
g81
((lp502
(g227
I01
tp503
a(g255
I01
tp504
a(g456
I00
tp505
a(g458
I00
tp506
a(g51
I00
tp507
a(g257
I01
tp508
a(g56
I01
tp509
a(g67
I00
tp510
a(g46
I00
tp511
a(g289
I00
tp512
a(g417
I01
tp513
a(g53
I00
tp514
a(g62
I01
tp515
a(g303
I01
tp516
a(g58
I00
tp517
a(g69
I01
tp518
a(g57
I01
tp519
a(g322
I00
tp520
a(g65
I01
tp521
a(g50
I01
tp522
atp523
Rp524
s(g425
I00
tp525
g81
((lp526
tp527
Rp528
s(g63
I00
tp529
g81
((lp530
(g458
I00
tp531
a(g269
I00
tp532
a(g46
I00
tp533
a(g354
I00
tp534
atp535
Rp536
s(g49
I01
tp537
g81
((lp538
(g57
I01
tp539
a(g51
I00
tp540
a(g65
I01
tp541
a(g89
I00
tp542
a(g441
I01
tp543
atp544
Rp545
s(g255
I00
tp546
g81
((lp547
(g269
I00
tp548
a(g458
I00
tp549
a(g61
I00
tp550
a(g46
I00
tp551
atp552
Rp553
s(g98
I01
tp554
g81
((lp555
(g434
I01
tp556
a(g58
I00
tp557
a(g51
I00
tp558
a(g53
I00
tp559
a(g56
I01
tp560
a(g48
I00
tp561
a(g49
I01
tp562
a(g334
I01
tp563
a(g417
I01
tp564
a(g407
I00
tp565
a(g441
I01
tp566
a(g94
I01
tp567
a(g44
I00
tp568
a(g57
I01
tp569
a(g66
I01
tp570
a(g65
I01
tp571
a(g89
I00
tp572
a(g50
I01
tp573
atp574
Rp575
s(g69
I01
tp576
g81
((lp577
(g456
I00
tp578
a(g46
I00
tp579
a(g199
I00
tp580
a(g201
I01
tp581
a(g458
I00
tp582
a(g53
I00
tp583
a(g57
I01
tp584
atp585
Rp586
s(g66
I01
tp587
g81
((lp588
(S'real'
p589
I01
tp590
a(g51
I00
tp591
a(g53
I00
tp592
a(g56
I01
tp593
a(S'algebraic'
p594
I01
tp595
a(g441
I01
tp596
a(g44
I00
tp597
a(g57
I01
tp598
a(g65
I01
tp599
a(g89
I00
tp600
a(g50
I01
tp601
atp602
Rp603
s(S'complex'
p604
I01
tp605
g81
((lp606
(g57
I01
tp607
a(g51
I00
tp608
a(g441
I01
tp609
atp610
Rp611
s(g89
I01
tp612
g81
((lp613
(g58
I00
tp614
a(g51
I00
tp615
a(g83
I00
tp616
a(g46
I00
tp617
a(g107
I00
tp618
a(g52
I00
tp619
a(g458
I00
tp620
a(g98
I00
tp621
a(g57
I01
tp622
a(g85
I01
tp623
a(g66
I00
tp624
a(g441
I01
tp625
atp626
Rp627
s(g354
I01
tp628
g81
((lp629
(S'even'
p630
I01
tp631
a(g338
I01
tp632
a(g53
I00
tp633
a(g49
I01
tp634
a(g340
I01
tp635
a(g66
I01
tp636
a(g65
I01
tp637
a(g61
I00
tp638
a(g227
I01
tp639
a(g458
I00
tp640
a(g67
I00
tp641
a(g417
I00
tp642
a(g50
I01
tp643
a(g57
I01
tp644
a(g186
I00
tp645
a(g456
I00
tp646
a(g46
I00
tp647
a(g348
I01
tp648
a(g152
I01
tp649
a(S'finite'
p650
I01
tp651
a(g94
I01
tp652
a(g51
I00
tp653
a(g463
I00
tp654
a(g350
I01
tp655
a(g407
I00
tp656
a(g44
I00
tp657
a(g98
I00
tp658
a(g89
I00
tp659
atp660
Rp661
s(g424
I01
tp662
g81
((lp663
(S'complex'
p664
I01
tp665
a(g53
I00
tp666
a(g135
I01
tp667
a(g137
I01
tp668
a(g57
I01
tp669
a(g51
I00
tp670
a(g50
I01
tp671
atp672
Rp673
s(g64
I00
tp674
g81
((lp675
tp676
Rp677
s(g45
I00
tp678
g81
((lp679
(g425
I00
tp680
atp681
Rp682
s(g60
I01
tp683
g81
((lp684
(g227
I01
tp685
a(g58
I00
tp686
a(g51
I00
tp687
a(g279
I00
tp688
a(g295
I01
tp689
a(g53
I00
tp690
a(g56
I01
tp691
a(g417
I01
tp692
a(g264
I01
tp693
a(g63
I01
tp694
a(g293
I01
tp695
a(g61
I00
tp696
a(g338
I01
tp697
a(g57
I01
tp698
a(g69
I00
tp699
a(g65
I01
tp700
a(g50
I01
tp701
a(g186
I00
tp702
atp703
Rp704
s(g425
I01
tp705
g81
((lp706
(g58
I00
tp707
a(g42
I00
tp708
a(g326
I00
tp709
a(g463
I00
tp710
a(g422
I01
tp711
a(g61
I00
tp712
a(g458
I00
tp713
a(g67
I00
tp714
a(g45
I01
tp715
a(g186
I00
tp716
a(g57
I01
tp717
a(g456
I00
tp718
a(g46
I00
tp719
a(g441
I01
tp720
a(g69
I00
tp721
a(g51
I00
tp722
a(g107
I00
tp723
a(g348
I00
tp724
a(g56
I00
tp725
a(g66
I00
tp726
a(g407
I00
tp727
a(g52
I00
tp728
a(g44
I00
tp729
a(g98
I00
tp730
a(g322
I00
tp731
a(g59
I00
tp732
atp733
Rp734
s(g67
I00
tp735
g81
((lp736
(g458
I00
tp737
a(g60
I00
tp738
a(g46
I00
tp739
atp740
Rp741
s(g59
I00
tp742
g81
((lp743
(g456
I00
tp744
a(g334
I00
tp745
a(g195
I00
tp746
a(g46
I00
tp747
a(g458
I00
tp748
a(g186
I00
tp749
a(g61
I00
tp750
atp751
Rp752
s(g50
I01
tp753
g81
((lp754
tp755
Rp756
s(g334
I01
tp757
g81
((lp758
(g42
I01
tp759
a(g58
I00
tp760
a(g51
I00
tp761
a(g53
I00
tp762
a(g56
I01
tp763
a(g59
I01
tp764
a(g68
I01
tp765
a(g57
I01
tp766
a(g65
I01
tp767
a(g50
I01
tp768
atp769
Rp770
s(g145
I00
tp771
g81
((lp772
tp773
Rp774
s(g223
I00
tp775
g81
((lp776
tp777
Rp778
s(g422
I00
tp779
g81
((lp780
(g58
I00
tp781
a(g456
I00
tp782
a(g458
I00
tp783
a(g348
I00
tp784
a(S'imaginary'
p785
I00
tp786
a(g49
I00
tp787
a(g46
I00
tp788
a(g326
I00
tp789
a(g66
I00
tp790
a(g463
I00
tp791
a(g52
I00
tp792
a(g424
I00
tp793
a(g107
I00
tp794
a(g44
I00
tp795
a(g98
I00
tp796
a(g89
I00
tp797
a(g61
I00
tp798
atp799
Rp800
s(g57
I01
tp801
g81
((lp802
tp803
Rp804
s(g62
I00
tp805
g81
((lp806
(g307
I00
tp807
atp808
Rp809
s(S'prime'
p810
I01
tp811
g81
((lp812
(g334
I01
tp813
a(g58
I00
tp814
a(g53
I00
tp815
a(g417
I01
tp816
a(g338
I01
tp817
a(g66
I01
tp818
a(g65
I01
tp819
a(g61
I00
tp820
a(g434
I01
tp821
a(g456
I01
tp822
a(g186
I00
tp823
a(g57
I01
tp824
a(g56
I01
tp825
a(g195
I01
tp826
a(g50
I01
tp827
a(g46
I00
tp828
a(g49
I01
tp829
a(S'integer'
p830
I01
tp831
a(g51
I00
tp832
a(g441
I01
tp833
a(g348
I00
tp834
a(g350
I01
tp835
a(g407
I00
tp836
a(g44
I00
tp837
a(g69
I00
tp838
a(g89
I00
tp839
atp840
Rp841
s(g594
I00
tp842
g81
((lp843
(g58
I00
tp844
a(g458
I00
tp845
a(g46
I00
tp846
a(g52
I00
tp847
a(g107
I00
tp848
a(g98
I00
tp849
a(S'rational'
p850
I00
tp851
atp852
Rp853
s(S'positive'
p854
I00
tp855
g81
((lp856
(g46
I00
tp857
a(g458
I00
tp858
atp859
Rp860
s(g56
I01
tp861
g81
((lp862
(g53
I00
tp863
a(S'commutative'
p864
I01
tp865
atp866
Rp867
s(g195
I01
tp868
g81
((lp869
(g58
I00
tp870
a(g348
I00
tp871
a(g53
I00
tp872
a(g152
I01
tp873
a(g190
I01
tp874
a(g186
I00
tp875
a(g47
I01
tp876
a(g57
I01
tp877
a(g205
I00
tp878
a(g61
I00
tp879
atp880
Rp881
s(g257
I01
tp882
g81
((lp883
(g273
I01
tp884
a(g275
I00
tp885
a(g51
I00
tp886
a(g56
I01
tp887
a(g67
I00
tp888
a(g46
I00
tp889
a(g458
I00
tp890
a(g69
I01
tp891
a(g53
I00
tp892
a(g57
I01
tp893
a(g65
I01
tp894
a(g50
I01
tp895
a(g311
I01
tp896
atp897
Rp898
s(g650
I00
tp899
g81
((lp900
(g58
I00
tp901
a(g60
I00
tp902
a(g458
I00
tp903
a(g316
I00
tp904
a(g53
I00
tp905
a(g83
I00
tp906
a(g46
I00
tp907
a(g326
I00
tp908
a(g89
I00
tp909
a(g141
I00
tp910
a(g52
I00
tp911
a(g334
I00
tp912
a(g107
I00
tp913
a(g44
I00
tp914
a(g98
I00
tp915
a(g604
I00
tp916
a(g66
I00
tp917
a(g307
I00
tp918
atp919
Rp920
s(g365
I00
tp921
g81
((lp922
tp923
Rp924
s(g417
I01
tp925
g81
((lp926
(g57
I01
tp927
a(g413
I01
tp928
a(g411
I00
tp929
a(g53
I00
tp930
atp931
Rp932
s(g62
I01
tp933
g81
((lp934
(g58
I00
tp935
a(g456
I00
tp936
a(g152
I01
tp937
a(g57
I01
tp938
a(g53
I00
tp939
a(g46
I00
tp940
a(g326
I00
tp941
a(g180
I01
tp942
a(g458
I00
tp943
a(g182
I01
tp944
a(g67
I00
tp945
a(g215
I00
tp946
atp947
Rp948
s(g630
I00
tp949
g81
((lp950
(g58
I00
tp951
atp952
Rp953
s(g94
I01
tp954
g81
((lp955
(g434
I01
tp956
a(g51
I00
tp957
a(g53
I00
tp958
a(g56
I01
tp959
a(g49
I01
tp960
a(g407
I00
tp961
a(g441
I01
tp962
a(g44
I00
tp963
a(g57
I01
tp964
a(S'rational'
p965
I01
tp966
a(g65
I01
tp967
a(g89
I00
tp968
a(g50
I01
tp969
atp970
Rp971
s(g57
I00
tp972
g81
((lp973
(g58
I00
tp974
a(g42
I00
tp975
a(g53
I00
tp976
a(g326
I00
tp977
a(g61
I00
tp978
a(g458
I00
tp979
a(g67
I00
tp980
a(g83
I00
tp981
a(g59
I00
tp982
a(g186
I00
tp983
a(S'complex'
p984
I00
tp985
a(g456
I00
tp986
a(g46
I00
tp987
a(g463
I00
tp988
a(g322
I00
tp989
a(g107
I00
tp990
a(g348
I00
tp991
a(S'extended_real'
p992
I00
tp993
a(g66
I00
tp994
a(g407
I00
tp995
a(g52
I00
tp996
a(g44
I00
tp997
a(g98
I00
tp998
a(g69
I00
tp999
a(g89
I00
tp1000
atp1001
Rp1002
s(g47
I00
tp1003
g81
((lp1004
(g344
I00
tp1005
a(g456
I00
tp1006
a(g458
I00
tp1007
a(g195
I00
tp1008
a(g46
I00
tp1009
a(g326
I00
tp1010
atp1011
Rp1012
s(g44
I01
tp1013
g81
((lp1014
(g393
I01
tp1015
a(g58
I00
tp1016
a(g56
I01
tp1017
a(g458
I00
tp1018
a(g51
I00
tp1019
a(g53
I00
tp1020
a(g46
I00
tp1021
a(g107
I00
tp1022
a(g417
I01
tp1023
a(g334
I01
tp1024
a(g52
I00
tp1025
a(g407
I01
tp1026
a(g98
I00
tp1027
a(g57
I01
tp1028
a(g65
I01
tp1029
a(g66
I00
tp1030
a(g50
I01
tp1031
a(g441
I01
tp1032
atp1033
Rp1034
s(g111
I00
tp1035
g81
((lp1036
tp1037
Rp1038
s(g43
I01
tp1039
g81
((lp1040
tp1041
Rp1042
s(g423
I01
tp1043
g81
((lp1044
(g51
I00
tp1045
atp1046
Rp1047
s(g348
I00
tp1048
g81
((lp1049
(g354
I00
tp1050
a(g61
I00
tp1051
atp1052
Rp1053
s(g89
I00
tp1054
g81
((lp1055
tp1056
Rp1057
s(g46
I01
tp1058
g81
((lp1059
(g334
I01
tp1060
a(g58
I00
tp1061
a(g53
I00
tp1062
a(g49
I01
tp1063
a(g338
I01
tp1064
a(g66
I01
tp1065
a(g65
I01
tp1066
a(g61
I00
tp1067
a(g434
I01
tp1068
a(g810
I00
tp1069
a(g854
I01
tp1070
a(g186
I00
tp1071
a(g57
I01
tp1072
a(g195
I01
tp1073
a(g50
I01
tp1074
a(g56
I01
tp1075
a(g417
I01
tp1076
a(g52
I01
tp1077
a(g51
I00
tp1078
a(g441
I01
tp1079
a(g348
I00
tp1080
a(g350
I01
tp1081
a(g407
I00
tp1082
a(g44
I00
tp1083
a(g69
I00
tp1084
a(g89
I00
tp1085
atp1086
Rp1087
s(g350
I01
tp1088
g81
((lp1089
(g283
I01
tp1090
a(g51
I00
tp1091
a(g53
I00
tp1092
a(g56
I01
tp1093
a(g285
I00
tp1094
a(g320
I01
tp1095
a(g186
I00
tp1096
a(g322
I01
tp1097
a(g57
I01
tp1098
a(g65
I01
tp1099
a(g50
I01
tp1100
atp1101
Rp1102
s(g407
I00
tp1103
g81
((lp1104
tp1105
Rp1106
s(g201
I00
tp1107
g81
((lp1108
(g145
I00
tp1109
a(g456
I00
tp1110
a(g458
I00
tp1111
a(g348
I00
tp1112
a(g141
I00
tp1113
a(g67
I00
tp1114
a(g417
I00
tp1115
a(g46
I00
tp1116
a(g326
I00
tp1117
a(g407
I00
tp1118
a(g52
I00
tp1119
a(g463
I00
tp1120
a(g107
I00
tp1121
a(g147
I00
tp1122
a(g44
I00
tp1123
a(g98
I00
tp1124
a(g215
I00
tp1125
a(g66
I00
tp1126
a(g61
I00
tp1127
a(g205
I00
tp1128
atp1129
Rp1130
s(g52
I00
tp1131
g81
((lp1132
(g58
I00
tp1133
a(g46
I00
tp1134
a(g458
I00
tp1135
a(g107
I00
tp1136
a(g98
I00
tp1137
atp1138
Rp1139
s(g407
I01
tp1140
g81
((lp1141
(g58
I00
tp1142
a(g403
I01
tp1143
a(g53
I00
tp1144
a(g46
I00
tp1145
a(g107
I00
tp1146
a(g417
I01
tp1147
a(g401
I00
tp1148
a(g458
I00
tp1149
a(g98
I00
tp1150
a(g57
I01
tp1151
atp1152
Rp1153
s(g54
I00
tp1154
g81
((lp1155
tp1156
Rp1157
s(g51
I01
tp1158
g81
((lp1159
(g423
I00
tp1160
a(g58
I00
tp1161
a(g456
I00
tp1162
a(g458
I00
tp1163
a(g348
I00
tp1164
a(g53
I00
tp1165
a(g83
I00
tp1166
a(g46
I00
tp1167
a(g326
I00
tp1168
a(g66
I00
tp1169
a(g463
I00
tp1170
a(g52
I00
tp1171
a(g42
I00
tp1172
a(g107
I00
tp1173
a(g44
I00
tp1174
a(g98
I00
tp1175
a(g422
I00
tp1176
a(g89
I00
tp1177
a(g61
I00
tp1178
atp1179
Rp1180
s(g69
I00
tp1181
g81
((lp1182
(g344
I00
tp1183
a(g316
I00
tp1184
a(g186
I00
tp1185
a(g61
I00
tp1186
atp1187
Rp1188
s(g66
I00
tp1189
g81
((lp1190
(g58
I00
tp1191
a(g107
I00
tp1192
a(g46
I00
tp1193
a(S'integer'
p1194
I00
tp1195
a(g458
I00
tp1196
a(g98
I00
tp1197
atp1198
Rp1199
ssS'prereq'
p1200
g429
(g81
tp1201
Rp1202
g348
g81
((lp1203
g42
ag810
ag201
ag57
ag46
ag60
ag69
ag61
ag354
ag422
ag51
ag195
ag50
ag650
ag425
atp1204
Rp1205
sg58
g81
((lp1206
g42
ag630
ag89
ag348
ag46
ag69
ag594
ag50
ag51
ag52
ag425
ag98
ag44
ag334
ag201
ag57
ag417
ag60
ag407
ag61
ag62
ag63
ag810
ag422
ag66
ag195
ag650
ag47
atp1207
Rp1208
sg98
g81
((lp1209
g42
ag89
ag594
ag354
ag51
ag52
ag425
ag44
ag48
ag201
ag57
ag407
ag50
ag422
ag66
ag650
atp1210
Rp1211
sg44
g81
((lp1212
g48
ag42
ag201
ag57
ag46
ag810
ag50
ag354
ag422
ag66
ag51
ag94
ag425
ag650
ag98
atp1213
Rp1214
sg463
g81
((lp1215
g42
ag44
ag46
ag59
ag354
ag51
ag50
ag98
ag425
ag810
ag201
ag57
ag60
ag61
ag422
ag650
atp1216
Rp1217
sg43
g81
((lp1218
tp1219
Rp1220
sg57
g81
((lp1221
g424
ag334
ag44
ag257
ag46
ag69
ag417
ag354
ag94
ag425
ag350
ag98
ag48
ag56
ag49
ag60
ag407
ag61
ag62
ag66
ag810
ag604
ag89
ag195
ag338
atp1222
Rp1223
sg456
g81
((lp1224
g42
ag810
ag257
ag46
ag69
ag59
ag354
ag51
ag50
ag425
ag255
ag201
ag57
ag61
ag62
ag63
ag422
ag67
ag650
ag47
atp1225
Rp1226
sg407
g81
((lp1227
g48
ag810
ag201
ag57
ag46
ag354
ag94
ag425
ag98
ag44
atp1228
Rp1229
sg61
g81
((lp1230
g42
ag810
ag348
ag46
ag338
ag59
ag354
ag51
ag425
ag255
ag201
ag57
ag60
ag50
ag62
ag350
ag422
ag195
ag650
ag69
atp1231
Rp1232
sg211
g81
((lp1233
g810
ag201
ag57
ag46
ag60
ag338
ag61
ag350
ag59
ag354
ag195
ag425
ag69
atp1234
Rp1235
sg65
g81
((lp1236
g424
ag810
ag44
ag257
ag46
ag49
ag354
ag334
ag51
ag94
ag425
ag98
ag57
ag48
ag89
ag60
ag61
ag350
ag66
ag650
atp1237
Rp1238
sg66
g81
((lp1239
g42
ag810
ag44
ag46
ag594
ag354
ag51
ag94
ag425
ag98
ag48
ag201
ag57
ag50
ag422
ag89
ag650
atp1240
Rp1241
sg441
g81
((lp1242
g424
ag810
ag66
ag257
ag46
ag49
ag354
ag51
ag94
ag425
ag98
ag44
ag48
ag60
ag61
ag350
ag604
ag89
ag334
atp1243
Rp1244
sg69
g81
((lp1245
g810
ag201
ag57
ag257
ag46
ag60
ag61
ag62
ag354
ag425
ag195
atp1246
Rp1247
sg434
g81
((lp1248
g334
ag44
ag257
ag46
ag354
ag51
ag94
ag50
ag98
ag425
ag48
ag201
ag57
ag60
ag61
ag350
ag810
ag422
ag66
ag650
atp1249
Rp1250
sg107
g81
((lp1251
g42
ag89
ag594
ag354
ag51
ag52
ag425
ag98
ag44
ag201
ag57
ag407
ag50
ag422
ag66
ag650
atp1252
Rp1253
sg89
g81
((lp1254
g48
ag810
ag57
ag46
ag49
ag354
ag422
ag66
ag51
ag94
ag650
ag98
atp1255
Rp1256
sg45
g81
((lp1257
g425
atp1258
Rp1259
sg46
g81
((lp1260
g42
ag810
ag50
ag89
ag257
ag47
ag594
ag354
ag51
ag52
ag425
ag44
ag255
ag201
ag57
ag59
ag854
ag407
ag61
ag62
ag63
ag422
ag66
ag67
ag650
ag69
atp1261
Rp1262
sg322
g81
((lp1263
g810
ag201
ag57
ag46
ag60
ag61
ag62
ag350
ag354
ag425
ag195
atp1264
Rp1265
sg49
g81
((lp1266
g48
ag810
ag89
ag46
ag354
ag422
ag66
ag51
ag94
ag650
ag98
ag57
atp1267
Rp1268
sg51
g81
((lp1269
g424
ag810
ag66
ag257
ag46
ag49
ag354
ag334
ag94
ag425
ag98
ag44
ag48
ag60
ag61
ag350
ag604
ag89
ag423
atp1270
Rp1271
sg102
g81
((lp1272
g42
ag810
ag89
ag46
ag594
ag354
ag51
ag425
ag98
ag44
ag48
ag201
ag57
ag407
ag50
ag422
ag66
ag650
atp1273
Rp1274
sg53
g81
((lp1275
g424
ag334
ag44
ag45
ag257
ag46
ag69
ag417
ag354
ag51
ag94
ag98
ag48
ag56
ag57
ag60
ag407
ag61
ag62
ag350
ag810
ag422
ag66
ag195
ag650
ag338
atp1276
Rp1277
sg458
g81
((lp1278
g42
ag50
ag89
ag257
ag46
ag47
ag594
ag354
ag51
ag52
ag425
ag44
ag255
ag201
ag57
ag59
ag854
ag407
ag61
ag62
ag63
ag422
ag66
ag67
ag650
ag69
atp1279
Rp1280
sg56
g81
((lp1281
g424
ag334
ag44
ag257
ag46
ag69
ag417
ag354
ag94
ag425
ag98
ag48
ag57
ag60
ag407
ag61
ag62
ag350
ag810
ag66
ag195
ag338
atp1282
Rp1283
sg417
g81
((lp1284
g334
ag810
ag201
ag57
ag46
ag60
ag407
ag61
ag62
ag354
ag425
ag98
ag195
ag44
atp1285
Rp1286
sg50
g81
((lp1287
g48
ag424
ag44
ag257
ag46
ag60
ag61
ag350
ag810
ag354
ag66
ag94
ag334
ag98
atp1288
Rp1289
sg326
g81
((lp1290
g42
ag810
ag201
ag57
ag46
ag60
ag47
ag61
ag62
ag354
ag422
ag51
ag50
ag650
ag425
atp1291
Rp1292
sg67
g81
((lp1293
g810
ag201
ag57
ag257
ag46
ag60
ag69
ag61
ag62
ag59
ag354
ag425
ag47
atp1294
Rp1295
ssS'beta_triggers'
p1296
g429
(g81
tp1297
Rp1298
(g48
I01
tp1299
(lp1300
I8
aI9
aI10
aI13
aI14
aI16
aI17
aI18
aI21
aI22
aI23
aI24
aI25
aI26
aI27
aI30
aI31
aI33
aI36
as(g50
I00
tp1301
(lp1302
I3
aI4
aI7
aI8
aI10
aI35
aI36
as(g42
I00
tp1303
(lp1304
I3
aI4
aI7
aI8
aI10
aI35
aI36
as(g338
I01
tp1305
(lp1306
I4
aI5
aI6
aI9
aI10
aI12
aI13
aI15
aI17
aI18
aI22
aI26
aI28
aI35
aI36
as(g61
I01
tp1307
(lp1308
I0
aI34
aI35
as(g425
I00
tp1309
g81
((lp1310
tp1311
Rp1312
s(g63
I00
tp1313
(lp1314
I7
aI8
aI10
aI15
aI16
aI21
aI36
as(g49
I01
tp1315
(lp1316
I3
aI5
aI6
aI23
aI24
aI25
aI26
aI27
as(g255
I00
tp1317
(lp1318
I15
aI17
aI21
aI22
as(g98
I01
tp1319
(lp1320
I8
aI10
aI11
aI12
aI13
aI14
aI16
aI18
aI19
aI20
aI21
aI22
aI23
aI24
aI25
aI26
as(g69
I01
tp1321
(lp1322
I4
aI5
aI6
aI8
aI9
aI11
aI14
aI15
aI16
aI17
aI21
aI25
aI28
aI35
aI36
as(g66
I01
tp1323
(lp1324
I8
aI9
aI10
aI13
aI14
aI16
aI17
aI18
aI21
aI22
aI23
aI24
aI25
aI26
aI27
aI35
aI36
as(g604
I01
tp1325
(lp1326
I0
aI3
aI5
aI6
aI23
aI24
aI25
aI26
aI27
as(g89
I01
tp1327
(lp1328
I3
aI5
aI6
aI7
aI8
aI10
aI15
aI16
aI18
aI23
aI24
aI25
aI26
aI27
aI34
aI35
aI36
as(g354
I01
tp1329
(lp1330
s(g424
I01
tp1331
(lp1332
I0
aI8
aI9
aI10
aI13
aI14
aI16
aI17
aI18
aI21
aI22
aI23
aI24
aI25
aI26
aI27
aI34
aI35
aI36
as(g64
I00
tp1333
(lp1334
I30
aI32
aI33
as(g45
I00
tp1335
(lp1336
s(g60
I01
tp1337
(lp1338
I0
aI30
aI31
aI32
aI34
aI35
as(g425
I01
tp1339
(lp1340
I0
as(g67
I00
tp1341
(lp1342
I7
aI8
aI9
aI13
aI15
aI16
aI17
aI21
as(g59
I00
tp1343
(lp1344
I7
aI9
aI13
aI14
aI15
aI17
aI21
aI22
as(g50
I01
tp1345
g81
((lp1346
tp1347
Rp1348
s(g334
I01
tp1349
(lp1350
I0
aI8
aI10
aI11
aI12
aI13
aI14
aI16
aI18
aI19
aI20
aI21
aI22
aI23
aI24
aI25
aI26
aI34
aI35
as(g145
I00
tp1351
(lp1352
I7
aI8
aI10
aI15
aI16
aI18
aI36
as(g223
I00
tp1353
(lp1354
I15
aI17
aI18
aI22
as(g422
I00
tp1355
(lp1356
I3
aI4
aI7
aI8
aI10
aI35
aI36
as(g57
I01
tp1357
g81
((lp1358
tp1359
Rp1360
s(g62
I00
tp1361
(lp1362
I7
aI9
aI10
aI14
aI15
aI17
aI18
aI22
as(g810
I01
tp1363
(lp1364
I1
aI2
as(g594
I00
tp1365
(lp1366
I0
aI7
aI8
aI10
aI15
aI16
aI18
aI34
aI35
aI36
as(g854
I00
tp1367
(lp1368
I15
aI16
aI17
aI21
as(g56
I01
tp1369
(lp1370
I4
aI5
aI6
aI8
aI9
aI10
aI13
aI14
aI35
aI36
as(g195
I01
tp1371
(lp1372
I4
aI5
aI6
aI15
aI18
aI22
aI23
aI26
aI27
aI35
as(g257
I01
tp1373
(lp1374
I0
aI8
aI9
aI11
aI14
aI16
aI17
aI19
aI22
aI24
aI26
aI27
aI28
aI29
aI34
aI35
aI36
as(g650
I00
tp1375
(lp1376
I3
aI4
aI7
aI8
aI10
aI35
aI36
as(g365
I00
tp1377
(lp1378
I31
aI32
aI33
as(g417
I01
tp1379
(lp1380
I4
aI5
aI6
aI8
aI10
aI11
aI12
aI13
aI14
aI15
aI16
aI18
aI27
aI35
as(g62
I01
tp1381
(lp1382
I4
aI5
aI6
aI15
aI16
aI21
aI24
aI25
aI27
aI35
as(g630
I00
tp1383
(lp1384
I1
aI7
aI8
aI10
aI15
aI16
aI18
aI36
as(g94
I01
tp1385
(lp1386
I1
aI2
aI8
aI9
aI10
aI13
aI14
aI16
aI17
aI18
aI21
aI22
aI23
aI24
aI25
aI26
aI27
aI36
as(g57
I00
tp1387
(lp1388
s(g47
I00
tp1389
(lp1390
I7
aI8
aI13
aI15
aI16
aI21
aI36
as(g44
I01
tp1391
(lp1392
I0
aI8
aI10
aI11
aI12
aI13
aI14
aI16
aI18
aI19
aI20
aI21
aI22
aI23
aI24
aI25
aI26
as(g111
I00
tp1393
(lp1394
I3
aI5
as(g43
I01
tp1395
g81
((lp1396
tp1397
Rp1398
s(g423
I01
tp1399
(lp1400
I3
aI5
aI6
aI23
aI24
aI25
aI26
aI27
as(g348
I00
tp1401
(lp1402
I7
aI8
aI10
aI15
aI18
aI22
aI36
as(g89
I00
tp1403
g81
((lp1404
tp1405
Rp1406
s(g46
I01
tp1407
(lp1408
I1
aI2
as(g350
I01
tp1409
(lp1410
I0
aI9
aI10
aI12
aI13
aI17
aI18
aI20
aI21
aI23
aI25
aI27
aI28
aI29
aI34
aI35
aI36
as(g407
I00
tp1411
g81
((lp1412
tp1413
Rp1414
s(g201
I00
tp1415
(lp1416
s(g52
I00
tp1417
(lp1418
I7
aI8
aI10
aI15
aI16
aI18
aI35
aI36
as(g407
I01
tp1419
(lp1420
I4
aI5
aI6
aI8
aI10
aI11
aI12
aI13
aI14
aI15
aI16
aI18
aI27
as(g54
I00
tp1421
(lp1422
I2
as(g51
I01
tp1423
(lp1424
I7
aI8
aI10
aI35
aI36
as(g69
I00
tp1425
(lp1426
I7
aI10
aI14
aI15
aI18
aI22
aI36
as(g66
I00
tp1427
(lp1428
I7
aI8
aI10
aI15
aI16
aI18
aI34
aI35
aI36
assbsS'_generator'
p1429
(dp1430
g55
I01
sS'finite'
p1431
I01
ssbsbg27
tp1432
Rp1433
(dp1434
btp1435
Rp1436
(dp1437
btp1438
Rp1439
(dp1440
bcsympy.core.numbers
Rational
p1441
(I-1
I2
tp1442
Rp1443
(dp1444
btp1445
Rp1446
(dp1447
bg5
(g25
(g5
(g32
(S'\\alpha'
p1448
tp1449
Rp1450
(dp1451
g37
g38
(g39
g40
(dp1452
g42
I01
sg43
Nsg44
Nsg45
Nsg46
Nsg47
Nsg48
Nsg49
Nsg50
I01
sg51
I00
sg52
Nsg53
I00
sg54
Nsg55
I01
sg56
I01
sg57
I01
sg58
I00
sg59
I01
sg60
Nsg61
Nsg62
Nsg63
Nsg64
Nsg65
I01
sg66
Nsg67
Nsg68
I01
sg69
Nstp1453
Rp1454
(dp1455
g73
g77
sg1429
(dp1456
g55
I01
sg1431
I01
ssbsbg27
tp1457
Rp1458
(dp1459
bg1433
tp1460
Rp1461
(dp1462
bg1443
tp1463
Rp1464
(dp1465
btp1466
Rp1467
(dp1468
b.