csympy.core.mul
Mul
p0
(csympy.core.power
Pow
p1
(csympy.core.numbers
Integer
p2
(I6
tp3
Rp4
(dp5
bcsympy.core.numbers
Half
p6
(I1
I2
tp7
Rp8
(dp9
btp10
Rp11
(dp12
bg1
(csympy.core.numbers
Pi
p13
(tRp14
(dp15
bg2
(I4
tp16
Rp17
(dp18
btp19
Rp20
(dp21
bg1
(csympy.core.symbol
Symbol
p22
(S'\\alpha'
p23
tp24
Rp25
(dp26
S'_assumptions'
p27
ccopy_reg
_reconstructor
p28
(csympy.core.assumptions
StdFactKB
p29
c__builtin__
dict
p30
(dp31
S'real'
p32
I01
sS'polar'
p33
NsS'irrational'
p34
NsS'antihermitian'
p35
NsS'composite'
p36
NsS'extended_nonnegative'
p37
NsS'even'
p38
NsS'negative'
p39
NsS'algebraic'
p40
NsS'hermitian'
p41
I01
sS'infinite'
p42
I00
sS'integer'
p43
NsS'imaginary'
p44
I00
sS'odd'
p45
NsS'nonzero'
p46
I01
sS'extended_real'
p47
I01
sS'commutative'
p48
I01
sS'extended_nonzero'
p49
I01
sS'positive'
p50
NsS'zero'
p51
I00
sS'extended_negative'
p52
NsS'nonnegative'
p53
NsS'prime'
p54
NsS'complex'
p55
I01
sS'rational'
p56
NsS'extended_positive'
p57
NsS'finite'
p58
I01
sS'extended_nonpositive'
p59
Nstp60
Rp61
(dp62
S'rules'
p63
g28
(csympy.core.facts
FactRules
p64
c__builtin__
object
p65
Ntp66
Rp67
(dp68
S'beta_rules'
p69
(lp70
(c__builtin__
set
p71
((lp72
(S'algebraic'
p73
I00
tp74
a(S'complex'
p75
I01
tp76
atp77
Rp78
(S'transcendental'
p79
I01
tp80
tp81
a(g71
((lp82
(g38
I00
tp83
a(S'integer'
p84
I01
tp85
atp86
Rp87
(S'odd'
p88
I01
tp89
tp90
a(g71
((lp91
(S'integer'
p92
I01
tp93
a(g45
I00
tp94
atp95
Rp96
(S'even'
p97
I01
tp98
tp99
a(g71
((lp100
(S'infinite'
p101
I00
tp102
a(S'real'
p103
I00
tp104
atp105
Rp106
(S'extended_real'
p107
I00
tp108
tp109
a(g71
((lp110
(g107
I01
tp111
a(g103
I00
tp112
atp113
Rp114
(g101
I01
tp115
tp116
a(g71
((lp117
(g107
I01
tp118
a(g101
I00
tp119
atp120
Rp121
(g103
I01
tp122
tp123
a(g71
((lp124
(S'extended_real'
p125
I01
tp126
a(S'finite'
p127
I01
tp128
atp129
Rp130
(S'real'
p131
I01
tp132
tp133
a(g71
((lp134
(S'zero'
p135
I00
tp136
a(S'extended_negative'
p137
I00
tp138
a(g57
I00
tp139
atp140
Rp141
(S'extended_real'
p142
I00
tp143
tp144
a(g71
((lp145
(g135
I00
tp146
a(g142
I01
tp147
a(g57
I00
tp148
atp149
Rp150
(g137
I01
tp151
tp152
a(g71
((lp153
(g57
I00
tp154
a(g142
I01
tp155
a(g137
I00
tp156
atp157
Rp158
(g135
I01
tp159
tp160
a(g71
((lp161
(g135
I00
tp162
a(g142
I01
tp163
a(g137
I00
tp164
atp165
Rp166
(g57
I01
tp167
tp168
a(g71
((lp169
(S'extended_nonzero'
p170
I01
tp171
a(S'extended_nonpositive'
p172
I01
tp173
atp174
Rp175
(S'extended_negative'
p176
I01
tp177
tp178
a(g71
((lp179
(S'extended_nonzero'
p180
I01
tp181
a(g37
I01
tp182
atp183
Rp184
(S'extended_positive'
p185
I01
tp186
tp187
a(g71
((lp188
(S'extended_positive'
p189
I00
tp190
a(S'extended_real'
p191
I01
tp192
atp193
Rp194
(S'extended_nonpositive'
p195
I01
tp196
tp197
a(g71
((lp198
(S'extended_real'
p199
I01
tp200
a(S'extended_negative'
p201
I00
tp202
atp203
Rp204
(S'extended_nonnegative'
p205
I01
tp206
tp207
a(g71
((lp208
(S'zero'
p209
I00
tp210
a(S'positive'
p211
I00
tp212
a(S'negative'
p213
I00
tp214
atp215
Rp216
(S'real'
p217
I00
tp218
tp219
a(g71
((lp220
(g217
I01
tp221
a(g209
I00
tp222
a(g211
I00
tp223
atp224
Rp225
(g213
I01
tp226
tp227
a(g71
((lp228
(g217
I01
tp229
a(g211
I00
tp230
a(g213
I00
tp231
atp232
Rp233
(g209
I01
tp234
tp235
a(g71
((lp236
(g217
I01
tp237
a(g209
I00
tp238
a(g213
I00
tp239
atp240
Rp241
(g211
I01
tp242
tp243
a(g71
((lp244
(S'nonzero'
p245
I01
tp246
a(S'nonpositive'
p247
I01
tp248
atp249
Rp250
(g39
I01
tp251
tp252
a(g71
((lp253
(S'nonzero'
p254
I01
tp255
a(g53
I01
tp256
atp257
Rp258
(S'positive'
p259
I01
tp260
tp261
a(g71
((lp262
(S'real'
p263
I01
tp264
a(S'positive'
p265
I00
tp266
atp267
Rp268
(S'nonpositive'
p269
I01
tp270
tp271
a(g71
((lp272
(S'real'
p273
I01
tp274
a(S'negative'
p275
I00
tp276
atp277
Rp278
(S'nonnegative'
p279
I01
tp280
tp281
a(g71
((lp282
(S'finite'
p283
I01
tp284
a(S'extended_positive'
p285
I01
tp286
atp287
Rp288
(g50
I01
tp289
tp290
a(g71
((lp291
(g52
I01
tp292
a(S'finite'
p293
I01
tp294
atp295
Rp296
(S'negative'
p297
I01
tp298
tp299
a(g71
((lp300
(S'finite'
p301
I01
tp302
a(g59
I01
tp303
atp304
Rp305
(S'nonpositive'
p306
I01
tp307
tp308
a(g71
((lp309
(S'finite'
p310
I01
tp311
a(S'extended_nonnegative'
p312
I01
tp313
atp314
Rp315
(S'nonnegative'
p316
I01
tp317
tp318
a(g71
((lp319
(g58
I01
tp320
a(g49
I01
tp321
atp322
Rp323
(S'nonzero'
p324
I01
tp325
tp326
a(g71
((lp327
(S'extended_nonnegative'
p328
I01
tp329
a(S'extended_nonpositive'
p330
I01
tp331
atp332
Rp333
(S'zero'
p334
I01
tp335
tp336
a(g71
((lp337
(S'nonpositive'
p338
I01
tp339
a(S'nonnegative'
p340
I01
tp341
atp342
Rp343
(S'zero'
p344
I01
tp345
tp346
a(g71
((lp347
(S'even'
p348
I01
tp349
a(g54
I00
tp350
a(S'positive'
p351
I01
tp352
atp353
Rp354
(S'composite'
p355
I01
tp356
tp357
a(g71
((lp358
(g348
I01
tp359
a(g355
I00
tp360
a(g351
I01
tp361
atp362
Rp363
(g54
I01
tp364
tp365
a(g71
((lp366
(g355
I00
tp367
a(g54
I00
tp368
a(g351
I01
tp369
atp370
Rp371
(g348
I00
tp372
tp373
a(g71
((lp374
(g348
I01
tp375
a(g355
I00
tp376
a(g54
I00
tp377
atp378
Rp379
(g351
I00
tp380
tp381
a(g71
((lp382
(S'real'
p383
I01
tp384
a(g56
I00
tp385
atp386
Rp387
(g34
I01
tp388
tp389
a(g71
((lp390
(S'integer'
p391
I00
tp392
a(S'extended_real'
p393
I01
tp394
atp395
Rp396
(S'noninteger'
p397
I01
tp398
tp399
a(g71
((lp400
(S'zero'
p401
I00
tp402
a(S'extended_real'
p403
I01
tp404
atp405
Rp406
(S'extended_nonzero'
p407
I01
tp408
tp409
asS'defined_facts'
p410
g71
((lp411
g338
ag41
ag45
ag38
ag48
ag50
ag397
ag39
ag52
aS'complex'
p412
ag56
aS'finite'
p413
ag37
aS'real'
p414
ag324
ag34
ag35
ag36
ag59
ag49
ag101
ag43
aS'imaginary'
p415
ag54
ag47
ag40
ag344
ag53
ag57
ag79
atp416
Rp417
sS'full_implications'
p418
ccollections
defaultdict
p419
(g71
tp420
Rp421
(g38
I01
tp422
g71
((lp423
(S'real'
p424
I01
tp425
a(S'finite'
p426
I01
tp427
a(g44
I00
tp428
a(g47
I01
tp429
a(g40
I01
tp430
a(g397
I00
tp431
a(g42
I00
tp432
a(g92
I01
tp433
a(g34
I00
tp434
a(g88
I00
tp435
a(g48
I01
tp436
a(g56
I01
tp437
a(g55
I01
tp438
a(g79
I00
tp439
a(g41
I01
tp440
atp441
Rp442
s(g41
I00
tp443
g71
((lp444
(g51
I00
tp445
a(S'positive'
p446
I00
tp447
a(S'prime'
p448
I00
tp449
a(g338
I00
tp450
a(g36
I00
tp451
a(g316
I00
tp452
a(S'nonzero'
p453
I00
tp454
a(g43
I00
tp455
a(g424
I00
tp456
a(g97
I00
tp457
a(g34
I00
tp458
a(g88
I00
tp459
a(g56
I00
tp460
a(g39
I00
tp461
atp462
Rp463
s(g32
I00
tp464
g71
((lp465
(g209
I00
tp466
a(g211
I00
tp467
a(g453
I00
tp468
a(g269
I00
tp469
a(g36
I00
tp470
a(g279
I00
tp471
a(g43
I00
tp472
a(g448
I00
tp473
a(g97
I00
tp474
a(g34
I00
tp475
a(g88
I00
tp476
a(S'rational'
p477
I00
tp478
a(g213
I00
tp479
atp480
Rp481
s(g328
I01
tp482
g71
((lp483
(g44
I00
tp484
a(g199
I01
tp485
a(g201
I00
tp486
a(g39
I00
tp487
a(g48
I01
tp488
atp489
Rp490
s(g39
I01
tp491
g71
((lp492
(g217
I01
tp493
a(g245
I01
tp494
a(g446
I00
tp495
a(g448
I00
tp496
a(g247
I01
tp497
a(g36
I00
tp498
a(g57
I00
tp499
a(g47
I01
tp500
a(g279
I00
tp501
a(g407
I01
tp502
a(g55
I01
tp503
a(g52
I01
tp504
a(g293
I01
tp505
a(g51
I00
tp506
a(g59
I01
tp507
a(g44
I00
tp508
a(g48
I01
tp509
a(g42
I00
tp510
a(g41
I01
tp511
a(g312
I00
tp512
atp513
Rp514
s(g415
I00
tp515
g71
((lp516
tp517
Rp518
s(g53
I00
tp519
g71
((lp520
(g344
I00
tp521
a(g259
I00
tp522
a(g448
I00
tp523
a(g36
I00
tp524
atp525
Rp526
s(g40
I01
tp527
g71
((lp528
(g48
I01
tp529
a(g42
I00
tp530
a(g55
I01
tp531
a(g79
I00
tp532
a(g426
I01
tp533
atp534
Rp535
s(g245
I00
tp536
g71
((lp537
(g259
I00
tp538
a(g448
I00
tp539
a(g39
I00
tp540
a(g36
I00
tp541
atp542
Rp543
s(g88
I01
tp544
g71
((lp545
(g424
I01
tp546
a(g51
I00
tp547
a(g38
I00
tp548
a(g44
I00
tp549
a(g47
I01
tp550
a(g40
I01
tp551
a(g324
I01
tp552
a(g407
I01
tp553
a(g397
I00
tp554
a(g42
I00
tp555
a(g426
I01
tp556
a(g84
I01
tp557
a(g34
I00
tp558
a(g48
I01
tp559
a(g56
I01
tp560
a(g55
I01
tp561
a(g79
I00
tp562
a(g41
I01
tp563
atp564
Rp565
s(g59
I01
tp566
g71
((lp567
(g446
I00
tp568
a(g36
I00
tp569
a(g189
I00
tp570
a(g191
I01
tp571
a(g448
I00
tp572
a(g44
I00
tp573
a(g48
I01
tp574
atp575
Rp576
s(g79
I01
tp577
g71
((lp578
(g51
I00
tp579
a(g448
I00
tp580
a(g42
I00
tp581
a(g73
I00
tp582
a(g36
I00
tp583
a(g43
I00
tp584
a(g97
I00
tp585
a(g88
I00
tp586
a(g48
I01
tp587
a(g75
I01
tp588
a(g56
I00
tp589
a(g426
I01
tp590
atp591
Rp592
s(S'complex'
p593
I01
tp594
g71
((lp595
(g48
I01
tp596
a(g42
I00
tp597
a(g426
I01
tp598
atp599
Rp600
s(g56
I01
tp601
g71
((lp602
(S'real'
p603
I01
tp604
a(g426
I01
tp605
a(g44
I00
tp606
a(g47
I01
tp607
a(S'algebraic'
p608
I01
tp609
a(g42
I00
tp610
a(g34
I00
tp611
a(g48
I01
tp612
a(g55
I01
tp613
a(g79
I00
tp614
a(g41
I01
tp615
atp616
Rp617
s(g344
I01
tp618
g71
((lp619
(S'even'
p620
I01
tp621
a(g328
I01
tp622
a(g44
I00
tp623
a(g40
I01
tp624
a(g330
I01
tp625
a(g56
I01
tp626
a(g55
I01
tp627
a(g39
I00
tp628
a(g217
I01
tp629
a(g448
I00
tp630
a(g57
I00
tp631
a(g407
I00
tp632
a(g41
I01
tp633
a(g48
I01
tp634
a(g176
I00
tp635
a(g446
I00
tp636
a(g36
I00
tp637
a(g338
I01
tp638
a(g142
I01
tp639
a(S'finite'
p640
I01
tp641
a(g84
I01
tp642
a(g42
I00
tp643
a(g453
I00
tp644
a(g340
I01
tp645
a(g397
I00
tp646
a(g34
I00
tp647
a(g88
I00
tp648
a(g79
I00
tp649
atp650
Rp651
s(g414
I01
tp652
g71
((lp653
(S'complex'
p654
I01
tp655
a(g44
I00
tp656
a(g125
I01
tp657
a(g127
I01
tp658
a(g48
I01
tp659
a(g42
I00
tp660
a(g41
I01
tp661
atp662
Rp663
s(g54
I00
tp664
g71
((lp665
tp666
Rp667
s(g35
I00
tp668
g71
((lp669
(g415
I00
tp670
atp671
Rp672
s(g50
I01
tp673
g71
((lp674
(g217
I01
tp675
a(g51
I00
tp676
a(g283
I01
tp677
a(g269
I00
tp678
a(g285
I01
tp679
a(g44
I00
tp680
a(g47
I01
tp681
a(g407
I01
tp682
a(g254
I01
tp683
a(g53
I01
tp684
a(g42
I00
tp685
a(g39
I00
tp686
a(g328
I01
tp687
a(g48
I01
tp688
a(g59
I00
tp689
a(g55
I01
tp690
a(g41
I01
tp691
a(g176
I00
tp692
atp693
Rp694
s(g415
I01
tp695
g71
((lp696
(g51
I00
tp697
a(g32
I00
tp698
a(g316
I00
tp699
a(g412
I01
tp700
a(g39
I00
tp701
a(g448
I00
tp702
a(g57
I00
tp703
a(g35
I01
tp704
a(g176
I00
tp705
a(g48
I01
tp706
a(g426
I01
tp707
a(g446
I00
tp708
a(g36
I00
tp709
a(g97
I00
tp710
a(g59
I00
tp711
a(g42
I00
tp712
a(g453
I00
tp713
a(g338
I00
tp714
a(g47
I00
tp715
a(g56
I00
tp716
a(g397
I00
tp717
a(g43
I00
tp718
a(g34
I00
tp719
a(g88
I00
tp720
a(g312
I00
tp721
a(g49
I00
tp722
atp723
Rp724
s(g57
I00
tp725
g71
((lp726
(g50
I00
tp727
a(g448
I00
tp728
a(g36
I00
tp729
atp730
Rp731
s(g49
I00
tp732
g71
((lp733
(g446
I00
tp734
a(g324
I00
tp735
a(g185
I00
tp736
a(g36
I00
tp737
a(g448
I00
tp738
a(g176
I00
tp739
a(g39
I00
tp740
atp741
Rp742
s(g324
I01
tp743
g71
((lp744
(g32
I01
tp745
a(g51
I00
tp746
a(g58
I01
tp747
a(g44
I00
tp748
a(g47
I01
tp749
a(g49
I01
tp750
a(g42
I00
tp751
a(g48
I01
tp752
a(g55
I01
tp753
a(g41
I01
tp754
atp755
Rp756
s(g135
I00
tp757
g71
((lp758
tp759
Rp760
s(g213
I00
tp761
g71
((lp762
tp763
Rp764
s(g412
I00
tp765
g71
((lp766
(g51
I00
tp767
a(g446
I00
tp768
a(g448
I00
tp769
a(g338
I00
tp770
a(S'imaginary'
p771
I00
tp772
a(g40
I00
tp773
a(g36
I00
tp774
a(g316
I00
tp775
a(g56
I00
tp776
a(g453
I00
tp777
a(g43
I00
tp778
a(g414
I00
tp779
a(g97
I00
tp780
a(g34
I00
tp781
a(g88
I00
tp782
a(g79
I00
tp783
a(g39
I00
tp784
atp785
Rp786
s(g48
I01
tp787
g71
((lp788
tp789
Rp790
s(g52
I00
tp791
g71
((lp792
(g297
I00
tp793
atp794
Rp795
s(S'prime'
p796
I01
tp797
g71
((lp798
(g324
I01
tp799
a(g51
I00
tp800
a(g44
I00
tp801
a(g407
I01
tp802
a(g39
I00
tp803
a(g328
I01
tp804
a(g56
I01
tp805
a(g55
I01
tp806
a(g41
I01
tp807
a(g424
I01
tp808
a(g446
I01
tp809
a(g176
I00
tp810
a(g48
I01
tp811
a(g47
I01
tp812
a(g185
I01
tp813
a(g36
I00
tp814
a(g40
I01
tp815
a(S'integer'
p816
I01
tp817
a(g42
I00
tp818
a(g426
I01
tp819
a(g338
I00
tp820
a(g340
I01
tp821
a(g397
I00
tp822
a(g34
I00
tp823
a(g59
I00
tp824
a(g79
I00
tp825
atp826
Rp827
s(g608
I00
tp828
g71
((lp829
(g51
I00
tp830
a(g448
I00
tp831
a(g36
I00
tp832
a(g43
I00
tp833
a(g97
I00
tp834
a(g88
I00
tp835
a(S'rational'
p836
I00
tp837
atp838
Rp839
s(S'positive'
p840
I00
tp841
g71
((lp842
(g36
I00
tp843
a(g448
I00
tp844
atp845
Rp846
s(g47
I01
tp847
g71
((lp848
(g44
I00
tp849
a(S'commutative'
p850
I01
tp851
atp852
Rp853
s(g185
I01
tp854
g71
((lp855
(g51
I00
tp856
a(g338
I00
tp857
a(g44
I00
tp858
a(g142
I01
tp859
a(g180
I01
tp860
a(g176
I00
tp861
a(g37
I01
tp862
a(g48
I01
tp863
a(g195
I00
tp864
a(g39
I00
tp865
atp866
Rp867
s(g247
I01
tp868
g71
((lp869
(g263
I01
tp870
a(g265
I00
tp871
a(g448
I00
tp872
a(g47
I01
tp873
a(g57
I00
tp874
a(g36
I00
tp875
a(g42
I00
tp876
a(g301
I01
tp877
a(g59
I01
tp878
a(g44
I00
tp879
a(g48
I01
tp880
a(g55
I01
tp881
a(g41
I01
tp882
atp883
Rp884
s(g41
I01
tp885
g71
((lp886
tp887
Rp888
s(g355
I00
tp889
g71
((lp890
tp891
Rp892
s(g407
I01
tp893
g71
((lp894
(g44
I00
tp895
a(g403
I01
tp896
a(g401
I00
tp897
a(g48
I01
tp898
atp899
Rp900
s(g52
I01
tp901
g71
((lp902
(g51
I00
tp903
a(g446
I00
tp904
a(g36
I00
tp905
a(g44
I00
tp906
a(g142
I01
tp907
a(g316
I00
tp908
a(g170
I01
tp909
a(g448
I00
tp910
a(g172
I01
tp911
a(g57
I00
tp912
a(g48
I01
tp913
a(g205
I00
tp914
atp915
Rp916
s(g620
I00
tp917
g71
((lp918
(g51
I00
tp919
atp920
Rp921
s(g84
I01
tp922
g71
((lp923
(g424
I01
tp924
a(g426
I01
tp925
a(g44
I00
tp926
a(g47
I01
tp927
a(g40
I01
tp928
a(g397
I00
tp929
a(g42
I00
tp930
a(g34
I00
tp931
a(g48
I01
tp932
a(S'rational'
p933
I01
tp934
a(g55
I01
tp935
a(g79
I00
tp936
a(g41
I01
tp937
atp938
Rp939
s(g48
I00
tp940
g71
((lp941
(g51
I00
tp942
a(g32
I00
tp943
a(g44
I00
tp944
a(g316
I00
tp945
a(g39
I00
tp946
a(g448
I00
tp947
a(g57
I00
tp948
a(g73
I00
tp949
a(g49
I00
tp950
a(g176
I00
tp951
a(S'complex'
p952
I00
tp953
a(g446
I00
tp954
a(g36
I00
tp955
a(g97
I00
tp956
a(g312
I00
tp957
a(g453
I00
tp958
a(g338
I00
tp959
a(S'extended_real'
p960
I00
tp961
a(g56
I00
tp962
a(g397
I00
tp963
a(g43
I00
tp964
a(g34
I00
tp965
a(g88
I00
tp966
a(g59
I00
tp967
a(g79
I00
tp968
atp969
Rp970
s(g37
I00
tp971
g71
((lp972
(g334
I00
tp973
a(g446
I00
tp974
a(g448
I00
tp975
a(g185
I00
tp976
a(g36
I00
tp977
a(g316
I00
tp978
atp979
Rp980
s(g34
I01
tp981
g71
((lp982
(g383
I01
tp983
a(g51
I00
tp984
a(g36
I00
tp985
a(g42
I00
tp986
a(g44
I00
tp987
a(g47
I01
tp988
a(g97
I00
tp989
a(g407
I01
tp990
a(g324
I01
tp991
a(g43
I00
tp992
a(g448
I00
tp993
a(g88
I00
tp994
a(g48
I01
tp995
a(g397
I01
tp996
a(g55
I01
tp997
a(g56
I00
tp998
a(g41
I01
tp999
a(g426
I01
tp1000
atp1001
Rp1002
s(g101
I00
tp1003
g71
((lp1004
tp1005
Rp1006
s(g33
I01
tp1007
g71
((lp1008
tp1009
Rp1010
s(g413
I01
tp1011
g71
((lp1012
(g42
I00
tp1013
atp1014
Rp1015
s(g338
I00
tp1016
g71
((lp1017
(g344
I00
tp1018
a(g39
I00
tp1019
atp1020
Rp1021
s(g79
I00
tp1022
g71
((lp1023
tp1024
Rp1025
s(g36
I01
tp1026
g71
((lp1027
(g324
I01
tp1028
a(g51
I00
tp1029
a(g44
I00
tp1030
a(g40
I01
tp1031
a(g39
I00
tp1032
a(g328
I01
tp1033
a(g56
I01
tp1034
a(g55
I01
tp1035
a(g41
I01
tp1036
a(g424
I01
tp1037
a(g796
I00
tp1038
a(g840
I01
tp1039
a(g176
I00
tp1040
a(g48
I01
tp1041
a(g185
I01
tp1042
a(g47
I01
tp1043
a(g407
I01
tp1044
a(g43
I01
tp1045
a(g42
I00
tp1046
a(g426
I01
tp1047
a(g338
I00
tp1048
a(g340
I01
tp1049
a(g397
I00
tp1050
a(g34
I00
tp1051
a(g59
I00
tp1052
a(g79
I00
tp1053
atp1054
Rp1055
s(g640
I00
tp1056
g71
((lp1057
(g51
I00
tp1058
a(g50
I00
tp1059
a(g448
I00
tp1060
a(g306
I00
tp1061
a(g44
I00
tp1062
a(g73
I00
tp1063
a(g36
I00
tp1064
a(g316
I00
tp1065
a(g79
I00
tp1066
a(g131
I00
tp1067
a(g43
I00
tp1068
a(g324
I00
tp1069
a(g97
I00
tp1070
a(g34
I00
tp1071
a(g88
I00
tp1072
a(g593
I00
tp1073
a(g56
I00
tp1074
a(g297
I00
tp1075
atp1076
Rp1077
s(g340
I01
tp1078
g71
((lp1079
(g273
I01
tp1080
a(g310
I01
tp1081
a(g44
I00
tp1082
a(g47
I01
tp1083
a(g275
I00
tp1084
a(g42
I00
tp1085
a(g176
I00
tp1086
a(g312
I01
tp1087
a(g48
I01
tp1088
a(g55
I01
tp1089
a(g41
I01
tp1090
atp1091
Rp1092
s(g397
I00
tp1093
g71
((lp1094
tp1095
Rp1096
s(g191
I00
tp1097
g71
((lp1098
(g135
I00
tp1099
a(g446
I00
tp1100
a(g131
I00
tp1101
a(g338
I00
tp1102
a(g57
I00
tp1103
a(g407
I00
tp1104
a(g36
I00
tp1105
a(g316
I00
tp1106
a(g448
I00
tp1107
a(g397
I00
tp1108
a(g43
I00
tp1109
a(g453
I00
tp1110
a(g97
I00
tp1111
a(g137
I00
tp1112
a(g34
I00
tp1113
a(g88
I00
tp1114
a(g205
I00
tp1115
a(g56
I00
tp1116
a(g39
I00
tp1117
a(g195
I00
tp1118
atp1119
Rp1120
s(g43
I00
tp1121
g71
((lp1122
(g51
I00
tp1123
a(g36
I00
tp1124
a(g97
I00
tp1125
a(g448
I00
tp1126
a(g88
I00
tp1127
atp1128
Rp1129
s(g397
I01
tp1130
g71
((lp1131
(g51
I00
tp1132
a(g393
I01
tp1133
a(g44
I00
tp1134
a(g36
I00
tp1135
a(g407
I01
tp1136
a(g391
I00
tp1137
a(g97
I00
tp1138
a(g88
I00
tp1139
a(g48
I01
tp1140
a(g448
I00
tp1141
atp1142
Rp1143
s(g45
I00
tp1144
g71
((lp1145
tp1146
Rp1147
s(g42
I01
tp1148
g71
((lp1149
(g413
I00
tp1150
a(g51
I00
tp1151
a(g446
I00
tp1152
a(g448
I00
tp1153
a(g338
I00
tp1154
a(g44
I00
tp1155
a(g73
I00
tp1156
a(g36
I00
tp1157
a(g316
I00
tp1158
a(g56
I00
tp1159
a(g453
I00
tp1160
a(g43
I00
tp1161
a(g32
I00
tp1162
a(g97
I00
tp1163
a(g34
I00
tp1164
a(g88
I00
tp1165
a(g412
I00
tp1166
a(g79
I00
tp1167
a(g39
I00
tp1168
atp1169
Rp1170
s(g59
I00
tp1171
g71
((lp1172
(g334
I00
tp1173
a(g306
I00
tp1174
a(g176
I00
tp1175
a(g39
I00
tp1176
atp1177
Rp1178
s(g56
I00
tp1179
g71
((lp1180
(g51
I00
tp1181
a(g97
I00
tp1182
a(g36
I00
tp1183
a(S'integer'
p1184
I00
tp1185
a(g448
I00
tp1186
a(g88
I00
tp1187
atp1188
Rp1189
ssS'prereq'
p1190
g419
(g71
tp1191
Rp1192
g338
g71
((lp1193
g32
ag796
ag191
ag48
ag344
ag36
ag50
ag59
ag39
ag41
ag412
ag42
ag185
ag640
ag415
atp1194
Rp1195
sg51
g71
((lp1196
g338
ag41
ag88
ag34
ag620
ag48
ag50
ag397
ag39
ag52
ag412
ag56
ag640
ag59
ag32
ag324
ag79
ag36
ag37
ag407
ag42
ag43
ag415
ag796
ag191
ag608
ag53
ag185
atp1197
Rp1198
sg88
g71
((lp1199
g32
ag38
ag191
ag34
ag397
ag344
ag608
ag41
ag412
ag56
ag42
ag43
ag415
ag79
ag640
ag48
atp1200
Rp1201
sg453
g71
((lp1202
g32
ag796
ag191
ag34
ag344
ag36
ag50
ag39
ag49
ag41
ag412
ag42
ag415
ag640
ag88
ag48
atp1203
Rp1204
sg48
g71
((lp1205
g247
ag344
ag88
ag324
ag50
ag397
ag39
ag52
ag593
ag56
ag59
ag414
ag38
ag34
ag36
ag328
ag40
ag84
ag415
ag796
ag47
ag407
ag340
ag185
ag79
atp1206
Rp1207
sg446
g71
((lp1208
g32
ag796
ag191
ag48
ag344
ag247
ag36
ag245
ag59
ag39
ag52
ag53
ag49
ag41
ag412
ag42
ag57
ag415
ag640
ag37
atp1209
Rp1210
sg397
g71
((lp1211
g38
ag796
ag191
ag48
ag36
ag344
ag84
ag415
ag88
ag34
atp1212
Rp1213
sg39
g71
((lp1214
g32
ag796
ag191
ag48
ag245
ag338
ag36
ag50
ag328
ag344
ag52
ag340
ag49
ag41
ag412
ag42
ag185
ag415
ag640
ag59
atp1215
Rp1216
sg201
g71
((lp1217
g796
ag191
ag48
ag36
ag50
ag328
ag39
ag340
ag415
ag49
ag344
ag185
ag59
atp1218
Rp1219
sg55
g71
((lp1220
g414
ag796
ag34
ag247
ag36
ag50
ag38
ag39
ag340
ag48
ag40
ag344
ag324
ag56
ag42
ag84
ag415
ag640
ag88
ag79
atp1221
Rp1222
sg56
g71
((lp1223
g32
ag796
ag191
ag34
ag36
ag38
ag344
ag608
ag41
ag412
ag79
ag42
ag84
ag415
ag640
ag88
ag48
atp1224
Rp1225
sg426
g71
((lp1226
g414
ag796
ag34
ag247
ag36
ag50
ag38
ag39
ag340
ag40
ag344
ag593
ag56
ag42
ag84
ag415
ag324
ag88
ag79
atp1227
Rp1228
sg59
g71
((lp1229
g796
ag191
ag48
ag247
ag36
ag50
ag39
ag52
ag344
ag415
ag185
atp1230
Rp1231
sg424
g71
((lp1232
g324
ag38
ag191
ag34
ag344
ag247
ag36
ag50
ag39
ag340
ag796
ag41
ag412
ag56
ag42
ag84
ag415
ag640
ag88
ag48
atp1233
Rp1234
sg33
g71
((lp1235
tp1236
Rp1237
sg34
g71
((lp1238
g38
ag32
ag191
ag48
ag36
ag796
ag41
ag344
ag412
ag56
ag42
ag84
ag415
ag640
ag88
atp1239
Rp1240
sg35
g71
((lp1241
g415
atp1242
Rp1243
sg36
g71
((lp1244
g247
ag344
ag34
ag245
ag48
ag840
ag397
ag39
ag52
ag412
ag56
ag640
ag37
ag32
ag79
ag59
ag49
ag42
ag43
ag415
ag796
ag191
ag608
ag41
ag53
ag57
atp1245
Rp1246
sg312
g71
((lp1247
g796
ag191
ag48
ag36
ag50
ag39
ag52
ag340
ag344
ag415
ag185
atp1248
Rp1249
sg97
g71
((lp1250
g32
ag191
ag34
ag397
ag344
ag608
ag41
ag412
ag56
ag42
ag43
ag415
ag79
ag88
ag640
ag48
atp1251
Rp1252
sg40
g71
((lp1253
g38
ag796
ag79
ag36
ag344
ag412
ag56
ag42
ag84
ag640
ag88
ag48
atp1254
Rp1255
sg42
g71
((lp1256
g414
ag796
ag34
ag324
ag247
ag36
ag50
ag38
ag39
ag340
ag40
ag344
ag593
ag56
ag84
ag415
ag413
ag88
ag79
atp1257
Rp1258
sg92
g71
((lp1259
g32
ag796
ag191
ag34
ag344
ag36
ag38
ag397
ag608
ag41
ag412
ag56
ag42
ag415
ag79
ag88
ag640
ag48
atp1260
Rp1261
sg44
g71
((lp1262
g247
ag344
ag88
ag324
ag48
ag50
ag397
ag39
ag52
ag412
ag56
ag640
ag59
ag414
ag38
ag34
ag35
ag36
ag328
ag407
ag42
ag84
ag796
ag47
ag340
ag185
atp1263
Rp1264
sg448
g71
((lp1265
g247
ag344
ag34
ag245
ag48
ag840
ag397
ag39
ag52
ag412
ag56
ag640
ag37
ag32
ag79
ag36
ag59
ag49
ag42
ag43
ag415
ag191
ag608
ag41
ag53
ag57
atp1266
Rp1267
sg47
g71
((lp1268
g247
ag344
ag88
ag324
ag48
ag50
ag397
ag39
ag52
ag56
ag59
ag414
ag38
ag34
ag36
ag328
ag407
ag84
ag415
ag796
ag340
ag185
atp1269
Rp1270
sg407
g71
((lp1271
g324
ag796
ag191
ag48
ag36
ag50
ag397
ag39
ag52
ag344
ag415
ag88
ag185
ag34
atp1272
Rp1273
sg41
g71
((lp1274
g38
ag414
ag34
ag247
ag36
ag50
ag39
ag340
ag796
ag344
ag56
ag84
ag324
ag88
atp1275
Rp1276
sg316
g71
((lp1277
g32
ag796
ag191
ag48
ag36
ag50
ag37
ag39
ag52
ag344
ag412
ag42
ag41
ag640
ag415
atp1278
Rp1279
sg57
g71
((lp1280
g796
ag191
ag48
ag247
ag36
ag50
ag59
ag39
ag52
ag49
ag344
ag415
ag37
atp1281
Rp1282
sg79
g71
((lp1283
g38
ag796
ag48
ag36
ag40
ag344
ag412
ag56
ag42
ag84
ag640
ag88
atp1284
Rp1285
ssS'beta_triggers'
p1286
g419
(g71
tp1287
Rp1288
(g38
I01
tp1289
(lp1290
I8
aI9
aI10
aI13
aI14
aI16
aI17
aI18
aI21
aI22
aI23
aI24
aI25
aI26
aI27
aI30
aI31
aI33
aI36
as(g41
I00
tp1291
(lp1292
I3
aI4
aI7
aI8
aI10
aI35
aI36
as(g32
I00
tp1293
(lp1294
I3
aI4
aI7
aI8
aI10
aI35
aI36
as(g328
I01
tp1295
(lp1296
I4
aI5
aI6
aI9
aI10
aI12
aI13
aI15
aI17
aI18
aI22
aI26
aI28
aI35
aI36
as(g39
I01
tp1297
(lp1298
I0
aI34
aI35
as(g415
I00
tp1299
g71
((lp1300
tp1301
Rp1302
s(g53
I00
tp1303
(lp1304
I7
aI8
aI10
aI15
aI16
aI21
aI36
as(g40
I01
tp1305
(lp1306
I3
aI5
aI6
aI23
aI24
aI25
aI26
aI27
as(g245
I00
tp1307
(lp1308
I15
aI17
aI21
aI22
as(g88
I01
tp1309
(lp1310
I8
aI10
aI11
aI12
aI13
aI14
aI16
aI18
aI19
aI20
aI21
aI22
aI23
aI24
aI25
aI26
as(g59
I01
tp1311
(lp1312
I4
aI5
aI6
aI8
aI9
aI11
aI14
aI15
aI16
aI17
aI21
aI25
aI28
aI35
aI36
as(g79
I01
tp1313
(lp1314
I3
aI5
aI6
aI7
aI8
aI10
aI15
aI16
aI18
aI23
aI24
aI25
aI26
aI27
aI34
aI35
aI36
as(g593
I01
tp1315
(lp1316
I0
aI3
aI5
aI6
aI23
aI24
aI25
aI26
aI27
as(g56
I01
tp1317
(lp1318
I8
aI9
aI10
aI13
aI14
aI16
aI17
aI18
aI21
aI22
aI23
aI24
aI25
aI26
aI27
aI35
aI36
as(g344
I01
tp1319
(lp1320
s(g414
I01
tp1321
(lp1322
I0
aI8
aI9
aI10
aI13
aI14
aI16
aI17
aI18
aI21
aI22
aI23
aI24
aI25
aI26
aI27
aI34
aI35
aI36
as(g54
I00
tp1323
(lp1324
I30
aI32
aI33
as(g35
I00
tp1325
(lp1326
s(g50
I01
tp1327
(lp1328
I0
aI30
aI31
aI32
aI34
aI35
as(g415
I01
tp1329
(lp1330
I0
as(g57
I00
tp1331
(lp1332
I7
aI8
aI9
aI13
aI15
aI16
aI17
aI21
as(g49
I00
tp1333
(lp1334
I7
aI9
aI13
aI14
aI15
aI17
aI21
aI22
as(g324
I01
tp1335
(lp1336
I0
aI8
aI10
aI11
aI12
aI13
aI14
aI16
aI18
aI19
aI20
aI21
aI22
aI23
aI24
aI25
aI26
aI34
aI35
as(g135
I00
tp1337
(lp1338
I7
aI8
aI10
aI15
aI16
aI18
aI36
as(g213
I00
tp1339
(lp1340
I15
aI17
aI18
aI22
as(g412
I00
tp1341
(lp1342
I3
aI4
aI7
aI8
aI10
aI35
aI36
as(g48
I01
tp1343
g71
((lp1344
tp1345
Rp1346
s(g52
I00
tp1347
(lp1348
I7
aI9
aI10
aI14
aI15
aI17
aI18
aI22
as(g796
I01
tp1349
(lp1350
I1
aI2
as(g608
I00
tp1351
(lp1352
I0
aI7
aI8
aI10
aI15
aI16
aI18
aI34
aI35
aI36
as(g840
I00
tp1353
(lp1354
I15
aI16
aI17
aI21
as(g47
I01
tp1355
(lp1356
I4
aI5
aI6
aI8
aI9
aI10
aI13
aI14
aI35
aI36
as(g185
I01
tp1357
(lp1358
I4
aI5
aI6
aI15
aI18
aI22
aI23
aI26
aI27
aI35
as(g247
I01
tp1359
(lp1360
I0
aI8
aI9
aI11
aI14
aI16
aI17
aI19
aI22
aI24
aI26
aI27
aI28
aI29
aI34
aI35
aI36
as(g41
I01
tp1361
g71
((lp1362
tp1363
Rp1364
s(g355
I00
tp1365
(lp1366
I31
aI32
aI33
as(g407
I01
tp1367
(lp1368
I4
aI5
aI6
aI8
aI10
aI11
aI12
aI13
aI14
aI15
aI16
aI18
aI27
aI35
as(g52
I01
tp1369
(lp1370
I4
aI5
aI6
aI15
aI16
aI21
aI24
aI25
aI27
aI35
as(g620
I00
tp1371
(lp1372
I1
aI7
aI8
aI10
aI15
aI16
aI18
aI36
as(g84
I01
tp1373
(lp1374
I1
aI2
aI8
aI9
aI10
aI13
aI14
aI16
aI17
aI18
aI21
aI22
aI23
aI24
aI25
aI26
aI27
aI36
as(g48
I00
tp1375
(lp1376
s(g37
I00
tp1377
(lp1378
I7
aI8
aI13
aI15
aI16
aI21
aI36
as(g34
I01
tp1379
(lp1380
I0
aI8
aI10
aI11
aI12
aI13
aI14
aI16
aI18
aI19
aI20
aI21
aI22
aI23
aI24
aI25
aI26
as(g101
I00
tp1381
(lp1382
I3
aI5
as(g33
I01
tp1383
g71
((lp1384
tp1385
Rp1386
s(g413
I01
tp1387
(lp1388
I3
aI5
aI6
aI23
aI24
aI25
aI26
aI27
as(g338
I00
tp1389
(lp1390
I7
aI8
aI10
aI15
aI18
aI22
aI36
as(g79
I00
tp1391
g71
((lp1392
tp1393
Rp1394
s(g36
I01
tp1395
(lp1396
I1
aI2
as(g640
I00
tp1397
(lp1398
I3
aI4
aI7
aI8
aI10
aI35
aI36
as(g340
I01
tp1399
(lp1400
I0
aI9
aI10
aI12
aI13
aI17
aI18
aI20
aI21
aI23
aI25
aI27
aI28
aI29
aI34
aI35
aI36
as(g397
I00
tp1401
g71
((lp1402
tp1403
Rp1404
s(g191
I00
tp1405
(lp1406
s(g43
I00
tp1407
(lp1408
I7
aI8
aI10
aI15
aI16
aI18
aI35
aI36
as(g397
I01
tp1409
(lp1410
I4
aI5
aI6
aI8
aI10
aI11
aI12
aI13
aI14
aI15
aI16
aI18
aI27
as(g45
I00
tp1411
(lp1412
I2
as(g42
I01
tp1413
(lp1414
I7
aI8
aI10
aI35
aI36
as(g59
I00
tp1415
(lp1416
I7
aI10
aI14
aI15
aI18
aI22
aI36
as(g56
I00
tp1417
(lp1418
I7
aI8
aI10
aI15
aI16
aI18
aI34
aI35
aI36
assbsS'_generator'
p1419
(dp1420
g46
I01
sS'finite'
p1421
I01
ssbsbcsympy.core.numbers
NegativeOne
p1422
(I-1
tp1423
Rp1424
(dp1425
btp1426
Rp1427
(dp1428
bg1
(g22
(S'\\gamma'
p1429
tp1430
Rp1431
(dp1432
g27
g28
(g29
g30
(dp1433
g32
I01
sg33
Nsg34
Nsg35
Nsg36
Nsg37
Nsg38
Nsg39
Nsg40
Nsg41
I01
sg42
I00
sg43
Nsg44
I00
sg45
Nsg46
I01
sg47
I01
sg48
I01
sg49
I01
sg50
Nsg51
I00
sg52
Nsg53
Nsg54
Nsg55
I01
sg56
Nsg57
Nsg58
I01
sg59
Nstp1434
Rp1435
(dp1436
g63
g67
sg1419
(dp1437
g46
I01
sg1421
I01
ssbsbg1424
tp1438
Rp1439
(dp1440
bg1
(csympy.core.add
Add
p1441
(g0
(g2
(I16
tp1442
Rp1443
(dp1444
bg1
(g22
(S'\\gamma'
p1445
tp1446
Rp1447
(dp1448
g27
g28
(g29
g30
(dp1449
S'real'
p1450
I01
sS'polar'
p1451
NsS'irrational'
p1452
NsS'antihermitian'
p1453
NsS'composite'
p1454
NsS'extended_nonnegative'
p1455
NsS'even'
p1456
NsS'algebraic'
p1457
NsS'hermitian'
p1458
I01
sS'infinite'
p1459
I00
sS'integer'
p1460
NsS'imaginary'
p1461
I00
sS'odd'
p1462
NsS'nonzero'
p1463
I01
sS'extended_real'
p1464
I01
sS'commutative'
p1465
I01
sS'zero'
p1466
I00
sS'extended_nonzero'
p1467
I01
sS'positive'
p1468
NsS'negative'
p1469
NsS'extended_negative'
p1470
NsS'nonnegative'
p1471
NsS'prime'
p1472
NsS'complex'
p1473
I01
sS'rational'
p1474
NsS'extended_positive'
p1475
NsS'finite'
p1476
I01
sS'extended_nonpositive'
p1477
Nstp1478
Rp1479
(dp1480
g63
g28
(g64
g65
Ntp1481
Rp1482
(dp1483
g69
(lp1484
(g71
((lp1485
(S'algebraic'
p1486
I00
tp1487
a(S'complex'
p1488
I01
tp1489
atp1490
Rp1491
(S'transcendental'
p1492
I01
tp1493
tp1494
a(g71
((lp1495
(g1456
I00
tp1496
a(S'integer'
p1497
I01
tp1498
atp1499
Rp1500
(S'odd'
p1501
I01
tp1502
tp1503
a(g71
((lp1504
(S'integer'
p1505
I01
tp1506
a(g1462
I00
tp1507
atp1508
Rp1509
(S'even'
p1510
I01
tp1511
tp1512
a(g71
((lp1513
(S'infinite'
p1514
I00
tp1515
a(S'real'
p1516
I00
tp1517
atp1518
Rp1519
(S'extended_real'
p1520
I00
tp1521
tp1522
a(g71
((lp1523
(g1520
I01
tp1524
a(g1516
I00
tp1525
atp1526
Rp1527
(g1514
I01
tp1528
tp1529
a(g71
((lp1530
(g1520
I01
tp1531
a(g1514
I00
tp1532
atp1533
Rp1534
(g1516
I01
tp1535
tp1536
a(g71
((lp1537
(S'extended_real'
p1538
I01
tp1539
a(S'finite'
p1540
I01
tp1541
atp1542
Rp1543
(S'real'
p1544
I01
tp1545
tp1546
a(g71
((lp1547
(S'zero'
p1548
I00
tp1549
a(S'extended_negative'
p1550
I00
tp1551
a(g1475
I00
tp1552
atp1553
Rp1554
(S'extended_real'
p1555
I00
tp1556
tp1557
a(g71
((lp1558
(g1548
I00
tp1559
a(g1555
I01
tp1560
a(g1475
I00
tp1561
atp1562
Rp1563
(g1550
I01
tp1564
tp1565
a(g71
((lp1566
(g1475
I00
tp1567
a(g1555
I01
tp1568
a(g1550
I00
tp1569
atp1570
Rp1571
(g1548
I01
tp1572
tp1573
a(g71
((lp1574
(g1548
I00
tp1575
a(g1555
I01
tp1576
a(g1550
I00
tp1577
atp1578
Rp1579
(g1475
I01
tp1580
tp1581
a(g71
((lp1582
(S'extended_nonzero'
p1583
I01
tp1584
a(S'extended_nonpositive'
p1585
I01
tp1586
atp1587
Rp1588
(S'extended_negative'
p1589
I01
tp1590
tp1591
a(g71
((lp1592
(S'extended_nonzero'
p1593
I01
tp1594
a(g1455
I01
tp1595
atp1596
Rp1597
(S'extended_positive'
p1598
I01
tp1599
tp1600
a(g71
((lp1601
(S'extended_positive'
p1602
I00
tp1603
a(S'extended_real'
p1604
I01
tp1605
atp1606
Rp1607
(S'extended_nonpositive'
p1608
I01
tp1609
tp1610
a(g71
((lp1611
(S'extended_real'
p1612
I01
tp1613
a(S'extended_negative'
p1614
I00
tp1615
atp1616
Rp1617
(S'extended_nonnegative'
p1618
I01
tp1619
tp1620
a(g71
((lp1621
(S'zero'
p1622
I00
tp1623
a(S'positive'
p1624
I00
tp1625
a(S'negative'
p1626
I00
tp1627
atp1628
Rp1629
(S'real'
p1630
I00
tp1631
tp1632
a(g71
((lp1633
(g1630
I01
tp1634
a(g1622
I00
tp1635
a(g1624
I00
tp1636
atp1637
Rp1638
(g1626
I01
tp1639
tp1640
a(g71
((lp1641
(g1630
I01
tp1642
a(g1624
I00
tp1643
a(g1626
I00
tp1644
atp1645
Rp1646
(g1622
I01
tp1647
tp1648
a(g71
((lp1649
(g1630
I01
tp1650
a(g1622
I00
tp1651
a(g1626
I00
tp1652
atp1653
Rp1654
(g1624
I01
tp1655
tp1656
a(g71
((lp1657
(S'nonzero'
p1658
I01
tp1659
a(S'nonpositive'
p1660
I01
tp1661
atp1662
Rp1663
(g1469
I01
tp1664
tp1665
a(g71
((lp1666
(S'nonzero'
p1667
I01
tp1668
a(g1471
I01
tp1669
atp1670
Rp1671
(S'positive'
p1672
I01
tp1673
tp1674
a(g71
((lp1675
(S'real'
p1676
I01
tp1677
a(S'positive'
p1678
I00
tp1679
atp1680
Rp1681
(S'nonpositive'
p1682
I01
tp1683
tp1684
a(g71
((lp1685
(S'real'
p1686
I01
tp1687
a(S'negative'
p1688
I00
tp1689
atp1690
Rp1691
(S'nonnegative'
p1692
I01
tp1693
tp1694
a(g71
((lp1695
(S'finite'
p1696
I01
tp1697
a(S'extended_positive'
p1698
I01
tp1699
atp1700
Rp1701
(g1468
I01
tp1702
tp1703
a(g71
((lp1704
(g1470
I01
tp1705
a(S'finite'
p1706
I01
tp1707
atp1708
Rp1709
(S'negative'
p1710
I01
tp1711
tp1712
a(g71
((lp1713
(S'finite'
p1714
I01
tp1715
a(g1477
I01
tp1716
atp1717
Rp1718
(S'nonpositive'
p1719
I01
tp1720
tp1721
a(g71
((lp1722
(S'finite'
p1723
I01
tp1724
a(S'extended_nonnegative'
p1725
I01
tp1726
atp1727
Rp1728
(S'nonnegative'
p1729
I01
tp1730
tp1731
a(g71
((lp1732
(g1476
I01
tp1733
a(g1467
I01
tp1734
atp1735
Rp1736
(S'nonzero'
p1737
I01
tp1738
tp1739
a(g71
((lp1740
(S'extended_nonnegative'
p1741
I01
tp1742
a(S'extended_nonpositive'
p1743
I01
tp1744
atp1745
Rp1746
(S'zero'
p1747
I01
tp1748
tp1749
a(g71
((lp1750
(S'nonpositive'
p1751
I01
tp1752
a(S'nonnegative'
p1753
I01
tp1754
atp1755
Rp1756
(S'zero'
p1757
I01
tp1758
tp1759
a(g71
((lp1760
(S'even'
p1761
I01
tp1762
a(g1472
I00
tp1763
a(S'positive'
p1764
I01
tp1765
atp1766
Rp1767
(S'composite'
p1768
I01
tp1769
tp1770
a(g71
((lp1771
(g1761
I01
tp1772
a(g1768
I00
tp1773
a(g1764
I01
tp1774
atp1775
Rp1776
(g1472
I01
tp1777
tp1778
a(g71
((lp1779
(g1768
I00
tp1780
a(g1472
I00
tp1781
a(g1764
I01
tp1782
atp1783
Rp1784
(g1761
I00
tp1785
tp1786
a(g71
((lp1787
(g1761
I01
tp1788
a(g1768
I00
tp1789
a(g1472
I00
tp1790
atp1791
Rp1792
(g1764
I00
tp1793
tp1794
a(g71
((lp1795
(S'real'
p1796
I01
tp1797
a(g1474
I00
tp1798
atp1799
Rp1800
(g1452
I01
tp1801
tp1802
a(g71
((lp1803
(S'integer'
p1804
I00
tp1805
a(S'extended_real'
p1806
I01
tp1807
atp1808
Rp1809
(S'noninteger'
p1810
I01
tp1811
tp1812
a(g71
((lp1813
(S'zero'
p1814
I00
tp1815
a(S'extended_real'
p1816
I01
tp1817
atp1818
Rp1819
(S'extended_nonzero'
p1820
I01
tp1821
tp1822
asg410
g71
((lp1823
g1751
ag1458
ag1462
ag1456
ag1465
ag1468
ag1810
ag1469
ag1470
aS'complex'
p1824
ag1474
aS'finite'
p1825
ag1455
aS'real'
p1826
ag1737
ag1452
ag1453
ag1454
ag1477
ag1467
ag1514
ag1460
aS'imaginary'
p1827
ag1472
ag1464
ag1457
ag1757
ag1471
ag1475
ag1492
atp1828
Rp1829
sg418
g419
(g71
tp1830
Rp1831
(g1456
I01
tp1832
g71
((lp1833
(S'real'
p1834
I01
tp1835
a(g1459
I00
tp1836
a(g1461
I00
tp1837
a(g1464
I01
tp1838
a(g1457
I01
tp1839
a(g1810
I00
tp1840
a(S'finite'
p1841
I01
tp1842
a(g1505
I01
tp1843
a(g1452
I00
tp1844
a(g1501
I00
tp1845
a(g1465
I01
tp1846
a(g1474
I01
tp1847
a(g1473
I01
tp1848
a(g1492
I00
tp1849
a(g1458
I01
tp1850
atp1851
Rp1852
s(g1458
I00
tp1853
g71
((lp1854
(g1466
I00
tp1855
a(S'positive'
p1856
I00
tp1857
a(S'prime'
p1858
I00
tp1859
a(g1751
I00
tp1860
a(g1454
I00
tp1861
a(g1729
I00
tp1862
a(S'nonzero'
p1863
I00
tp1864
a(g1460
I00
tp1865
a(g1834
I00
tp1866
a(g1510
I00
tp1867
a(g1452
I00
tp1868
a(g1501
I00
tp1869
a(g1474
I00
tp1870
a(g1469
I00
tp1871
atp1872
Rp1873
s(g1450
I00
tp1874
g71
((lp1875
(g1622
I00
tp1876
a(g1624
I00
tp1877
a(g1863
I00
tp1878
a(g1682
I00
tp1879
a(g1454
I00
tp1880
a(g1692
I00
tp1881
a(g1460
I00
tp1882
a(g1858
I00
tp1883
a(g1510
I00
tp1884
a(g1452
I00
tp1885
a(g1501
I00
tp1886
a(S'rational'
p1887
I00
tp1888
a(g1626
I00
tp1889
atp1890
Rp1891
s(g1741
I01
tp1892
g71
((lp1893
(g1461
I00
tp1894
a(g1612
I01
tp1895
a(g1614
I00
tp1896
a(g1469
I00
tp1897
a(g1465
I01
tp1898
atp1899
Rp1900
s(g1469
I01
tp1901
g71
((lp1902
(g1630
I01
tp1903
a(g1658
I01
tp1904
a(g1856
I00
tp1905
a(g1858
I00
tp1906
a(g1459
I00
tp1907
a(g1660
I01
tp1908
a(g1464
I01
tp1909
a(g1475
I00
tp1910
a(g1454
I00
tp1911
a(g1692
I00
tp1912
a(g1820
I01
tp1913
a(g1461
I00
tp1914
a(g1470
I01
tp1915
a(g1706
I01
tp1916
a(g1466
I00
tp1917
a(g1477
I01
tp1918
a(g1465
I01
tp1919
a(g1725
I00
tp1920
a(g1473
I01
tp1921
a(g1458
I01
tp1922
atp1923
Rp1924
s(g1827
I00
tp1925
g71
((lp1926
tp1927
Rp1928
s(g1471
I00
tp1929
g71
((lp1930
(g1858
I00
tp1931
a(g1672
I00
tp1932
a(g1454
I00
tp1933
a(g1757
I00
tp1934
atp1935
Rp1936
s(g1457
I01
tp1937
g71
((lp1938
(g1465
I01
tp1939
a(g1459
I00
tp1940
a(g1473
I01
tp1941
a(g1492
I00
tp1942
a(g1841
I01
tp1943
atp1944
Rp1945
s(g1658
I00
tp1946
g71
((lp1947
(g1672
I00
tp1948
a(g1858
I00
tp1949
a(g1469
I00
tp1950
a(g1454
I00
tp1951
atp1952
Rp1953
s(g1501
I01
tp1954
g71
((lp1955
(g1834
I01
tp1956
a(g1466
I00
tp1957
a(g1459
I00
tp1958
a(g1461
I00
tp1959
a(g1464
I01
tp1960
a(g1456
I00
tp1961
a(g1457
I01
tp1962
a(g1737
I01
tp1963
a(g1820
I01
tp1964
a(g1810
I00
tp1965
a(g1841
I01
tp1966
a(g1497
I01
tp1967
a(g1452
I00
tp1968
a(g1465
I01
tp1969
a(g1474
I01
tp1970
a(g1473
I01
tp1971
a(g1492
I00
tp1972
a(g1458
I01
tp1973
atp1974
Rp1975
s(g1477
I01
tp1976
g71
((lp1977
(g1856
I00
tp1978
a(g1454
I00
tp1979
a(g1602
I00
tp1980
a(g1604
I01
tp1981
a(g1858
I00
tp1982
a(g1461
I00
tp1983
a(g1465
I01
tp1984
atp1985
Rp1986
s(g1474
I01
tp1987
g71
((lp1988
(S'real'
p1989
I01
tp1990
a(g1459
I00
tp1991
a(g1461
I00
tp1992
a(g1464
I01
tp1993
a(S'algebraic'
p1994
I01
tp1995
a(g1841
I01
tp1996
a(g1452
I00
tp1997
a(g1465
I01
tp1998
a(g1473
I01
tp1999
a(g1492
I00
tp2000
a(g1458
I01
tp2001
atp2002
Rp2003
s(S'complex'
p2004
I01
tp2005
g71
((lp2006
(g1465
I01
tp2007
a(g1459
I00
tp2008
a(g1841
I01
tp2009
atp2010
Rp2011
s(g1492
I01
tp2012
g71
((lp2013
(g1466
I00
tp2014
a(g1459
I00
tp2015
a(g1486
I00
tp2016
a(g1454
I00
tp2017
a(g1510
I00
tp2018
a(g1460
I00
tp2019
a(g1858
I00
tp2020
a(g1501
I00
tp2021
a(g1465
I01
tp2022
a(g1488
I01
tp2023
a(g1474
I00
tp2024
a(g1841
I01
tp2025
atp2026
Rp2027
s(g1757
I01
tp2028
g71
((lp2029
(S'even'
p2030
I01
tp2031
a(g1741
I01
tp2032
a(g1461
I00
tp2033
a(g1457
I01
tp2034
a(g1743
I01
tp2035
a(g1474
I01
tp2036
a(g1473
I01
tp2037
a(g1469
I00
tp2038
a(g1630
I01
tp2039
a(g1858
I00
tp2040
a(g1475
I00
tp2041
a(g1820
I00
tp2042
a(g1458
I01
tp2043
a(g1465
I01
tp2044
a(g1589
I00
tp2045
a(g1856
I00
tp2046
a(g1454
I00
tp2047
a(g1751
I01
tp2048
a(g1555
I01
tp2049
a(S'finite'
p2050
I01
tp2051
a(g1497
I01
tp2052
a(g1459
I00
tp2053
a(g1863
I00
tp2054
a(g1753
I01
tp2055
a(g1810
I00
tp2056
a(g1452
I00
tp2057
a(g1501
I00
tp2058
a(g1492
I00
tp2059
atp2060
Rp2061
s(g1826
I01
tp2062
g71
((lp2063
(S'complex'
p2064
I01
tp2065
a(g1461
I00
tp2066
a(g1538
I01
tp2067
a(g1540
I01
tp2068
a(g1465
I01
tp2069
a(g1459
I00
tp2070
a(g1458
I01
tp2071
atp2072
Rp2073
s(g1472
I00
tp2074
g71
((lp2075
tp2076
Rp2077
s(g1453
I00
tp2078
g71
((lp2079
(g1827
I00
tp2080
atp2081
Rp2082
s(g1468
I01
tp2083
g71
((lp2084
(g1630
I01
tp2085
a(g1466
I00
tp2086
a(g1459
I00
tp2087
a(g1682
I00
tp2088
a(g1698
I01
tp2089
a(g1461
I00
tp2090
a(g1464
I01
tp2091
a(g1820
I01
tp2092
a(g1667
I01
tp2093
a(g1471
I01
tp2094
a(g1696
I01
tp2095
a(g1469
I00
tp2096
a(g1741
I01
tp2097
a(g1465
I01
tp2098
a(g1477
I00
tp2099
a(g1473
I01
tp2100
a(g1458
I01
tp2101
a(g1589
I00
tp2102
atp2103
Rp2104
s(g1827
I01
tp2105
g71
((lp2106
(g1466
I00
tp2107
a(g1450
I00
tp2108
a(g1729
I00
tp2109
a(g1863
I00
tp2110
a(g1824
I01
tp2111
a(g1469
I00
tp2112
a(g1858
I00
tp2113
a(g1475
I00
tp2114
a(g1453
I01
tp2115
a(g1589
I00
tp2116
a(g1465
I01
tp2117
a(g1856
I00
tp2118
a(g1454
I00
tp2119
a(g1841
I01
tp2120
a(g1477
I00
tp2121
a(g1459
I00
tp2122
a(g1510
I00
tp2123
a(g1751
I00
tp2124
a(g1464
I00
tp2125
a(g1474
I00
tp2126
a(g1810
I00
tp2127
a(g1460
I00
tp2128
a(g1452
I00
tp2129
a(g1501
I00
tp2130
a(g1725
I00
tp2131
a(g1467
I00
tp2132
atp2133
Rp2134
s(g1475
I00
tp2135
g71
((lp2136
(g1858
I00
tp2137
a(g1468
I00
tp2138
a(g1454
I00
tp2139
atp2140
Rp2141
s(g1467
I00
tp2142
g71
((lp2143
(g1856
I00
tp2144
a(g1737
I00
tp2145
a(g1598
I00
tp2146
a(g1454
I00
tp2147
a(g1858
I00
tp2148
a(g1589
I00
tp2149
a(g1469
I00
tp2150
atp2151
Rp2152
s(g1458
I01
tp2153
g71
((lp2154
tp2155
Rp2156
s(g1737
I01
tp2157
g71
((lp2158
(g1450
I01
tp2159
a(g1466
I00
tp2160
a(g1459
I00
tp2161
a(g1461
I00
tp2162
a(g1464
I01
tp2163
a(g1467
I01
tp2164
a(g1476
I01
tp2165
a(g1465
I01
tp2166
a(g1473
I01
tp2167
a(g1458
I01
tp2168
atp2169
Rp2170
s(g1548
I00
tp2171
g71
((lp2172
tp2173
Rp2174
s(g1626
I00
tp2175
g71
((lp2176
tp2177
Rp2178
s(g1824
I00
tp2179
g71
((lp2180
(g1466
I00
tp2181
a(g1856
I00
tp2182
a(g1858
I00
tp2183
a(g1751
I00
tp2184
a(S'imaginary'
p2185
I00
tp2186
a(g1457
I00
tp2187
a(g1454
I00
tp2188
a(g1729
I00
tp2189
a(g1474
I00
tp2190
a(g1863
I00
tp2191
a(g1460
I00
tp2192
a(g1826
I00
tp2193
a(g1510
I00
tp2194
a(g1452
I00
tp2195
a(g1501
I00
tp2196
a(g1492
I00
tp2197
a(g1469
I00
tp2198
atp2199
Rp2200
s(g1465
I01
tp2201
g71
((lp2202
tp2203
Rp2204
s(g1470
I00
tp2205
g71
((lp2206
(g1710
I00
tp2207
atp2208
Rp2209
s(S'prime'
p2210
I01
tp2211
g71
((lp2212
(g1737
I01
tp2213
a(g1466
I00
tp2214
a(g1461
I00
tp2215
a(g1820
I01
tp2216
a(g1741
I01
tp2217
a(g1474
I01
tp2218
a(g1473
I01
tp2219
a(g1469
I00
tp2220
a(g1834
I01
tp2221
a(g1856
I01
tp2222
a(g1589
I00
tp2223
a(g1465
I01
tp2224
a(g1464
I01
tp2225
a(g1598
I01
tp2226
a(g1458
I01
tp2227
a(g1454
I00
tp2228
a(g1457
I01
tp2229
a(S'integer'
p2230
I01
tp2231
a(g1459
I00
tp2232
a(g1841
I01
tp2233
a(g1751
I00
tp2234
a(g1753
I01
tp2235
a(g1810
I00
tp2236
a(g1452
I00
tp2237
a(g1477
I00
tp2238
a(g1492
I00
tp2239
atp2240
Rp2241
s(g1994
I00
tp2242
g71
((lp2243
(g1466
I00
tp2244
a(g1858
I00
tp2245
a(g1454
I00
tp2246
a(g1460
I00
tp2247
a(g1510
I00
tp2248
a(g1501
I00
tp2249
a(S'rational'
p2250
I00
tp2251
atp2252
Rp2253
s(S'positive'
p2254
I00
tp2255
g71
((lp2256
(g1454
I00
tp2257
a(g1858
I00
tp2258
atp2259
Rp2260
s(g1464
I01
tp2261
g71
((lp2262
(g1461
I00
tp2263
a(S'commutative'
p2264
I01
tp2265
atp2266
Rp2267
s(g1598
I01
tp2268
g71
((lp2269
(g1466
I00
tp2270
a(g1751
I00
tp2271
a(g1461
I00
tp2272
a(g1555
I01
tp2273
a(g1593
I01
tp2274
a(g1589
I00
tp2275
a(g1455
I01
tp2276
a(g1465
I01
tp2277
a(g1608
I00
tp2278
a(g1469
I00
tp2279
atp2280
Rp2281
s(g1660
I01
tp2282
g71
((lp2283
(g1676
I01
tp2284
a(g1678
I00
tp2285
a(g1459
I00
tp2286
a(g1464
I01
tp2287
a(g1475
I00
tp2288
a(g1454
I00
tp2289
a(g1858
I00
tp2290
a(g1477
I01
tp2291
a(g1461
I00
tp2292
a(g1465
I01
tp2293
a(g1473
I01
tp2294
a(g1458
I01
tp2295
a(g1714
I01
tp2296
atp2297
Rp2298
s(g2050
I00
tp2299
g71
((lp2300
(g1466
I00
tp2301
a(g1468
I00
tp2302
a(g1858
I00
tp2303
a(g1719
I00
tp2304
a(g1461
I00
tp2305
a(g1486
I00
tp2306
a(g1454
I00
tp2307
a(g1729
I00
tp2308
a(g1492
I00
tp2309
a(g1544
I00
tp2310
a(g1460
I00
tp2311
a(g1737
I00
tp2312
a(g1510
I00
tp2313
a(g1452
I00
tp2314
a(g1501
I00
tp2315
a(g2004
I00
tp2316
a(g1474
I00
tp2317
a(g1710
I00
tp2318
atp2319
Rp2320
s(g1768
I00
tp2321
g71
((lp2322
tp2323
Rp2324
s(g1820
I01
tp2325
g71
((lp2326
(g1465
I01
tp2327
a(g1816
I01
tp2328
a(g1814
I00
tp2329
a(g1461
I00
tp2330
atp2331
Rp2332
s(g1470
I01
tp2333
g71
((lp2334
(g1466
I00
tp2335
a(g1856
I00
tp2336
a(g1555
I01
tp2337
a(g1465
I01
tp2338
a(g1461
I00
tp2339
a(g1454
I00
tp2340
a(g1729
I00
tp2341
a(g1583
I01
tp2342
a(g1858
I00
tp2343
a(g1585
I01
tp2344
a(g1475
I00
tp2345
a(g1618
I00
tp2346
atp2347
Rp2348
s(g2030
I00
tp2349
g71
((lp2350
(g1466
I00
tp2351
atp2352
Rp2353
s(g1497
I01
tp2354
g71
((lp2355
(g1834
I01
tp2356
a(g1459
I00
tp2357
a(g1461
I00
tp2358
a(g1464
I01
tp2359
a(g1457
I01
tp2360
a(g1810
I00
tp2361
a(g1841
I01
tp2362
a(g1452
I00
tp2363
a(g1465
I01
tp2364
a(S'rational'
p2365
I01
tp2366
a(g1473
I01
tp2367
a(g1492
I00
tp2368
a(g1458
I01
tp2369
atp2370
Rp2371
s(g1465
I00
tp2372
g71
((lp2373
(g1466
I00
tp2374
a(g1450
I00
tp2375
a(g1461
I00
tp2376
a(g1729
I00
tp2377
a(g1469
I00
tp2378
a(g1858
I00
tp2379
a(g1475
I00
tp2380
a(g1486
I00
tp2381
a(g1467
I00
tp2382
a(g1589
I00
tp2383
a(S'complex'
p2384
I00
tp2385
a(g1856
I00
tp2386
a(g1454
I00
tp2387
a(g1863
I00
tp2388
a(g1725
I00
tp2389
a(g1510
I00
tp2390
a(g1751
I00
tp2391
a(S'extended_real'
p2392
I00
tp2393
a(g1474
I00
tp2394
a(g1810
I00
tp2395
a(g1460
I00
tp2396
a(g1452
I00
tp2397
a(g1501
I00
tp2398
a(g1477
I00
tp2399
a(g1492
I00
tp2400
atp2401
Rp2402
s(g1455
I00
tp2403
g71
((lp2404
(g1747
I00
tp2405
a(g1856
I00
tp2406
a(g1858
I00
tp2407
a(g1598
I00
tp2408
a(g1454
I00
tp2409
a(g1729
I00
tp2410
atp2411
Rp2412
s(g1452
I01
tp2413
g71
((lp2414
(g1796
I01
tp2415
a(g1466
I00
tp2416
a(g1464
I01
tp2417
a(g1858
I00
tp2418
a(g1459
I00
tp2419
a(g1461
I00
tp2420
a(g1454
I00
tp2421
a(g1510
I00
tp2422
a(g1820
I01
tp2423
a(g1737
I01
tp2424
a(g1460
I00
tp2425
a(g1810
I01
tp2426
a(g1501
I00
tp2427
a(g1465
I01
tp2428
a(g1473
I01
tp2429
a(g1474
I00
tp2430
a(g1458
I01
tp2431
a(g1841
I01
tp2432
atp2433
Rp2434
s(g1514
I00
tp2435
g71
((lp2436
tp2437
Rp2438
s(g1451
I01
tp2439
g71
((lp2440
tp2441
Rp2442
s(g1825
I01
tp2443
g71
((lp2444
(g1459
I00
tp2445
atp2446
Rp2447
s(g1751
I00
tp2448
g71
((lp2449
(g1757
I00
tp2450
a(g1469
I00
tp2451
atp2452
Rp2453
s(g1492
I00
tp2454
g71
((lp2455
tp2456
Rp2457
s(g1454
I01
tp2458
g71
((lp2459
(g1737
I01
tp2460
a(g1466
I00
tp2461
a(g1461
I00
tp2462
a(g1457
I01
tp2463
a(g1741
I01
tp2464
a(g1474
I01
tp2465
a(g1473
I01
tp2466
a(g1469
I00
tp2467
a(g1834
I01
tp2468
a(g2210
I00
tp2469
a(g2254
I01
tp2470
a(g1589
I00
tp2471
a(g1465
I01
tp2472
a(g1598
I01
tp2473
a(g1458
I01
tp2474
a(g1464
I01
tp2475
a(g1820
I01
tp2476
a(g1460
I01
tp2477
a(g1459
I00
tp2478
a(g1841
I01
tp2479
a(g1751
I00
tp2480
a(g1753
I01
tp2481
a(g1810
I00
tp2482
a(g1452
I00
tp2483
a(g1477
I00
tp2484
a(g1492
I00
tp2485
atp2486
Rp2487
s(g1753
I01
tp2488
g71
((lp2489
(g1686
I01
tp2490
a(g1459
I00
tp2491
a(g1461
I00
tp2492
a(g1464
I01
tp2493
a(g1688
I00
tp2494
a(g1723
I01
tp2495
a(g1589
I00
tp2496
a(g1725
I01
tp2497
a(g1465
I01
tp2498
a(g1473
I01
tp2499
a(g1458
I01
tp2500
atp2501
Rp2502
s(g1810
I00
tp2503
g71
((lp2504
tp2505
Rp2506
s(g1604
I00
tp2507
g71
((lp2508
(g1548
I00
tp2509
a(g1856
I00
tp2510
a(g1858
I00
tp2511
a(g1751
I00
tp2512
a(g1544
I00
tp2513
a(g1475
I00
tp2514
a(g1820
I00
tp2515
a(g1454
I00
tp2516
a(g1729
I00
tp2517
a(g1810
I00
tp2518
a(g1460
I00
tp2519
a(g1863
I00
tp2520
a(g1510
I00
tp2521
a(g1550
I00
tp2522
a(g1452
I00
tp2523
a(g1501
I00
tp2524
a(g1618
I00
tp2525
a(g1474
I00
tp2526
a(g1469
I00
tp2527
a(g1608
I00
tp2528
atp2529
Rp2530
s(g1460
I00
tp2531
g71
((lp2532
(g1466
I00
tp2533
a(g1454
I00
tp2534
a(g1858
I00
tp2535
a(g1510
I00
tp2536
a(g1501
I00
tp2537
atp2538
Rp2539
s(g1810
I01
tp2540
g71
((lp2541
(g1466
I00
tp2542
a(g1806
I01
tp2543
a(g1461
I00
tp2544
a(g1454
I00
tp2545
a(g1510
I00
tp2546
a(g1820
I01
tp2547
a(g1804
I00
tp2548
a(g1858
I00
tp2549
a(g1501
I00
tp2550
a(g1465
I01
tp2551
atp2552
Rp2553
s(g1462
I00
tp2554
g71
((lp2555
tp2556
Rp2557
s(g1459
I01
tp2558
g71
((lp2559
(g1825
I00
tp2560
a(g1466
I00
tp2561
a(g1856
I00
tp2562
a(g1858
I00
tp2563
a(g1751
I00
tp2564
a(g1461
I00
tp2565
a(g1486
I00
tp2566
a(g1454
I00
tp2567
a(g1729
I00
tp2568
a(g1474
I00
tp2569
a(g1863
I00
tp2570
a(g1460
I00
tp2571
a(g1450
I00
tp2572
a(g1510
I00
tp2573
a(g1452
I00
tp2574
a(g1501
I00
tp2575
a(g1824
I00
tp2576
a(g1492
I00
tp2577
a(g1469
I00
tp2578
atp2579
Rp2580
s(g1477
I00
tp2581
g71
((lp2582
(g1747
I00
tp2583
a(g1719
I00
tp2584
a(g1589
I00
tp2585
a(g1469
I00
tp2586
atp2587
Rp2588
s(g1474
I00
tp2589
g71
((lp2590
(g1466
I00
tp2591
a(g1510
I00
tp2592
a(g1454
I00
tp2593
a(S'integer'
p2594
I00
tp2595
a(g1858
I00
tp2596
a(g1501
I00
tp2597
atp2598
Rp2599
ssg1190
g419
(g71
tp2600
Rp2601
g1751
g71
((lp2602
g1450
ag2210
ag1604
ag1465
ag1454
ag1468
ag1477
ag1469
ag1757
ag1824
ag1459
ag1598
ag1458
ag2050
ag1827
atp2603
Rp2604
sg1466
g71
((lp2605
g1450
ag2030
ag1492
ag1751
ag1454
ag1477
ag1994
ag1458
ag1459
ag1460
ag1827
ag1501
ag1452
ag1737
ag1604
ag1465
ag1820
ag1468
ag1810
ag1469
ag1470
ag1471
ag2210
ag1824
ag1474
ag1598
ag2050
ag1455
atp2606
Rp2607
sg1501
g71
((lp2608
g1450
ag1492
ag1994
ag1757
ag1459
ag1460
ag1827
ag1452
ag1456
ag1604
ag1465
ag1810
ag1458
ag1824
ag1474
ag2050
atp2609
Rp2610
sg1452
g71
((lp2611
g1456
ag1450
ag1604
ag1465
ag1454
ag2210
ag1458
ag1757
ag1824
ag1474
ag1459
ag1497
ag1827
ag2050
ag1501
atp2612
Rp2613
sg1863
g71
((lp2614
g1450
ag1452
ag1454
ag1467
ag1757
ag1459
ag1458
ag1501
ag1827
ag2210
ag1604
ag1465
ag1468
ag1469
ag1824
ag2050
atp2615
Rp2616
sg1451
g71
((lp2617
tp2618
Rp2619
sg1465
g71
((lp2620
g1826
ag1737
ag1452
ag1660
ag1454
ag1477
ag1820
ag1757
ag1497
ag1827
ag1753
ag1501
ag1456
ag1464
ag1457
ag1468
ag1810
ag1469
ag1470
ag1474
ag2210
ag2004
ag1492
ag1598
ag1741
atp2621
Rp2622
sg1856
g71
((lp2623
g1450
ag2210
ag1660
ag1454
ag1477
ag1467
ag1757
ag1459
ag1458
ag1827
ag1658
ag1604
ag1465
ag1469
ag1470
ag1471
ag1824
ag1475
ag2050
ag1455
atp2624
Rp2625
sg1810
g71
((lp2626
g1456
ag2210
ag1604
ag1465
ag1454
ag1757
ag1497
ag1827
ag1501
ag1452
atp2627
Rp2628
sg1469
g71
((lp2629
g1450
ag2210
ag1751
ag1454
ag1741
ag1467
ag1757
ag1459
ag1827
ag1658
ag1604
ag1465
ag1468
ag1458
ag1470
ag1753
ag1824
ag1598
ag2050
ag1477
atp2630
Rp2631
sg1614
g71
((lp2632
g2210
ag1604
ag1465
ag1454
ag1468
ag1741
ag1469
ag1753
ag1467
ag1757
ag1598
ag1827
ag1477
atp2633
Rp2634
sg1473
g71
((lp2635
g1826
ag2210
ag1452
ag1660
ag1454
ag1457
ag1757
ag1737
ag1459
ag1497
ag1827
ag1501
ag1465
ag1456
ag1492
ag1468
ag1469
ag1753
ag1474
ag2050
atp2636
Rp2637
sg1474
g71
((lp2638
g1450
ag2210
ag1452
ag1454
ag1994
ag1757
ag1459
ag1497
ag1827
ag1501
ag1456
ag1604
ag1465
ag1458
ag1824
ag1492
ag2050
atp2639
Rp2640
sg1841
g71
((lp2641
g1826
ag2210
ag1474
ag1660
ag1454
ag1457
ag1757
ag1459
ag1497
ag1827
ag1501
ag1452
ag1456
ag1468
ag1469
ag1753
ag2004
ag1492
ag1737
atp2642
Rp2643
sg1477
g71
((lp2644
g2210
ag1604
ag1465
ag1660
ag1454
ag1468
ag1469
ag1470
ag1757
ag1827
ag1598
atp2645
Rp2646
sg1834
g71
((lp2647
g1737
ag1452
ag1660
ag1454
ag1757
ag1459
ag1497
ag1458
ag1501
ag1827
ag1456
ag1604
ag1465
ag1468
ag1469
ag1753
ag2210
ag1824
ag1474
ag2050
atp2648
Rp2649
sg1510
g71
((lp2650
g1450
ag1492
ag1994
ag1757
ag1459
ag1460
ag1827
ag1501
ag1452
ag1604
ag1465
ag1810
ag1458
ag1824
ag1474
ag2050
atp2651
Rp2652
sg1492
g71
((lp2653
g1456
ag2210
ag1465
ag1454
ag1457
ag1757
ag1824
ag1474
ag1459
ag1497
ag2050
ag1501
atp2654
Rp2655
sg1453
g71
((lp2656
g1827
atp2657
Rp2658
sg1454
g71
((lp2659
g1450
ag2210
ag1458
ag1492
ag1660
ag1455
ag1994
ag1757
ag1459
ag1460
ag1827
ag1452
ag1658
ag1604
ag1465
ag1467
ag2254
ag1810
ag1469
ag1470
ag1471
ag1824
ag1474
ag1475
ag2050
ag1477
atp2660
Rp2661
sg1725
g71
((lp2662
g2210
ag1604
ag1465
ag1454
ag1468
ag1469
ag1470
ag1753
ag1757
ag1827
ag1598
atp2663
Rp2664
sg1457
g71
((lp2665
g1456
ag2210
ag1492
ag1454
ag1757
ag1824
ag1474
ag1459
ag1497
ag2050
ag1501
ag1465
atp2666
Rp2667
sg1459
g71
((lp2668
g1826
ag2210
ag1474
ag1660
ag1454
ag1457
ag1757
ag1737
ag1497
ag1827
ag1501
ag1452
ag1456
ag1468
ag1469
ag1753
ag2004
ag1492
ag1825
atp2669
Rp2670
sg1505
g71
((lp2671
g1450
ag2210
ag1492
ag1454
ag1994
ag1757
ag1459
ag1827
ag1501
ag1452
ag1456
ag1604
ag1465
ag1810
ag1458
ag1824
ag1474
ag2050
atp2672
Rp2673
sg1461
g71
((lp2674
g1826
ag1737
ag1452
ag1453
ag1660
ag1454
ag1477
ag1820
ag1757
ag1459
ag1497
ag1501
ag1456
ag1464
ag1465
ag1468
ag1810
ag1469
ag1470
ag1753
ag2210
ag1824
ag1474
ag1598
ag2050
ag1741
atp2675
Rp2676
sg1858
g71
((lp2677
g1450
ag1458
ag1492
ag1660
ag1454
ag1455
ag1994
ag1757
ag1459
ag1460
ag1827
ag1452
ag1658
ag1604
ag1465
ag1467
ag2254
ag1810
ag1469
ag1470
ag1471
ag1824
ag1474
ag1475
ag2050
ag1477
atp2678
Rp2679
sg1464
g71
((lp2680
g1826
ag1737
ag1452
ag1660
ag1454
ag1477
ag1820
ag1757
ag1497
ag1827
ag1501
ag1456
ag1465
ag1468
ag1810
ag1469
ag1470
ag1753
ag2210
ag1474
ag1598
ag1741
atp2681
Rp2682
sg1820
g71
((lp2683
g1737
ag2210
ag1604
ag1465
ag1454
ag1468
ag1810
ag1469
ag1470
ag1757
ag1827
ag1501
ag1598
ag1452
atp2684
Rp2685
sg1458
g71
((lp2686
g1456
ag1826
ag1452
ag1660
ag1454
ag1468
ag1469
ag1753
ag2210
ag1757
ag1474
ag1497
ag1737
ag1501
atp2687
Rp2688
sg1729
g71
((lp2689
g1450
ag2210
ag1604
ag1465
ag1454
ag1468
ag1455
ag1469
ag1470
ag1757
ag1824
ag1459
ag1458
ag2050
ag1827
atp2690
Rp2691
sg1475
g71
((lp2692
g2210
ag1604
ag1465
ag1660
ag1454
ag1468
ag1477
ag1469
ag1470
ag1467
ag1757
ag1827
ag1455
atp2693
Rp2694
ssg1286
g419
(g71
tp2695
Rp2696
(g1456
I01
tp2697
(lp2698
I8
aI9
aI10
aI13
aI14
aI16
aI17
aI18
aI21
aI22
aI23
aI24
aI25
aI26
aI27
aI30
aI31
aI33
aI36
as(g1458
I00
tp2699
(lp2700
I3
aI4
aI7
aI8
aI10
aI35
aI36
as(g1450
I00
tp2701
(lp2702
I3
aI4
aI7
aI8
aI10
aI35
aI36
as(g1741
I01
tp2703
(lp2704
I4
aI5
aI6
aI9
aI10
aI12
aI13
aI15
aI17
aI18
aI22
aI26
aI28
aI35
aI36
as(g1469
I01
tp2705
(lp2706
I0
aI34
aI35
as(g1827
I00
tp2707
g71
((lp2708
tp2709
Rp2710
s(g1471
I00
tp2711
(lp2712
I7
aI8
aI10
aI15
aI16
aI21
aI36
as(g1457
I01
tp2713
(lp2714
I3
aI5
aI6
aI23
aI24
aI25
aI26
aI27
as(g1658
I00
tp2715
(lp2716
I15
aI17
aI21
aI22
as(g1501
I01
tp2717
(lp2718
I8
aI10
aI11
aI12
aI13
aI14
aI16
aI18
aI19
aI20
aI21
aI22
aI23
aI24
aI25
aI26
as(g1477
I01
tp2719
(lp2720
I4
aI5
aI6
aI8
aI9
aI11
aI14
aI15
aI16
aI17
aI21
aI25
aI28
aI35
aI36
as(g1474
I01
tp2721
(lp2722
I8
aI9
aI10
aI13
aI14
aI16
aI17
aI18
aI21
aI22
aI23
aI24
aI25
aI26
aI27
aI35
aI36
as(g2004
I01
tp2723
(lp2724
I0
aI3
aI5
aI6
aI23
aI24
aI25
aI26
aI27
as(g1492
I01
tp2725
(lp2726
I3
aI5
aI6
aI7
aI8
aI10
aI15
aI16
aI18
aI23
aI24
aI25
aI26
aI27
aI34
aI35
aI36
as(g1757
I01
tp2727
(lp2728
s(g1826
I01
tp2729
(lp2730
I0
aI8
aI9
aI10
aI13
aI14
aI16
aI17
aI18
aI21
aI22
aI23
aI24
aI25
aI26
aI27
aI34
aI35
aI36
as(g1472
I00
tp2731
(lp2732
I30
aI32
aI33
as(g1453
I00
tp2733
(lp2734
s(g1468
I01
tp2735
(lp2736
I0
aI30
aI31
aI32
aI34
aI35
as(g1827
I01
tp2737
(lp2738
I0
as(g1475
I00
tp2739
(lp2740
I7
aI8
aI9
aI13
aI15
aI16
aI17
aI21
as(g1467
I00
tp2741
(lp2742
I7
aI9
aI13
aI14
aI15
aI17
aI21
aI22
as(g1458
I01
tp2743
g71
((lp2744
tp2745
Rp2746
s(g1737
I01
tp2747
(lp2748
I0
aI8
aI10
aI11
aI12
aI13
aI14
aI16
aI18
aI19
aI20
aI21
aI22
aI23
aI24
aI25
aI26
aI34
aI35
as(g1548
I00
tp2749
(lp2750
I7
aI8
aI10
aI15
aI16
aI18
aI36
as(g1626
I00
tp2751
(lp2752
I15
aI17
aI18
aI22
as(g1824
I00
tp2753
(lp2754
I3
aI4
aI7
aI8
aI10
aI35
aI36
as(g1465
I01
tp2755
g71
((lp2756
tp2757
Rp2758
s(g1470
I00
tp2759
(lp2760
I7
aI9
aI10
aI14
aI15
aI17
aI18
aI22
as(g2210
I01
tp2761
(lp2762
I1
aI2
as(g1994
I00
tp2763
(lp2764
I0
aI7
aI8
aI10
aI15
aI16
aI18
aI34
aI35
aI36
as(g2254
I00
tp2765
(lp2766
I15
aI16
aI17
aI21
as(g1464
I01
tp2767
(lp2768
I4
aI5
aI6
aI8
aI9
aI10
aI13
aI14
aI35
aI36
as(g1598
I01
tp2769
(lp2770
I4
aI5
aI6
aI15
aI18
aI22
aI23
aI26
aI27
aI35
as(g1660
I01
tp2771
(lp2772
I0
aI8
aI9
aI11
aI14
aI16
aI17
aI19
aI22
aI24
aI26
aI27
aI28
aI29
aI34
aI35
aI36
as(g2050
I00
tp2773
(lp2774
I3
aI4
aI7
aI8
aI10
aI35
aI36
as(g1768
I00
tp2775
(lp2776
I31
aI32
aI33
as(g1820
I01
tp2777
(lp2778
I4
aI5
aI6
aI8
aI10
aI11
aI12
aI13
aI14
aI15
aI16
aI18
aI27
aI35
as(g1470
I01
tp2779
(lp2780
I4
aI5
aI6
aI15
aI16
aI21
aI24
aI25
aI27
aI35
as(g2030
I00
tp2781
(lp2782
I1
aI7
aI8
aI10
aI15
aI16
aI18
aI36
as(g1497
I01
tp2783
(lp2784
I1
aI2
aI8
aI9
aI10
aI13
aI14
aI16
aI17
aI18
aI21
aI22
aI23
aI24
aI25
aI26
aI27
aI36
as(g1465
I00
tp2785
(lp2786
s(g1455
I00
tp2787
(lp2788
I7
aI8
aI13
aI15
aI16
aI21
aI36
as(g1452
I01
tp2789
(lp2790
I0
aI8
aI10
aI11
aI12
aI13
aI14
aI16
aI18
aI19
aI20
aI21
aI22
aI23
aI24
aI25
aI26
as(g1514
I00
tp2791
(lp2792
I3
aI5
as(g1451
I01
tp2793
g71
((lp2794
tp2795
Rp2796
s(g1825
I01
tp2797
(lp2798
I3
aI5
aI6
aI23
aI24
aI25
aI26
aI27
as(g1751
I00
tp2799
(lp2800
I7
aI8
aI10
aI15
aI18
aI22
aI36
as(g1492
I00
tp2801
g71
((lp2802
tp2803
Rp2804
s(g1454
I01
tp2805
(lp2806
I1
aI2
as(g1753
I01
tp2807
(lp2808
I0
aI9
aI10
aI12
aI13
aI17
aI18
aI20
aI21
aI23
aI25
aI27
aI28
aI29
aI34
aI35
aI36
as(g1810
I00
tp2809
g71
((lp2810
tp2811
Rp2812
s(g1604
I00
tp2813
(lp2814
s(g1460
I00
tp2815
(lp2816
I7
aI8
aI10
aI15
aI16
aI18
aI35
aI36
as(g1810
I01
tp2817
(lp2818
I4
aI5
aI6
aI8
aI10
aI11
aI12
aI13
aI14
aI15
aI16
aI18
aI27
as(g1462
I00
tp2819
(lp2820
I2
as(g1459
I01
tp2821
(lp2822
I7
aI8
aI10
aI35
aI36
as(g1477
I00
tp2823
(lp2824
I7
aI10
aI14
aI15
aI18
aI22
aI36
as(g1474
I00
tp2825
(lp2826
I7
aI8
aI10
aI15
aI16
aI18
aI34
aI35
aI36
assbsg1419
(dp2827
g1463
I01
sS'finite'
p2828
I01
ssbsbg4
tp2829
Rp2830
(dp2831
btp2832
Rp2833
(dp2834
bg0
(g20
g1
(g22
(S'\\alpha'
p2835
tp2836
Rp2837
(dp2838
g27
g28
(g29
g30
(dp2839
g1450
I01
sg1451
Nsg1452
Nsg1453
Nsg1454
Nsg1455
Nsg1456
Nsg1457
Nsg1458
I01
sg1459
I00
sg1460
Nsg1461
I00
sg1462
Nsg1463
I01
sg1464
I01
sg1465
I01
sg1466
I00
sg1467
I01
sg1468
Nsg1469
Nsg1470
Nsg1471
Nsg1472
Nsg1473
I01
sg1474
Nsg1475
Nsg1476
I01
sg1477
Nstp2840
Rp2841
(dp2842
g63
g1482
sg1419
(dp2843
g1463
I01
sg2828
I01
ssbsbg2
(I2
tp2844
Rp2845
(dp2846
btp2847
Rp2848
(dp2849
btp2850
Rp2851
(dp2852
bg0
(g20
g1
(g1447
g2845
tp2853
Rp2854
(dp2855
btp2856
Rp2857
(dp2858
bg0
(g17
g1
(g14
g2845
tp2859
Rp2860
(dp2861
bg1
(g2837
g17
tp2862
Rp2863
(dp2864
btp2865
Rp2866
(dp2867
bg0
(g2
(I8
tp2868
Rp2869
(dp2870
bg2860
g1
(g1447
g17
tp2871
Rp2872
(dp2873
btp2874
Rp2875
(dp2876
bg0
(g1443
g2863
g2854
tp2877
Rp2878
(dp2879
bg0
(g2
(I32
tp2880
Rp2881
(dp2882
bg2848
g2872
tp2883
Rp2884
(dp2885
bg0
(g2
(I12
tp2886
Rp2887
(dp2888
bg2860
g2848
g2854
tp2889
Rp2890
(dp2891
btp2892
Rp2893
(dp2894
bcsympy.core.numbers
Rational
p2895
(I-1
I2
tp2896
Rp2897
(dp2898
btp2899
Rp2900
(dp2901
bg1441
(g0
(g17
g2848
tp2902
Rp2903
(dp2904
bg0
(g2895
(I8
I3
tp2905
Rp2906
(dp2907
bg2854
tp2908
Rp2909
(dp2910
btp2911
Rp2912
(dp2913
btp2914
Rp2915
(dp2916
b.