csympy.core.mul
Mul
p0
(csympy.core.numbers
Rational
p1
(I-4
I3
tp2
Rp3
(dp4
bcsympy.core.symbol
Symbol
p5
(S'\\alpha'
p6
tp7
Rp8
(dp9
S'_assumptions'
p10
ccopy_reg
_reconstructor
p11
(csympy.core.assumptions
StdFactKB
p12
c__builtin__
dict
p13
(dp14
S'real'
p15
I01
sS'polar'
p16
NsS'irrational'
p17
NsS'antihermitian'
p18
NsS'composite'
p19
NsS'extended_nonnegative'
p20
NsS'even'
p21
NsS'algebraic'
p22
NsS'hermitian'
p23
I01
sS'infinite'
p24
I00
sS'integer'
p25
NsS'imaginary'
p26
I00
sS'odd'
p27
NsS'nonzero'
p28
I01
sS'extended_real'
p29
I01
sS'commutative'
p30
I01
sS'zero'
p31
I00
sS'extended_nonzero'
p32
I01
sS'positive'
p33
NsS'negative'
p34
NsS'extended_negative'
p35
NsS'nonnegative'
p36
NsS'prime'
p37
NsS'complex'
p38
I01
sS'rational'
p39
NsS'extended_positive'
p40
NsS'finite'
p41
I01
sS'extended_nonpositive'
p42
Nstp43
Rp44
(dp45
S'rules'
p46
g11
(csympy.core.facts
FactRules
p47
c__builtin__
object
p48
Ntp49
Rp50
(dp51
S'beta_rules'
p52
(lp53
(c__builtin__
set
p54
((lp55
(S'algebraic'
p56
I00
tp57
a(S'complex'
p58
I01
tp59
atp60
Rp61
(S'transcendental'
p62
I01
tp63
tp64
a(g54
((lp65
(g21
I00
tp66
a(S'integer'
p67
I01
tp68
atp69
Rp70
(S'odd'
p71
I01
tp72
tp73
a(g54
((lp74
(S'integer'
p75
I01
tp76
a(g27
I00
tp77
atp78
Rp79
(S'even'
p80
I01
tp81
tp82
a(g54
((lp83
(S'infinite'
p84
I00
tp85
a(S'real'
p86
I00
tp87
atp88
Rp89
(S'extended_real'
p90
I00
tp91
tp92
a(g54
((lp93
(g90
I01
tp94
a(g86
I00
tp95
atp96
Rp97
(g84
I01
tp98
tp99
a(g54
((lp100
(g90
I01
tp101
a(g84
I00
tp102
atp103
Rp104
(g86
I01
tp105
tp106
a(g54
((lp107
(S'extended_real'
p108
I01
tp109
a(S'finite'
p110
I01
tp111
atp112
Rp113
(S'real'
p114
I01
tp115
tp116
a(g54
((lp117
(S'zero'
p118
I00
tp119
a(S'extended_negative'
p120
I00
tp121
a(g40
I00
tp122
atp123
Rp124
(S'extended_real'
p125
I00
tp126
tp127
a(g54
((lp128
(g118
I00
tp129
a(g125
I01
tp130
a(g40
I00
tp131
atp132
Rp133
(g120
I01
tp134
tp135
a(g54
((lp136
(g40
I00
tp137
a(g125
I01
tp138
a(g120
I00
tp139
atp140
Rp141
(g118
I01
tp142
tp143
a(g54
((lp144
(g118
I00
tp145
a(g125
I01
tp146
a(g120
I00
tp147
atp148
Rp149
(g40
I01
tp150
tp151
a(g54
((lp152
(S'extended_nonzero'
p153
I01
tp154
a(S'extended_nonpositive'
p155
I01
tp156
atp157
Rp158
(S'extended_negative'
p159
I01
tp160
tp161
a(g54
((lp162
(S'extended_nonzero'
p163
I01
tp164
a(g20
I01
tp165
atp166
Rp167
(S'extended_positive'
p168
I01
tp169
tp170
a(g54
((lp171
(S'extended_positive'
p172
I00
tp173
a(S'extended_real'
p174
I01
tp175
atp176
Rp177
(S'extended_nonpositive'
p178
I01
tp179
tp180
a(g54
((lp181
(S'extended_real'
p182
I01
tp183
a(S'extended_negative'
p184
I00
tp185
atp186
Rp187
(S'extended_nonnegative'
p188
I01
tp189
tp190
a(g54
((lp191
(S'zero'
p192
I00
tp193
a(S'positive'
p194
I00
tp195
a(S'negative'
p196
I00
tp197
atp198
Rp199
(S'real'
p200
I00
tp201
tp202
a(g54
((lp203
(g200
I01
tp204
a(g192
I00
tp205
a(g194
I00
tp206
atp207
Rp208
(g196
I01
tp209
tp210
a(g54
((lp211
(g200
I01
tp212
a(g194
I00
tp213
a(g196
I00
tp214
atp215
Rp216
(g192
I01
tp217
tp218
a(g54
((lp219
(g200
I01
tp220
a(g192
I00
tp221
a(g196
I00
tp222
atp223
Rp224
(g194
I01
tp225
tp226
a(g54
((lp227
(S'nonzero'
p228
I01
tp229
a(S'nonpositive'
p230
I01
tp231
atp232
Rp233
(g34
I01
tp234
tp235
a(g54
((lp236
(S'nonzero'
p237
I01
tp238
a(g36
I01
tp239
atp240
Rp241
(S'positive'
p242
I01
tp243
tp244
a(g54
((lp245
(S'real'
p246
I01
tp247
a(S'positive'
p248
I00
tp249
atp250
Rp251
(S'nonpositive'
p252
I01
tp253
tp254
a(g54
((lp255
(S'real'
p256
I01
tp257
a(S'negative'
p258
I00
tp259
atp260
Rp261
(S'nonnegative'
p262
I01
tp263
tp264
a(g54
((lp265
(S'finite'
p266
I01
tp267
a(S'extended_positive'
p268
I01
tp269
atp270
Rp271
(g33
I01
tp272
tp273
a(g54
((lp274
(g35
I01
tp275
a(S'finite'
p276
I01
tp277
atp278
Rp279
(S'negative'
p280
I01
tp281
tp282
a(g54
((lp283
(S'finite'
p284
I01
tp285
a(g42
I01
tp286
atp287
Rp288
(S'nonpositive'
p289
I01
tp290
tp291
a(g54
((lp292
(S'finite'
p293
I01
tp294
a(S'extended_nonnegative'
p295
I01
tp296
atp297
Rp298
(S'nonnegative'
p299
I01
tp300
tp301
a(g54
((lp302
(g41
I01
tp303
a(g32
I01
tp304
atp305
Rp306
(S'nonzero'
p307
I01
tp308
tp309
a(g54
((lp310
(S'extended_nonnegative'
p311
I01
tp312
a(S'extended_nonpositive'
p313
I01
tp314
atp315
Rp316
(S'zero'
p317
I01
tp318
tp319
a(g54
((lp320
(S'nonpositive'
p321
I01
tp322
a(S'nonnegative'
p323
I01
tp324
atp325
Rp326
(S'zero'
p327
I01
tp328
tp329
a(g54
((lp330
(S'even'
p331
I01
tp332
a(g37
I00
tp333
a(S'positive'
p334
I01
tp335
atp336
Rp337
(S'composite'
p338
I01
tp339
tp340
a(g54
((lp341
(g331
I01
tp342
a(g338
I00
tp343
a(g334
I01
tp344
atp345
Rp346
(g37
I01
tp347
tp348
a(g54
((lp349
(g338
I00
tp350
a(g37
I00
tp351
a(g334
I01
tp352
atp353
Rp354
(g331
I00
tp355
tp356
a(g54
((lp357
(g331
I01
tp358
a(g338
I00
tp359
a(g37
I00
tp360
atp361
Rp362
(g334
I00
tp363
tp364
a(g54
((lp365
(S'real'
p366
I01
tp367
a(g39
I00
tp368
atp369
Rp370
(g17
I01
tp371
tp372
a(g54
((lp373
(S'integer'
p374
I00
tp375
a(S'extended_real'
p376
I01
tp377
atp378
Rp379
(S'noninteger'
p380
I01
tp381
tp382
a(g54
((lp383
(S'zero'
p384
I00
tp385
a(S'extended_real'
p386
I01
tp387
atp388
Rp389
(S'extended_nonzero'
p390
I01
tp391
tp392
asS'defined_facts'
p393
g54
((lp394
g321
ag23
ag27
ag21
ag30
ag33
ag380
ag34
ag35
aS'complex'
p395
ag39
aS'finite'
p396
ag20
aS'real'
p397
ag307
ag17
ag18
ag19
ag42
ag32
ag84
ag25
aS'imaginary'
p398
ag37
ag29
ag22
ag327
ag36
ag40
ag62
atp399
Rp400
sS'full_implications'
p401
ccollections
defaultdict
p402
(g54
tp403
Rp404
(g21
I01
tp405
g54
((lp406
(S'real'
p407
I01
tp408
a(g24
I00
tp409
a(g26
I00
tp410
a(g29
I01
tp411
a(g22
I01
tp412
a(g380
I00
tp413
a(S'finite'
p414
I01
tp415
a(g75
I01
tp416
a(g17
I00
tp417
a(g71
I00
tp418
a(g30
I01
tp419
a(g39
I01
tp420
a(g38
I01
tp421
a(g62
I00
tp422
a(g23
I01
tp423
atp424
Rp425
s(g23
I00
tp426
g54
((lp427
(g31
I00
tp428
a(S'positive'
p429
I00
tp430
a(S'prime'
p431
I00
tp432
a(g321
I00
tp433
a(g19
I00
tp434
a(g299
I00
tp435
a(S'nonzero'
p436
I00
tp437
a(g25
I00
tp438
a(g407
I00
tp439
a(g80
I00
tp440
a(g17
I00
tp441
a(g71
I00
tp442
a(g39
I00
tp443
a(g34
I00
tp444
atp445
Rp446
s(g15
I00
tp447
g54
((lp448
(g192
I00
tp449
a(g194
I00
tp450
a(g436
I00
tp451
a(g252
I00
tp452
a(g19
I00
tp453
a(g262
I00
tp454
a(g25
I00
tp455
a(g431
I00
tp456
a(g80
I00
tp457
a(g17
I00
tp458
a(g71
I00
tp459
a(S'rational'
p460
I00
tp461
a(g196
I00
tp462
atp463
Rp464
s(g311
I01
tp465
g54
((lp466
(g26
I00
tp467
a(g182
I01
tp468
a(g184
I00
tp469
a(g34
I00
tp470
a(g30
I01
tp471
atp472
Rp473
s(g34
I01
tp474
g54
((lp475
(g200
I01
tp476
a(g228
I01
tp477
a(g429
I00
tp478
a(g431
I00
tp479
a(g24
I00
tp480
a(g230
I01
tp481
a(g29
I01
tp482
a(g40
I00
tp483
a(g19
I00
tp484
a(g262
I00
tp485
a(g390
I01
tp486
a(g26
I00
tp487
a(g35
I01
tp488
a(g276
I01
tp489
a(g31
I00
tp490
a(g42
I01
tp491
a(g30
I01
tp492
a(g295
I00
tp493
a(g38
I01
tp494
a(g23
I01
tp495
atp496
Rp497
s(g398
I00
tp498
g54
((lp499
tp500
Rp501
s(g36
I00
tp502
g54
((lp503
(g431
I00
tp504
a(g242
I00
tp505
a(g19
I00
tp506
a(g327
I00
tp507
atp508
Rp509
s(g22
I01
tp510
g54
((lp511
(g30
I01
tp512
a(g24
I00
tp513
a(g38
I01
tp514
a(g62
I00
tp515
a(g414
I01
tp516
atp517
Rp518
s(g228
I00
tp519
g54
((lp520
(g242
I00
tp521
a(g431
I00
tp522
a(g34
I00
tp523
a(g19
I00
tp524
atp525
Rp526
s(g71
I01
tp527
g54
((lp528
(g407
I01
tp529
a(g31
I00
tp530
a(g24
I00
tp531
a(g26
I00
tp532
a(g29
I01
tp533
a(g21
I00
tp534
a(g22
I01
tp535
a(g307
I01
tp536
a(g390
I01
tp537
a(g380
I00
tp538
a(g414
I01
tp539
a(g67
I01
tp540
a(g17
I00
tp541
a(g30
I01
tp542
a(g39
I01
tp543
a(g38
I01
tp544
a(g62
I00
tp545
a(g23
I01
tp546
atp547
Rp548
s(g42
I01
tp549
g54
((lp550
(g429
I00
tp551
a(g19
I00
tp552
a(g172
I00
tp553
a(g174
I01
tp554
a(g431
I00
tp555
a(g26
I00
tp556
a(g30
I01
tp557
atp558
Rp559
s(g39
I01
tp560
g54
((lp561
(S'real'
p562
I01
tp563
a(g24
I00
tp564
a(g26
I00
tp565
a(g29
I01
tp566
a(S'algebraic'
p567
I01
tp568
a(g414
I01
tp569
a(g17
I00
tp570
a(g30
I01
tp571
a(g38
I01
tp572
a(g62
I00
tp573
a(g23
I01
tp574
atp575
Rp576
s(S'complex'
p577
I01
tp578
g54
((lp579
(g30
I01
tp580
a(g24
I00
tp581
a(g414
I01
tp582
atp583
Rp584
s(g62
I01
tp585
g54
((lp586
(g31
I00
tp587
a(g24
I00
tp588
a(g56
I00
tp589
a(g19
I00
tp590
a(g80
I00
tp591
a(g25
I00
tp592
a(g431
I00
tp593
a(g71
I00
tp594
a(g30
I01
tp595
a(g58
I01
tp596
a(g39
I00
tp597
a(g414
I01
tp598
atp599
Rp600
s(g327
I01
tp601
g54
((lp602
(S'even'
p603
I01
tp604
a(g311
I01
tp605
a(g26
I00
tp606
a(g22
I01
tp607
a(g313
I01
tp608
a(g39
I01
tp609
a(g38
I01
tp610
a(g34
I00
tp611
a(g200
I01
tp612
a(g431
I00
tp613
a(g40
I00
tp614
a(g390
I00
tp615
a(g23
I01
tp616
a(g30
I01
tp617
a(g159
I00
tp618
a(g429
I00
tp619
a(g19
I00
tp620
a(g321
I01
tp621
a(g125
I01
tp622
a(S'finite'
p623
I01
tp624
a(g67
I01
tp625
a(g24
I00
tp626
a(g436
I00
tp627
a(g323
I01
tp628
a(g380
I00
tp629
a(g17
I00
tp630
a(g71
I00
tp631
a(g62
I00
tp632
atp633
Rp634
s(g397
I01
tp635
g54
((lp636
(S'complex'
p637
I01
tp638
a(g26
I00
tp639
a(g108
I01
tp640
a(g110
I01
tp641
a(g30
I01
tp642
a(g24
I00
tp643
a(g23
I01
tp644
atp645
Rp646
s(g37
I00
tp647
g54
((lp648
tp649
Rp650
s(g18
I00
tp651
g54
((lp652
(g398
I00
tp653
atp654
Rp655
s(g33
I01
tp656
g54
((lp657
(g200
I01
tp658
a(g31
I00
tp659
a(g24
I00
tp660
a(g252
I00
tp661
a(g268
I01
tp662
a(g26
I00
tp663
a(g29
I01
tp664
a(g390
I01
tp665
a(g237
I01
tp666
a(g36
I01
tp667
a(g266
I01
tp668
a(g34
I00
tp669
a(g311
I01
tp670
a(g30
I01
tp671
a(g42
I00
tp672
a(g38
I01
tp673
a(g23
I01
tp674
a(g159
I00
tp675
atp676
Rp677
s(g398
I01
tp678
g54
((lp679
(g31
I00
tp680
a(g15
I00
tp681
a(g299
I00
tp682
a(g436
I00
tp683
a(g395
I01
tp684
a(g34
I00
tp685
a(g431
I00
tp686
a(g40
I00
tp687
a(g18
I01
tp688
a(g159
I00
tp689
a(g30
I01
tp690
a(g429
I00
tp691
a(g19
I00
tp692
a(g414
I01
tp693
a(g42
I00
tp694
a(g24
I00
tp695
a(g80
I00
tp696
a(g321
I00
tp697
a(g29
I00
tp698
a(g39
I00
tp699
a(g380
I00
tp700
a(g25
I00
tp701
a(g17
I00
tp702
a(g71
I00
tp703
a(g295
I00
tp704
a(g32
I00
tp705
atp706
Rp707
s(g40
I00
tp708
g54
((lp709
(g431
I00
tp710
a(g33
I00
tp711
a(g19
I00
tp712
atp713
Rp714
s(g32
I00
tp715
g54
((lp716
(g429
I00
tp717
a(g307
I00
tp718
a(g168
I00
tp719
a(g19
I00
tp720
a(g431
I00
tp721
a(g159
I00
tp722
a(g34
I00
tp723
atp724
Rp725
s(g23
I01
tp726
g54
((lp727
tp728
Rp729
s(g307
I01
tp730
g54
((lp731
(g15
I01
tp732
a(g31
I00
tp733
a(g24
I00
tp734
a(g26
I00
tp735
a(g29
I01
tp736
a(g32
I01
tp737
a(g41
I01
tp738
a(g30
I01
tp739
a(g38
I01
tp740
a(g23
I01
tp741
atp742
Rp743
s(g118
I00
tp744
g54
((lp745
tp746
Rp747
s(g196
I00
tp748
g54
((lp749
tp750
Rp751
s(g395
I00
tp752
g54
((lp753
(g31
I00
tp754
a(g429
I00
tp755
a(g431
I00
tp756
a(g321
I00
tp757
a(S'imaginary'
p758
I00
tp759
a(g22
I00
tp760
a(g19
I00
tp761
a(g299
I00
tp762
a(g39
I00
tp763
a(g436
I00
tp764
a(g25
I00
tp765
a(g397
I00
tp766
a(g80
I00
tp767
a(g17
I00
tp768
a(g71
I00
tp769
a(g62
I00
tp770
a(g34
I00
tp771
atp772
Rp773
s(g30
I01
tp774
g54
((lp775
tp776
Rp777
s(g35
I00
tp778
g54
((lp779
(g280
I00
tp780
atp781
Rp782
s(S'prime'
p783
I01
tp784
g54
((lp785
(g307
I01
tp786
a(g31
I00
tp787
a(g26
I00
tp788
a(g390
I01
tp789
a(g311
I01
tp790
a(g39
I01
tp791
a(g38
I01
tp792
a(g34
I00
tp793
a(g407
I01
tp794
a(g429
I01
tp795
a(g159
I00
tp796
a(g30
I01
tp797
a(g29
I01
tp798
a(g168
I01
tp799
a(g23
I01
tp800
a(g19
I00
tp801
a(g22
I01
tp802
a(S'integer'
p803
I01
tp804
a(g24
I00
tp805
a(g414
I01
tp806
a(g321
I00
tp807
a(g323
I01
tp808
a(g380
I00
tp809
a(g17
I00
tp810
a(g42
I00
tp811
a(g62
I00
tp812
atp813
Rp814
s(g567
I00
tp815
g54
((lp816
(g31
I00
tp817
a(g431
I00
tp818
a(g19
I00
tp819
a(g25
I00
tp820
a(g80
I00
tp821
a(g71
I00
tp822
a(S'rational'
p823
I00
tp824
atp825
Rp826
s(S'positive'
p827
I00
tp828
g54
((lp829
(g19
I00
tp830
a(g431
I00
tp831
atp832
Rp833
s(g29
I01
tp834
g54
((lp835
(g26
I00
tp836
a(S'commutative'
p837
I01
tp838
atp839
Rp840
s(g168
I01
tp841
g54
((lp842
(g31
I00
tp843
a(g321
I00
tp844
a(g26
I00
tp845
a(g125
I01
tp846
a(g163
I01
tp847
a(g159
I00
tp848
a(g20
I01
tp849
a(g30
I01
tp850
a(g178
I00
tp851
a(g34
I00
tp852
atp853
Rp854
s(g230
I01
tp855
g54
((lp856
(g246
I01
tp857
a(g248
I00
tp858
a(g24
I00
tp859
a(g29
I01
tp860
a(g40
I00
tp861
a(g19
I00
tp862
a(g431
I00
tp863
a(g42
I01
tp864
a(g26
I00
tp865
a(g30
I01
tp866
a(g38
I01
tp867
a(g23
I01
tp868
a(g284
I01
tp869
atp870
Rp871
s(g623
I00
tp872
g54
((lp873
(g31
I00
tp874
a(g33
I00
tp875
a(g431
I00
tp876
a(g289
I00
tp877
a(g26
I00
tp878
a(g56
I00
tp879
a(g19
I00
tp880
a(g299
I00
tp881
a(g62
I00
tp882
a(g114
I00
tp883
a(g25
I00
tp884
a(g307
I00
tp885
a(g80
I00
tp886
a(g17
I00
tp887
a(g71
I00
tp888
a(g577
I00
tp889
a(g39
I00
tp890
a(g280
I00
tp891
atp892
Rp893
s(g338
I00
tp894
g54
((lp895
tp896
Rp897
s(g390
I01
tp898
g54
((lp899
(g30
I01
tp900
a(g386
I01
tp901
a(g384
I00
tp902
a(g26
I00
tp903
atp904
Rp905
s(g35
I01
tp906
g54
((lp907
(g31
I00
tp908
a(g429
I00
tp909
a(g125
I01
tp910
a(g30
I01
tp911
a(g26
I00
tp912
a(g19
I00
tp913
a(g299
I00
tp914
a(g153
I01
tp915
a(g431
I00
tp916
a(g155
I01
tp917
a(g40
I00
tp918
a(g188
I00
tp919
atp920
Rp921
s(g603
I00
tp922
g54
((lp923
(g31
I00
tp924
atp925
Rp926
s(g67
I01
tp927
g54
((lp928
(g407
I01
tp929
a(g24
I00
tp930
a(g26
I00
tp931
a(g29
I01
tp932
a(g22
I01
tp933
a(g380
I00
tp934
a(g414
I01
tp935
a(g17
I00
tp936
a(g30
I01
tp937
a(S'rational'
p938
I01
tp939
a(g38
I01
tp940
a(g62
I00
tp941
a(g23
I01
tp942
atp943
Rp944
s(g30
I00
tp945
g54
((lp946
(g31
I00
tp947
a(g15
I00
tp948
a(g26
I00
tp949
a(g299
I00
tp950
a(g34
I00
tp951
a(g431
I00
tp952
a(g40
I00
tp953
a(g56
I00
tp954
a(g32
I00
tp955
a(g159
I00
tp956
a(S'complex'
p957
I00
tp958
a(g429
I00
tp959
a(g19
I00
tp960
a(g436
I00
tp961
a(g295
I00
tp962
a(g80
I00
tp963
a(g321
I00
tp964
a(S'extended_real'
p965
I00
tp966
a(g39
I00
tp967
a(g380
I00
tp968
a(g25
I00
tp969
a(g17
I00
tp970
a(g71
I00
tp971
a(g42
I00
tp972
a(g62
I00
tp973
atp974
Rp975
s(g20
I00
tp976
g54
((lp977
(g317
I00
tp978
a(g429
I00
tp979
a(g431
I00
tp980
a(g168
I00
tp981
a(g19
I00
tp982
a(g299
I00
tp983
atp984
Rp985
s(g17
I01
tp986
g54
((lp987
(g366
I01
tp988
a(g31
I00
tp989
a(g29
I01
tp990
a(g431
I00
tp991
a(g24
I00
tp992
a(g26
I00
tp993
a(g19
I00
tp994
a(g80
I00
tp995
a(g390
I01
tp996
a(g307
I01
tp997
a(g25
I00
tp998
a(g380
I01
tp999
a(g71
I00
tp1000
a(g30
I01
tp1001
a(g38
I01
tp1002
a(g39
I00
tp1003
a(g23
I01
tp1004
a(g414
I01
tp1005
atp1006
Rp1007
s(g84
I00
tp1008
g54
((lp1009
tp1010
Rp1011
s(g16
I01
tp1012
g54
((lp1013
tp1014
Rp1015
s(g396
I01
tp1016
g54
((lp1017
(g24
I00
tp1018
atp1019
Rp1020
s(g321
I00
tp1021
g54
((lp1022
(g327
I00
tp1023
a(g34
I00
tp1024
atp1025
Rp1026
s(g62
I00
tp1027
g54
((lp1028
tp1029
Rp1030
s(g19
I01
tp1031
g54
((lp1032
(g307
I01
tp1033
a(g31
I00
tp1034
a(g26
I00
tp1035
a(g22
I01
tp1036
a(g311
I01
tp1037
a(g39
I01
tp1038
a(g38
I01
tp1039
a(g34
I00
tp1040
a(g407
I01
tp1041
a(g783
I00
tp1042
a(g827
I01
tp1043
a(g159
I00
tp1044
a(g30
I01
tp1045
a(g168
I01
tp1046
a(g23
I01
tp1047
a(g29
I01
tp1048
a(g390
I01
tp1049
a(g25
I01
tp1050
a(g24
I00
tp1051
a(g414
I01
tp1052
a(g321
I00
tp1053
a(g323
I01
tp1054
a(g380
I00
tp1055
a(g17
I00
tp1056
a(g42
I00
tp1057
a(g62
I00
tp1058
atp1059
Rp1060
s(g323
I01
tp1061
g54
((lp1062
(g256
I01
tp1063
a(g24
I00
tp1064
a(g26
I00
tp1065
a(g29
I01
tp1066
a(g258
I00
tp1067
a(g293
I01
tp1068
a(g159
I00
tp1069
a(g295
I01
tp1070
a(g30
I01
tp1071
a(g38
I01
tp1072
a(g23
I01
tp1073
atp1074
Rp1075
s(g380
I00
tp1076
g54
((lp1077
tp1078
Rp1079
s(g174
I00
tp1080
g54
((lp1081
(g118
I00
tp1082
a(g429
I00
tp1083
a(g431
I00
tp1084
a(g321
I00
tp1085
a(g114
I00
tp1086
a(g40
I00
tp1087
a(g390
I00
tp1088
a(g19
I00
tp1089
a(g299
I00
tp1090
a(g380
I00
tp1091
a(g25
I00
tp1092
a(g436
I00
tp1093
a(g80
I00
tp1094
a(g120
I00
tp1095
a(g17
I00
tp1096
a(g71
I00
tp1097
a(g188
I00
tp1098
a(g39
I00
tp1099
a(g34
I00
tp1100
a(g178
I00
tp1101
atp1102
Rp1103
s(g25
I00
tp1104
g54
((lp1105
(g31
I00
tp1106
a(g19
I00
tp1107
a(g431
I00
tp1108
a(g80
I00
tp1109
a(g71
I00
tp1110
atp1111
Rp1112
s(g380
I01
tp1113
g54
((lp1114
(g31
I00
tp1115
a(g376
I01
tp1116
a(g26
I00
tp1117
a(g19
I00
tp1118
a(g80
I00
tp1119
a(g390
I01
tp1120
a(g374
I00
tp1121
a(g431
I00
tp1122
a(g71
I00
tp1123
a(g30
I01
tp1124
atp1125
Rp1126
s(g27
I00
tp1127
g54
((lp1128
tp1129
Rp1130
s(g24
I01
tp1131
g54
((lp1132
(g396
I00
tp1133
a(g31
I00
tp1134
a(g429
I00
tp1135
a(g431
I00
tp1136
a(g321
I00
tp1137
a(g26
I00
tp1138
a(g56
I00
tp1139
a(g19
I00
tp1140
a(g299
I00
tp1141
a(g39
I00
tp1142
a(g436
I00
tp1143
a(g25
I00
tp1144
a(g15
I00
tp1145
a(g80
I00
tp1146
a(g17
I00
tp1147
a(g71
I00
tp1148
a(g395
I00
tp1149
a(g62
I00
tp1150
a(g34
I00
tp1151
atp1152
Rp1153
s(g42
I00
tp1154
g54
((lp1155
(g317
I00
tp1156
a(g289
I00
tp1157
a(g159
I00
tp1158
a(g34
I00
tp1159
atp1160
Rp1161
s(g39
I00
tp1162
g54
((lp1163
(g31
I00
tp1164
a(g80
I00
tp1165
a(g19
I00
tp1166
a(S'integer'
p1167
I00
tp1168
a(g431
I00
tp1169
a(g71
I00
tp1170
atp1171
Rp1172
ssS'prereq'
p1173
g402
(g54
tp1174
Rp1175
g321
g54
((lp1176
g15
ag783
ag174
ag30
ag19
ag33
ag42
ag34
ag327
ag395
ag24
ag168
ag23
ag623
ag398
atp1177
Rp1178
sg31
g54
((lp1179
g15
ag603
ag62
ag321
ag19
ag42
ag567
ag23
ag24
ag25
ag398
ag71
ag17
ag307
ag174
ag30
ag390
ag33
ag380
ag34
ag35
ag36
ag783
ag395
ag39
ag168
ag623
ag20
atp1180
Rp1181
sg71
g54
((lp1182
g15
ag62
ag567
ag327
ag24
ag25
ag398
ag17
ag21
ag174
ag30
ag380
ag23
ag395
ag39
ag623
atp1183
Rp1184
sg17
g54
((lp1185
g21
ag15
ag174
ag30
ag19
ag783
ag23
ag327
ag395
ag39
ag24
ag67
ag398
ag623
ag71
atp1186
Rp1187
sg436
g54
((lp1188
g15
ag17
ag19
ag32
ag327
ag24
ag23
ag71
ag398
ag783
ag174
ag30
ag33
ag34
ag395
ag623
atp1189
Rp1190
sg16
g54
((lp1191
tp1192
Rp1193
sg30
g54
((lp1194
g397
ag307
ag17
ag230
ag19
ag42
ag390
ag327
ag67
ag398
ag323
ag71
ag21
ag29
ag22
ag33
ag380
ag34
ag35
ag39
ag783
ag577
ag62
ag168
ag311
atp1195
Rp1196
sg429
g54
((lp1197
g15
ag783
ag230
ag19
ag42
ag32
ag327
ag24
ag23
ag398
ag228
ag174
ag30
ag34
ag35
ag36
ag395
ag40
ag623
ag20
atp1198
Rp1199
sg380
g54
((lp1200
g21
ag783
ag174
ag30
ag19
ag327
ag67
ag398
ag71
ag17
atp1201
Rp1202
sg34
g54
((lp1203
g15
ag783
ag321
ag19
ag311
ag32
ag327
ag24
ag398
ag228
ag174
ag30
ag33
ag23
ag35
ag323
ag395
ag168
ag623
ag42
atp1204
Rp1205
sg184
g54
((lp1206
g783
ag174
ag30
ag19
ag33
ag311
ag34
ag323
ag32
ag327
ag168
ag398
ag42
atp1207
Rp1208
sg38
g54
((lp1209
g397
ag783
ag17
ag230
ag19
ag22
ag327
ag307
ag24
ag67
ag398
ag71
ag30
ag21
ag62
ag33
ag34
ag323
ag39
ag623
atp1210
Rp1211
sg39
g54
((lp1212
g15
ag783
ag17
ag19
ag567
ag327
ag24
ag67
ag398
ag71
ag21
ag174
ag30
ag23
ag395
ag62
ag623
atp1213
Rp1214
sg414
g54
((lp1215
g397
ag783
ag39
ag230
ag19
ag22
ag327
ag24
ag67
ag398
ag71
ag17
ag21
ag33
ag34
ag323
ag577
ag62
ag307
atp1216
Rp1217
sg42
g54
((lp1218
g783
ag174
ag30
ag230
ag19
ag33
ag34
ag35
ag327
ag398
ag168
atp1219
Rp1220
sg407
g54
((lp1221
g307
ag17
ag230
ag19
ag327
ag24
ag67
ag23
ag71
ag398
ag21
ag174
ag30
ag33
ag34
ag323
ag783
ag395
ag39
ag623
atp1222
Rp1223
sg80
g54
((lp1224
g15
ag62
ag567
ag327
ag24
ag25
ag398
ag71
ag17
ag174
ag30
ag380
ag23
ag395
ag39
ag623
atp1225
Rp1226
sg62
g54
((lp1227
g21
ag783
ag30
ag19
ag22
ag327
ag395
ag39
ag24
ag67
ag623
ag71
atp1228
Rp1229
sg18
g54
((lp1230
g398
atp1231
Rp1232
sg19
g54
((lp1233
g15
ag783
ag23
ag62
ag230
ag20
ag567
ag327
ag24
ag25
ag398
ag17
ag228
ag174
ag30
ag32
ag827
ag380
ag34
ag35
ag36
ag395
ag39
ag40
ag623
ag42
atp1234
Rp1235
sg295
g54
((lp1236
g783
ag174
ag30
ag19
ag33
ag34
ag35
ag323
ag327
ag398
ag168
atp1237
Rp1238
sg22
g54
((lp1239
g21
ag783
ag62
ag19
ag327
ag395
ag39
ag24
ag67
ag623
ag71
ag30
atp1240
Rp1241
sg24
g54
((lp1242
g397
ag783
ag39
ag230
ag19
ag22
ag327
ag307
ag67
ag398
ag71
ag17
ag21
ag33
ag34
ag323
ag577
ag62
ag396
atp1243
Rp1244
sg75
g54
((lp1245
g15
ag783
ag62
ag19
ag567
ag327
ag24
ag398
ag71
ag17
ag21
ag174
ag30
ag380
ag23
ag395
ag39
ag623
atp1246
Rp1247
sg26
g54
((lp1248
g397
ag307
ag17
ag18
ag230
ag19
ag42
ag390
ag327
ag24
ag67
ag71
ag21
ag29
ag30
ag33
ag380
ag34
ag35
ag323
ag783
ag395
ag39
ag168
ag623
ag311
atp1249
Rp1250
sg431
g54
((lp1251
g15
ag23
ag62
ag230
ag19
ag20
ag567
ag327
ag24
ag25
ag398
ag17
ag228
ag174
ag30
ag32
ag827
ag380
ag34
ag35
ag36
ag395
ag39
ag40
ag623
ag42
atp1252
Rp1253
sg29
g54
((lp1254
g397
ag307
ag17
ag230
ag19
ag42
ag390
ag327
ag67
ag398
ag71
ag21
ag30
ag33
ag380
ag34
ag35
ag323
ag783
ag39
ag168
ag311
atp1255
Rp1256
sg390
g54
((lp1257
g307
ag783
ag174
ag30
ag19
ag33
ag380
ag34
ag35
ag327
ag398
ag71
ag168
ag17
atp1258
Rp1259
sg23
g54
((lp1260
g21
ag397
ag17
ag230
ag19
ag33
ag34
ag323
ag783
ag327
ag39
ag67
ag307
ag71
atp1261
Rp1262
sg299
g54
((lp1263
g15
ag783
ag174
ag30
ag19
ag33
ag20
ag34
ag35
ag327
ag395
ag24
ag23
ag623
ag398
atp1264
Rp1265
sg40
g54
((lp1266
g783
ag174
ag30
ag230
ag19
ag33
ag42
ag34
ag35
ag32
ag327
ag398
ag20
atp1267
Rp1268
ssS'beta_triggers'
p1269
g402
(g54
tp1270
Rp1271
(g21
I01
tp1272
(lp1273
I8
aI9
aI10
aI13
aI14
aI16
aI17
aI18
aI21
aI22
aI23
aI24
aI25
aI26
aI27
aI30
aI31
aI33
aI36
as(g23
I00
tp1274
(lp1275
I3
aI4
aI7
aI8
aI10
aI35
aI36
as(g15
I00
tp1276
(lp1277
I3
aI4
aI7
aI8
aI10
aI35
aI36
as(g311
I01
tp1278
(lp1279
I4
aI5
aI6
aI9
aI10
aI12
aI13
aI15
aI17
aI18
aI22
aI26
aI28
aI35
aI36
as(g34
I01
tp1280
(lp1281
I0
aI34
aI35
as(g398
I00
tp1282
g54
((lp1283
tp1284
Rp1285
s(g36
I00
tp1286
(lp1287
I7
aI8
aI10
aI15
aI16
aI21
aI36
as(g22
I01
tp1288
(lp1289
I3
aI5
aI6
aI23
aI24
aI25
aI26
aI27
as(g228
I00
tp1290
(lp1291
I15
aI17
aI21
aI22
as(g71
I01
tp1292
(lp1293
I8
aI10
aI11
aI12
aI13
aI14
aI16
aI18
aI19
aI20
aI21
aI22
aI23
aI24
aI25
aI26
as(g42
I01
tp1294
(lp1295
I4
aI5
aI6
aI8
aI9
aI11
aI14
aI15
aI16
aI17
aI21
aI25
aI28
aI35
aI36
as(g39
I01
tp1296
(lp1297
I8
aI9
aI10
aI13
aI14
aI16
aI17
aI18
aI21
aI22
aI23
aI24
aI25
aI26
aI27
aI35
aI36
as(g577
I01
tp1298
(lp1299
I0
aI3
aI5
aI6
aI23
aI24
aI25
aI26
aI27
as(g62
I01
tp1300
(lp1301
I3
aI5
aI6
aI7
aI8
aI10
aI15
aI16
aI18
aI23
aI24
aI25
aI26
aI27
aI34
aI35
aI36
as(g327
I01
tp1302
(lp1303
s(g397
I01
tp1304
(lp1305
I0
aI8
aI9
aI10
aI13
aI14
aI16
aI17
aI18
aI21
aI22
aI23
aI24
aI25
aI26
aI27
aI34
aI35
aI36
as(g37
I00
tp1306
(lp1307
I30
aI32
aI33
as(g18
I00
tp1308
(lp1309
s(g33
I01
tp1310
(lp1311
I0
aI30
aI31
aI32
aI34
aI35
as(g398
I01
tp1312
(lp1313
I0
as(g40
I00
tp1314
(lp1315
I7
aI8
aI9
aI13
aI15
aI16
aI17
aI21
as(g32
I00
tp1316
(lp1317
I7
aI9
aI13
aI14
aI15
aI17
aI21
aI22
as(g23
I01
tp1318
g54
((lp1319
tp1320
Rp1321
s(g307
I01
tp1322
(lp1323
I0
aI8
aI10
aI11
aI12
aI13
aI14
aI16
aI18
aI19
aI20
aI21
aI22
aI23
aI24
aI25
aI26
aI34
aI35
as(g118
I00
tp1324
(lp1325
I7
aI8
aI10
aI15
aI16
aI18
aI36
as(g196
I00
tp1326
(lp1327
I15
aI17
aI18
aI22
as(g395
I00
tp1328
(lp1329
I3
aI4
aI7
aI8
aI10
aI35
aI36
as(g30
I01
tp1330
g54
((lp1331
tp1332
Rp1333
s(g35
I00
tp1334
(lp1335
I7
aI9
aI10
aI14
aI15
aI17
aI18
aI22
as(g783
I01
tp1336
(lp1337
I1
aI2
as(g567
I00
tp1338
(lp1339
I0
aI7
aI8
aI10
aI15
aI16
aI18
aI34
aI35
aI36
as(g827
I00
tp1340
(lp1341
I15
aI16
aI17
aI21
as(g29
I01
tp1342
(lp1343
I4
aI5
aI6
aI8
aI9
aI10
aI13
aI14
aI35
aI36
as(g168
I01
tp1344
(lp1345
I4
aI5
aI6
aI15
aI18
aI22
aI23
aI26
aI27
aI35
as(g230
I01
tp1346
(lp1347
I0
aI8
aI9
aI11
aI14
aI16
aI17
aI19
aI22
aI24
aI26
aI27
aI28
aI29
aI34
aI35
aI36
as(g623
I00
tp1348
(lp1349
I3
aI4
aI7
aI8
aI10
aI35
aI36
as(g338
I00
tp1350
(lp1351
I31
aI32
aI33
as(g390
I01
tp1352
(lp1353
I4
aI5
aI6
aI8
aI10
aI11
aI12
aI13
aI14
aI15
aI16
aI18
aI27
aI35
as(g35
I01
tp1354
(lp1355
I4
aI5
aI6
aI15
aI16
aI21
aI24
aI25
aI27
aI35
as(g603
I00
tp1356
(lp1357
I1
aI7
aI8
aI10
aI15
aI16
aI18
aI36
as(g67
I01
tp1358
(lp1359
I1
aI2
aI8
aI9
aI10
aI13
aI14
aI16
aI17
aI18
aI21
aI22
aI23
aI24
aI25
aI26
aI27
aI36
as(g30
I00
tp1360
(lp1361
s(g20
I00
tp1362
(lp1363
I7
aI8
aI13
aI15
aI16
aI21
aI36
as(g17
I01
tp1364
(lp1365
I0
aI8
aI10
aI11
aI12
aI13
aI14
aI16
aI18
aI19
aI20
aI21
aI22
aI23
aI24
aI25
aI26
as(g84
I00
tp1366
(lp1367
I3
aI5
as(g16
I01
tp1368
g54
((lp1369
tp1370
Rp1371
s(g396
I01
tp1372
(lp1373
I3
aI5
aI6
aI23
aI24
aI25
aI26
aI27
as(g321
I00
tp1374
(lp1375
I7
aI8
aI10
aI15
aI18
aI22
aI36
as(g62
I00
tp1376
g54
((lp1377
tp1378
Rp1379
s(g19
I01
tp1380
(lp1381
I1
aI2
as(g323
I01
tp1382
(lp1383
I0
aI9
aI10
aI12
aI13
aI17
aI18
aI20
aI21
aI23
aI25
aI27
aI28
aI29
aI34
aI35
aI36
as(g380
I00
tp1384
g54
((lp1385
tp1386
Rp1387
s(g174
I00
tp1388
(lp1389
s(g25
I00
tp1390
(lp1391
I7
aI8
aI10
aI15
aI16
aI18
aI35
aI36
as(g380
I01
tp1392
(lp1393
I4
aI5
aI6
aI8
aI10
aI11
aI12
aI13
aI14
aI15
aI16
aI18
aI27
as(g27
I00
tp1394
(lp1395
I2
as(g24
I01
tp1396
(lp1397
I7
aI8
aI10
aI35
aI36
as(g42
I00
tp1398
(lp1399
I7
aI10
aI14
aI15
aI18
aI22
aI36
as(g39
I00
tp1400
(lp1401
I7
aI8
aI10
aI15
aI16
aI18
aI34
aI35
aI36
assbsS'_generator'
p1402
(dp1403
g28
I01
sS'finite'
p1404
I01
ssbsbcsympy.core.power
Pow
p1405
(csympy.core.numbers
Integer
p1406
(I6
tp1407
Rp1408
(dp1409
bcsympy.core.numbers
Half
p1410
(I1
I2
tp1411
Rp1412
(dp1413
btp1414
Rp1415
(dp1416
bg1405
(csympy.core.numbers
Pi
p1417
(tRp1418
(dp1419
bg1406
(I2
tp1420
Rp1421
(dp1422
btp1423
Rp1424
(dp1425
bg1405
(g5
(S'\\gamma'
p1426
tp1427
Rp1428
(dp1429
g10
g11
(g12
g13
(dp1430
S'real'
p1431
I01
sS'polar'
p1432
NsS'irrational'
p1433
NsS'antihermitian'
p1434
NsS'composite'
p1435
NsS'extended_nonnegative'
p1436
NsS'even'
p1437
NsS'negative'
p1438
NsS'algebraic'
p1439
NsS'hermitian'
p1440
I01
sS'infinite'
p1441
I00
sS'integer'
p1442
NsS'imaginary'
p1443
I00
sS'odd'
p1444
NsS'nonzero'
p1445
I01
sS'extended_real'
p1446
I01
sS'commutative'
p1447
I01
sS'extended_nonzero'
p1448
I01
sS'positive'
p1449
NsS'zero'
p1450
I00
sS'extended_negative'
p1451
NsS'nonnegative'
p1452
NsS'prime'
p1453
NsS'complex'
p1454
I01
sS'rational'
p1455
NsS'extended_positive'
p1456
NsS'finite'
p1457
I01
sS'extended_nonpositive'
p1458
Nstp1459
Rp1460
(dp1461
g46
g11
(g47
g48
Ntp1462
Rp1463
(dp1464
g52
(lp1465
(g54
((lp1466
(S'algebraic'
p1467
I00
tp1468
a(S'complex'
p1469
I01
tp1470
atp1471
Rp1472
(S'transcendental'
p1473
I01
tp1474
tp1475
a(g54
((lp1476
(g1437
I00
tp1477
a(S'integer'
p1478
I01
tp1479
atp1480
Rp1481
(S'odd'
p1482
I01
tp1483
tp1484
a(g54
((lp1485
(S'integer'
p1486
I01
tp1487
a(g1444
I00
tp1488
atp1489
Rp1490
(S'even'
p1491
I01
tp1492
tp1493
a(g54
((lp1494
(S'infinite'
p1495
I00
tp1496
a(S'real'
p1497
I00
tp1498
atp1499
Rp1500
(S'extended_real'
p1501
I00
tp1502
tp1503
a(g54
((lp1504
(g1501
I01
tp1505
a(g1497
I00
tp1506
atp1507
Rp1508
(g1495
I01
tp1509
tp1510
a(g54
((lp1511
(g1501
I01
tp1512
a(g1495
I00
tp1513
atp1514
Rp1515
(g1497
I01
tp1516
tp1517
a(g54
((lp1518
(S'extended_real'
p1519
I01
tp1520
a(S'finite'
p1521
I01
tp1522
atp1523
Rp1524
(S'real'
p1525
I01
tp1526
tp1527
a(g54
((lp1528
(S'zero'
p1529
I00
tp1530
a(S'extended_negative'
p1531
I00
tp1532
a(g1456
I00
tp1533
atp1534
Rp1535
(S'extended_real'
p1536
I00
tp1537
tp1538
a(g54
((lp1539
(g1529
I00
tp1540
a(g1536
I01
tp1541
a(g1456
I00
tp1542
atp1543
Rp1544
(g1531
I01
tp1545
tp1546
a(g54
((lp1547
(g1456
I00
tp1548
a(g1536
I01
tp1549
a(g1531
I00
tp1550
atp1551
Rp1552
(g1529
I01
tp1553
tp1554
a(g54
((lp1555
(g1529
I00
tp1556
a(g1536
I01
tp1557
a(g1531
I00
tp1558
atp1559
Rp1560
(g1456
I01
tp1561
tp1562
a(g54
((lp1563
(S'extended_nonzero'
p1564
I01
tp1565
a(S'extended_nonpositive'
p1566
I01
tp1567
atp1568
Rp1569
(S'extended_negative'
p1570
I01
tp1571
tp1572
a(g54
((lp1573
(S'extended_nonzero'
p1574
I01
tp1575
a(g1436
I01
tp1576
atp1577
Rp1578
(S'extended_positive'
p1579
I01
tp1580
tp1581
a(g54
((lp1582
(S'extended_positive'
p1583
I00
tp1584
a(S'extended_real'
p1585
I01
tp1586
atp1587
Rp1588
(S'extended_nonpositive'
p1589
I01
tp1590
tp1591
a(g54
((lp1592
(S'extended_real'
p1593
I01
tp1594
a(S'extended_negative'
p1595
I00
tp1596
atp1597
Rp1598
(S'extended_nonnegative'
p1599
I01
tp1600
tp1601
a(g54
((lp1602
(S'zero'
p1603
I00
tp1604
a(S'positive'
p1605
I00
tp1606
a(S'negative'
p1607
I00
tp1608
atp1609
Rp1610
(S'real'
p1611
I00
tp1612
tp1613
a(g54
((lp1614
(g1611
I01
tp1615
a(g1603
I00
tp1616
a(g1605
I00
tp1617
atp1618
Rp1619
(g1607
I01
tp1620
tp1621
a(g54
((lp1622
(g1611
I01
tp1623
a(g1605
I00
tp1624
a(g1607
I00
tp1625
atp1626
Rp1627
(g1603
I01
tp1628
tp1629
a(g54
((lp1630
(g1611
I01
tp1631
a(g1603
I00
tp1632
a(g1607
I00
tp1633
atp1634
Rp1635
(g1605
I01
tp1636
tp1637
a(g54
((lp1638
(S'nonzero'
p1639
I01
tp1640
a(S'nonpositive'
p1641
I01
tp1642
atp1643
Rp1644
(g1438
I01
tp1645
tp1646
a(g54
((lp1647
(S'nonzero'
p1648
I01
tp1649
a(g1452
I01
tp1650
atp1651
Rp1652
(S'positive'
p1653
I01
tp1654
tp1655
a(g54
((lp1656
(S'real'
p1657
I01
tp1658
a(S'positive'
p1659
I00
tp1660
atp1661
Rp1662
(S'nonpositive'
p1663
I01
tp1664
tp1665
a(g54
((lp1666
(S'real'
p1667
I01
tp1668
a(S'negative'
p1669
I00
tp1670
atp1671
Rp1672
(S'nonnegative'
p1673
I01
tp1674
tp1675
a(g54
((lp1676
(S'finite'
p1677
I01
tp1678
a(S'extended_positive'
p1679
I01
tp1680
atp1681
Rp1682
(g1449
I01
tp1683
tp1684
a(g54
((lp1685
(g1451
I01
tp1686
a(S'finite'
p1687
I01
tp1688
atp1689
Rp1690
(S'negative'
p1691
I01
tp1692
tp1693
a(g54
((lp1694
(S'finite'
p1695
I01
tp1696
a(g1458
I01
tp1697
atp1698
Rp1699
(S'nonpositive'
p1700
I01
tp1701
tp1702
a(g54
((lp1703
(S'finite'
p1704
I01
tp1705
a(S'extended_nonnegative'
p1706
I01
tp1707
atp1708
Rp1709
(S'nonnegative'
p1710
I01
tp1711
tp1712
a(g54
((lp1713
(g1457
I01
tp1714
a(g1448
I01
tp1715
atp1716
Rp1717
(S'nonzero'
p1718
I01
tp1719
tp1720
a(g54
((lp1721
(S'extended_nonnegative'
p1722
I01
tp1723
a(S'extended_nonpositive'
p1724
I01
tp1725
atp1726
Rp1727
(S'zero'
p1728
I01
tp1729
tp1730
a(g54
((lp1731
(S'nonpositive'
p1732
I01
tp1733
a(S'nonnegative'
p1734
I01
tp1735
atp1736
Rp1737
(S'zero'
p1738
I01
tp1739
tp1740
a(g54
((lp1741
(S'even'
p1742
I01
tp1743
a(g1453
I00
tp1744
a(S'positive'
p1745
I01
tp1746
atp1747
Rp1748
(S'composite'
p1749
I01
tp1750
tp1751
a(g54
((lp1752
(g1742
I01
tp1753
a(g1749
I00
tp1754
a(g1745
I01
tp1755
atp1756
Rp1757
(g1453
I01
tp1758
tp1759
a(g54
((lp1760
(g1749
I00
tp1761
a(g1453
I00
tp1762
a(g1745
I01
tp1763
atp1764
Rp1765
(g1742
I00
tp1766
tp1767
a(g54
((lp1768
(g1742
I01
tp1769
a(g1749
I00
tp1770
a(g1453
I00
tp1771
atp1772
Rp1773
(g1745
I00
tp1774
tp1775
a(g54
((lp1776
(S'real'
p1777
I01
tp1778
a(g1455
I00
tp1779
atp1780
Rp1781
(g1433
I01
tp1782
tp1783
a(g54
((lp1784
(S'integer'
p1785
I00
tp1786
a(S'extended_real'
p1787
I01
tp1788
atp1789
Rp1790
(S'noninteger'
p1791
I01
tp1792
tp1793
a(g54
((lp1794
(S'zero'
p1795
I00
tp1796
a(S'extended_real'
p1797
I01
tp1798
atp1799
Rp1800
(S'extended_nonzero'
p1801
I01
tp1802
tp1803
asg393
g54
((lp1804
g1732
ag1440
ag1444
ag1437
ag1447
ag1449
ag1791
ag1438
ag1451
aS'complex'
p1805
ag1455
aS'finite'
p1806
ag1436
aS'real'
p1807
ag1718
ag1433
ag1434
ag1435
ag1458
ag1448
ag1495
ag1442
aS'imaginary'
p1808
ag1453
ag1446
ag1439
ag1738
ag1452
ag1456
ag1473
atp1809
Rp1810
sg401
g402
(g54
tp1811
Rp1812
(g1437
I01
tp1813
g54
((lp1814
(S'real'
p1815
I01
tp1816
a(S'finite'
p1817
I01
tp1818
a(g1443
I00
tp1819
a(g1446
I01
tp1820
a(g1439
I01
tp1821
a(g1791
I00
tp1822
a(g1441
I00
tp1823
a(g1486
I01
tp1824
a(g1433
I00
tp1825
a(g1482
I00
tp1826
a(g1447
I01
tp1827
a(g1455
I01
tp1828
a(g1454
I01
tp1829
a(g1473
I00
tp1830
a(g1440
I01
tp1831
atp1832
Rp1833
s(g1440
I00
tp1834
g54
((lp1835
(g1450
I00
tp1836
a(S'positive'
p1837
I00
tp1838
a(S'prime'
p1839
I00
tp1840
a(g1732
I00
tp1841
a(g1435
I00
tp1842
a(g1710
I00
tp1843
a(S'nonzero'
p1844
I00
tp1845
a(g1442
I00
tp1846
a(g1815
I00
tp1847
a(g1491
I00
tp1848
a(g1433
I00
tp1849
a(g1482
I00
tp1850
a(g1455
I00
tp1851
a(g1438
I00
tp1852
atp1853
Rp1854
s(g1431
I00
tp1855
g54
((lp1856
(g1603
I00
tp1857
a(g1605
I00
tp1858
a(g1844
I00
tp1859
a(g1663
I00
tp1860
a(g1435
I00
tp1861
a(g1673
I00
tp1862
a(g1442
I00
tp1863
a(g1839
I00
tp1864
a(g1491
I00
tp1865
a(g1433
I00
tp1866
a(g1482
I00
tp1867
a(S'rational'
p1868
I00
tp1869
a(g1607
I00
tp1870
atp1871
Rp1872
s(g1722
I01
tp1873
g54
((lp1874
(g1443
I00
tp1875
a(g1593
I01
tp1876
a(g1595
I00
tp1877
a(g1438
I00
tp1878
a(g1447
I01
tp1879
atp1880
Rp1881
s(g1438
I01
tp1882
g54
((lp1883
(g1611
I01
tp1884
a(g1639
I01
tp1885
a(g1837
I00
tp1886
a(g1839
I00
tp1887
a(g1641
I01
tp1888
a(g1435
I00
tp1889
a(g1456
I00
tp1890
a(g1446
I01
tp1891
a(g1673
I00
tp1892
a(g1801
I01
tp1893
a(g1454
I01
tp1894
a(g1451
I01
tp1895
a(g1687
I01
tp1896
a(g1450
I00
tp1897
a(g1458
I01
tp1898
a(g1443
I00
tp1899
a(g1447
I01
tp1900
a(g1441
I00
tp1901
a(g1440
I01
tp1902
a(g1706
I00
tp1903
atp1904
Rp1905
s(g1808
I00
tp1906
g54
((lp1907
tp1908
Rp1909
s(g1452
I00
tp1910
g54
((lp1911
(g1738
I00
tp1912
a(g1653
I00
tp1913
a(g1839
I00
tp1914
a(g1435
I00
tp1915
atp1916
Rp1917
s(g1439
I01
tp1918
g54
((lp1919
(g1447
I01
tp1920
a(g1441
I00
tp1921
a(g1454
I01
tp1922
a(g1473
I00
tp1923
a(g1817
I01
tp1924
atp1925
Rp1926
s(g1639
I00
tp1927
g54
((lp1928
(g1653
I00
tp1929
a(g1839
I00
tp1930
a(g1438
I00
tp1931
a(g1435
I00
tp1932
atp1933
Rp1934
s(g1482
I01
tp1935
g54
((lp1936
(g1815
I01
tp1937
a(g1450
I00
tp1938
a(g1437
I00
tp1939
a(g1443
I00
tp1940
a(g1446
I01
tp1941
a(g1439
I01
tp1942
a(g1718
I01
tp1943
a(g1801
I01
tp1944
a(g1791
I00
tp1945
a(g1441
I00
tp1946
a(g1817
I01
tp1947
a(g1478
I01
tp1948
a(g1433
I00
tp1949
a(g1447
I01
tp1950
a(g1455
I01
tp1951
a(g1454
I01
tp1952
a(g1473
I00
tp1953
a(g1440
I01
tp1954
atp1955
Rp1956
s(g1458
I01
tp1957
g54
((lp1958
(g1837
I00
tp1959
a(g1435
I00
tp1960
a(g1583
I00
tp1961
a(g1585
I01
tp1962
a(g1839
I00
tp1963
a(g1443
I00
tp1964
a(g1447
I01
tp1965
atp1966
Rp1967
s(g1473
I01
tp1968
g54
((lp1969
(g1450
I00
tp1970
a(g1839
I00
tp1971
a(g1441
I00
tp1972
a(g1467
I00
tp1973
a(g1435
I00
tp1974
a(g1442
I00
tp1975
a(g1491
I00
tp1976
a(g1482
I00
tp1977
a(g1447
I01
tp1978
a(g1469
I01
tp1979
a(g1455
I00
tp1980
a(g1817
I01
tp1981
atp1982
Rp1983
s(S'complex'
p1984
I01
tp1985
g54
((lp1986
(g1447
I01
tp1987
a(g1441
I00
tp1988
a(g1817
I01
tp1989
atp1990
Rp1991
s(g1455
I01
tp1992
g54
((lp1993
(S'real'
p1994
I01
tp1995
a(g1817
I01
tp1996
a(g1443
I00
tp1997
a(g1446
I01
tp1998
a(S'algebraic'
p1999
I01
tp2000
a(g1441
I00
tp2001
a(g1433
I00
tp2002
a(g1447
I01
tp2003
a(g1454
I01
tp2004
a(g1473
I00
tp2005
a(g1440
I01
tp2006
atp2007
Rp2008
s(g1738
I01
tp2009
g54
((lp2010
(S'even'
p2011
I01
tp2012
a(g1722
I01
tp2013
a(g1443
I00
tp2014
a(g1439
I01
tp2015
a(g1724
I01
tp2016
a(g1455
I01
tp2017
a(g1454
I01
tp2018
a(g1438
I00
tp2019
a(g1611
I01
tp2020
a(g1839
I00
tp2021
a(g1456
I00
tp2022
a(g1801
I00
tp2023
a(g1440
I01
tp2024
a(g1447
I01
tp2025
a(g1570
I00
tp2026
a(g1837
I00
tp2027
a(g1435
I00
tp2028
a(g1732
I01
tp2029
a(g1536
I01
tp2030
a(S'finite'
p2031
I01
tp2032
a(g1478
I01
tp2033
a(g1441
I00
tp2034
a(g1844
I00
tp2035
a(g1734
I01
tp2036
a(g1791
I00
tp2037
a(g1433
I00
tp2038
a(g1482
I00
tp2039
a(g1473
I00
tp2040
atp2041
Rp2042
s(g1807
I01
tp2043
g54
((lp2044
(S'complex'
p2045
I01
tp2046
a(g1443
I00
tp2047
a(g1519
I01
tp2048
a(g1521
I01
tp2049
a(g1447
I01
tp2050
a(g1441
I00
tp2051
a(g1440
I01
tp2052
atp2053
Rp2054
s(g1453
I00
tp2055
g54
((lp2056
tp2057
Rp2058
s(g1434
I00
tp2059
g54
((lp2060
(g1808
I00
tp2061
atp2062
Rp2063
s(g1449
I01
tp2064
g54
((lp2065
(g1611
I01
tp2066
a(g1450
I00
tp2067
a(g1677
I01
tp2068
a(g1663
I00
tp2069
a(g1679
I01
tp2070
a(g1443
I00
tp2071
a(g1446
I01
tp2072
a(g1801
I01
tp2073
a(g1648
I01
tp2074
a(g1452
I01
tp2075
a(g1441
I00
tp2076
a(g1438
I00
tp2077
a(g1722
I01
tp2078
a(g1447
I01
tp2079
a(g1458
I00
tp2080
a(g1454
I01
tp2081
a(g1440
I01
tp2082
a(g1570
I00
tp2083
atp2084
Rp2085
s(g1808
I01
tp2086
g54
((lp2087
(g1450
I00
tp2088
a(g1431
I00
tp2089
a(g1710
I00
tp2090
a(g1805
I01
tp2091
a(g1438
I00
tp2092
a(g1839
I00
tp2093
a(g1456
I00
tp2094
a(g1434
I01
tp2095
a(g1570
I00
tp2096
a(g1447
I01
tp2097
a(g1817
I01
tp2098
a(g1837
I00
tp2099
a(g1435
I00
tp2100
a(g1491
I00
tp2101
a(g1458
I00
tp2102
a(g1441
I00
tp2103
a(g1844
I00
tp2104
a(g1732
I00
tp2105
a(g1446
I00
tp2106
a(g1455
I00
tp2107
a(g1791
I00
tp2108
a(g1442
I00
tp2109
a(g1433
I00
tp2110
a(g1482
I00
tp2111
a(g1706
I00
tp2112
a(g1448
I00
tp2113
atp2114
Rp2115
s(g1456
I00
tp2116
g54
((lp2117
(g1449
I00
tp2118
a(g1839
I00
tp2119
a(g1435
I00
tp2120
atp2121
Rp2122
s(g1448
I00
tp2123
g54
((lp2124
(g1837
I00
tp2125
a(g1718
I00
tp2126
a(g1579
I00
tp2127
a(g1435
I00
tp2128
a(g1839
I00
tp2129
a(g1570
I00
tp2130
a(g1438
I00
tp2131
atp2132
Rp2133
s(g1718
I01
tp2134
g54
((lp2135
(g1431
I01
tp2136
a(g1450
I00
tp2137
a(g1457
I01
tp2138
a(g1443
I00
tp2139
a(g1446
I01
tp2140
a(g1448
I01
tp2141
a(g1441
I00
tp2142
a(g1447
I01
tp2143
a(g1454
I01
tp2144
a(g1440
I01
tp2145
atp2146
Rp2147
s(g1529
I00
tp2148
g54
((lp2149
tp2150
Rp2151
s(g1607
I00
tp2152
g54
((lp2153
tp2154
Rp2155
s(g1805
I00
tp2156
g54
((lp2157
(g1450
I00
tp2158
a(g1837
I00
tp2159
a(g1839
I00
tp2160
a(g1732
I00
tp2161
a(S'imaginary'
p2162
I00
tp2163
a(g1439
I00
tp2164
a(g1435
I00
tp2165
a(g1710
I00
tp2166
a(g1455
I00
tp2167
a(g1844
I00
tp2168
a(g1442
I00
tp2169
a(g1807
I00
tp2170
a(g1491
I00
tp2171
a(g1433
I00
tp2172
a(g1482
I00
tp2173
a(g1473
I00
tp2174
a(g1438
I00
tp2175
atp2176
Rp2177
s(g1447
I01
tp2178
g54
((lp2179
tp2180
Rp2181
s(g1451
I00
tp2182
g54
((lp2183
(g1691
I00
tp2184
atp2185
Rp2186
s(S'prime'
p2187
I01
tp2188
g54
((lp2189
(g1718
I01
tp2190
a(g1450
I00
tp2191
a(g1443
I00
tp2192
a(g1801
I01
tp2193
a(g1438
I00
tp2194
a(g1722
I01
tp2195
a(g1455
I01
tp2196
a(g1454
I01
tp2197
a(g1440
I01
tp2198
a(g1815
I01
tp2199
a(g1837
I01
tp2200
a(g1570
I00
tp2201
a(g1447
I01
tp2202
a(g1446
I01
tp2203
a(g1579
I01
tp2204
a(g1435
I00
tp2205
a(g1439
I01
tp2206
a(S'integer'
p2207
I01
tp2208
a(g1441
I00
tp2209
a(g1817
I01
tp2210
a(g1732
I00
tp2211
a(g1734
I01
tp2212
a(g1791
I00
tp2213
a(g1433
I00
tp2214
a(g1458
I00
tp2215
a(g1473
I00
tp2216
atp2217
Rp2218
s(g1999
I00
tp2219
g54
((lp2220
(g1450
I00
tp2221
a(g1839
I00
tp2222
a(g1435
I00
tp2223
a(g1442
I00
tp2224
a(g1491
I00
tp2225
a(g1482
I00
tp2226
a(S'rational'
p2227
I00
tp2228
atp2229
Rp2230
s(S'positive'
p2231
I00
tp2232
g54
((lp2233
(g1435
I00
tp2234
a(g1839
I00
tp2235
atp2236
Rp2237
s(g1446
I01
tp2238
g54
((lp2239
(g1443
I00
tp2240
a(S'commutative'
p2241
I01
tp2242
atp2243
Rp2244
s(g1579
I01
tp2245
g54
((lp2246
(g1450
I00
tp2247
a(g1732
I00
tp2248
a(g1443
I00
tp2249
a(g1536
I01
tp2250
a(g1574
I01
tp2251
a(g1570
I00
tp2252
a(g1436
I01
tp2253
a(g1447
I01
tp2254
a(g1589
I00
tp2255
a(g1438
I00
tp2256
atp2257
Rp2258
s(g1641
I01
tp2259
g54
((lp2260
(g1657
I01
tp2261
a(g1659
I00
tp2262
a(g1839
I00
tp2263
a(g1446
I01
tp2264
a(g1456
I00
tp2265
a(g1435
I00
tp2266
a(g1441
I00
tp2267
a(g1695
I01
tp2268
a(g1458
I01
tp2269
a(g1443
I00
tp2270
a(g1447
I01
tp2271
a(g1454
I01
tp2272
a(g1440
I01
tp2273
atp2274
Rp2275
s(g1440
I01
tp2276
g54
((lp2277
tp2278
Rp2279
s(g1749
I00
tp2280
g54
((lp2281
tp2282
Rp2283
s(g1801
I01
tp2284
g54
((lp2285
(g1443
I00
tp2286
a(g1797
I01
tp2287
a(g1795
I00
tp2288
a(g1447
I01
tp2289
atp2290
Rp2291
s(g1451
I01
tp2292
g54
((lp2293
(g1450
I00
tp2294
a(g1837
I00
tp2295
a(g1435
I00
tp2296
a(g1443
I00
tp2297
a(g1536
I01
tp2298
a(g1710
I00
tp2299
a(g1564
I01
tp2300
a(g1839
I00
tp2301
a(g1566
I01
tp2302
a(g1456
I00
tp2303
a(g1447
I01
tp2304
a(g1599
I00
tp2305
atp2306
Rp2307
s(g2011
I00
tp2308
g54
((lp2309
(g1450
I00
tp2310
atp2311
Rp2312
s(g1478
I01
tp2313
g54
((lp2314
(g1815
I01
tp2315
a(g1817
I01
tp2316
a(g1443
I00
tp2317
a(g1446
I01
tp2318
a(g1439
I01
tp2319
a(g1791
I00
tp2320
a(g1441
I00
tp2321
a(g1433
I00
tp2322
a(g1447
I01
tp2323
a(S'rational'
p2324
I01
tp2325
a(g1454
I01
tp2326
a(g1473
I00
tp2327
a(g1440
I01
tp2328
atp2329
Rp2330
s(g1447
I00
tp2331
g54
((lp2332
(g1450
I00
tp2333
a(g1431
I00
tp2334
a(g1443
I00
tp2335
a(g1710
I00
tp2336
a(g1438
I00
tp2337
a(g1839
I00
tp2338
a(g1456
I00
tp2339
a(g1467
I00
tp2340
a(g1448
I00
tp2341
a(g1570
I00
tp2342
a(S'complex'
p2343
I00
tp2344
a(g1837
I00
tp2345
a(g1435
I00
tp2346
a(g1491
I00
tp2347
a(g1706
I00
tp2348
a(g1844
I00
tp2349
a(g1732
I00
tp2350
a(S'extended_real'
p2351
I00
tp2352
a(g1455
I00
tp2353
a(g1791
I00
tp2354
a(g1442
I00
tp2355
a(g1433
I00
tp2356
a(g1482
I00
tp2357
a(g1458
I00
tp2358
a(g1473
I00
tp2359
atp2360
Rp2361
s(g1436
I00
tp2362
g54
((lp2363
(g1728
I00
tp2364
a(g1837
I00
tp2365
a(g1839
I00
tp2366
a(g1579
I00
tp2367
a(g1435
I00
tp2368
a(g1710
I00
tp2369
atp2370
Rp2371
s(g1433
I01
tp2372
g54
((lp2373
(g1777
I01
tp2374
a(g1450
I00
tp2375
a(g1435
I00
tp2376
a(g1441
I00
tp2377
a(g1443
I00
tp2378
a(g1446
I01
tp2379
a(g1491
I00
tp2380
a(g1801
I01
tp2381
a(g1718
I01
tp2382
a(g1442
I00
tp2383
a(g1839
I00
tp2384
a(g1482
I00
tp2385
a(g1447
I01
tp2386
a(g1791
I01
tp2387
a(g1454
I01
tp2388
a(g1455
I00
tp2389
a(g1440
I01
tp2390
a(g1817
I01
tp2391
atp2392
Rp2393
s(g1495
I00
tp2394
g54
((lp2395
tp2396
Rp2397
s(g1432
I01
tp2398
g54
((lp2399
tp2400
Rp2401
s(g1806
I01
tp2402
g54
((lp2403
(g1441
I00
tp2404
atp2405
Rp2406
s(g1732
I00
tp2407
g54
((lp2408
(g1738
I00
tp2409
a(g1438
I00
tp2410
atp2411
Rp2412
s(g1473
I00
tp2413
g54
((lp2414
tp2415
Rp2416
s(g1435
I01
tp2417
g54
((lp2418
(g1718
I01
tp2419
a(g1450
I00
tp2420
a(g1443
I00
tp2421
a(g1439
I01
tp2422
a(g1438
I00
tp2423
a(g1722
I01
tp2424
a(g1455
I01
tp2425
a(g1454
I01
tp2426
a(g1440
I01
tp2427
a(g1815
I01
tp2428
a(g2187
I00
tp2429
a(g2231
I01
tp2430
a(g1570
I00
tp2431
a(g1447
I01
tp2432
a(g1579
I01
tp2433
a(g1446
I01
tp2434
a(g1801
I01
tp2435
a(g1442
I01
tp2436
a(g1441
I00
tp2437
a(g1817
I01
tp2438
a(g1732
I00
tp2439
a(g1734
I01
tp2440
a(g1791
I00
tp2441
a(g1433
I00
tp2442
a(g1458
I00
tp2443
a(g1473
I00
tp2444
atp2445
Rp2446
s(g2031
I00
tp2447
g54
((lp2448
(g1450
I00
tp2449
a(g1449
I00
tp2450
a(g1839
I00
tp2451
a(g1700
I00
tp2452
a(g1443
I00
tp2453
a(g1467
I00
tp2454
a(g1435
I00
tp2455
a(g1710
I00
tp2456
a(g1473
I00
tp2457
a(g1525
I00
tp2458
a(g1442
I00
tp2459
a(g1718
I00
tp2460
a(g1491
I00
tp2461
a(g1433
I00
tp2462
a(g1482
I00
tp2463
a(g1984
I00
tp2464
a(g1455
I00
tp2465
a(g1691
I00
tp2466
atp2467
Rp2468
s(g1734
I01
tp2469
g54
((lp2470
(g1667
I01
tp2471
a(g1704
I01
tp2472
a(g1443
I00
tp2473
a(g1446
I01
tp2474
a(g1669
I00
tp2475
a(g1441
I00
tp2476
a(g1570
I00
tp2477
a(g1706
I01
tp2478
a(g1447
I01
tp2479
a(g1454
I01
tp2480
a(g1440
I01
tp2481
atp2482
Rp2483
s(g1791
I00
tp2484
g54
((lp2485
tp2486
Rp2487
s(g1585
I00
tp2488
g54
((lp2489
(g1529
I00
tp2490
a(g1837
I00
tp2491
a(g1525
I00
tp2492
a(g1732
I00
tp2493
a(g1456
I00
tp2494
a(g1801
I00
tp2495
a(g1435
I00
tp2496
a(g1710
I00
tp2497
a(g1839
I00
tp2498
a(g1791
I00
tp2499
a(g1442
I00
tp2500
a(g1844
I00
tp2501
a(g1491
I00
tp2502
a(g1531
I00
tp2503
a(g1433
I00
tp2504
a(g1482
I00
tp2505
a(g1599
I00
tp2506
a(g1455
I00
tp2507
a(g1438
I00
tp2508
a(g1589
I00
tp2509
atp2510
Rp2511
s(g1442
I00
tp2512
g54
((lp2513
(g1450
I00
tp2514
a(g1435
I00
tp2515
a(g1491
I00
tp2516
a(g1839
I00
tp2517
a(g1482
I00
tp2518
atp2519
Rp2520
s(g1791
I01
tp2521
g54
((lp2522
(g1450
I00
tp2523
a(g1787
I01
tp2524
a(g1443
I00
tp2525
a(g1435
I00
tp2526
a(g1801
I01
tp2527
a(g1785
I00
tp2528
a(g1491
I00
tp2529
a(g1482
I00
tp2530
a(g1447
I01
tp2531
a(g1839
I00
tp2532
atp2533
Rp2534
s(g1444
I00
tp2535
g54
((lp2536
tp2537
Rp2538
s(g1441
I01
tp2539
g54
((lp2540
(g1806
I00
tp2541
a(g1450
I00
tp2542
a(g1837
I00
tp2543
a(g1839
I00
tp2544
a(g1732
I00
tp2545
a(g1443
I00
tp2546
a(g1467
I00
tp2547
a(g1435
I00
tp2548
a(g1710
I00
tp2549
a(g1455
I00
tp2550
a(g1844
I00
tp2551
a(g1442
I00
tp2552
a(g1431
I00
tp2553
a(g1491
I00
tp2554
a(g1433
I00
tp2555
a(g1482
I00
tp2556
a(g1805
I00
tp2557
a(g1473
I00
tp2558
a(g1438
I00
tp2559
atp2560
Rp2561
s(g1458
I00
tp2562
g54
((lp2563
(g1728
I00
tp2564
a(g1700
I00
tp2565
a(g1570
I00
tp2566
a(g1438
I00
tp2567
atp2568
Rp2569
s(g1455
I00
tp2570
g54
((lp2571
(g1450
I00
tp2572
a(g1491
I00
tp2573
a(g1435
I00
tp2574
a(S'integer'
p2575
I00
tp2576
a(g1839
I00
tp2577
a(g1482
I00
tp2578
atp2579
Rp2580
ssg1173
g402
(g54
tp2581
Rp2582
g1732
g54
((lp2583
g1431
ag2187
ag1585
ag1447
ag1738
ag1435
ag1449
ag1458
ag1438
ag1440
ag1805
ag1441
ag1579
ag2031
ag1808
atp2584
Rp2585
sg1450
g54
((lp2586
g1732
ag1440
ag1482
ag1433
ag2011
ag1447
ag1449
ag1791
ag1438
ag1451
ag1805
ag1455
ag2031
ag1458
ag1431
ag1718
ag1473
ag1435
ag1436
ag1801
ag1441
ag1442
ag1808
ag2187
ag1585
ag1999
ag1452
ag1579
atp2587
Rp2588
sg1482
g54
((lp2589
g1431
ag1437
ag1585
ag1433
ag1791
ag1738
ag1999
ag1440
ag1805
ag1455
ag1441
ag1442
ag1808
ag1473
ag2031
ag1447
atp2590
Rp2591
sg1844
g54
((lp2592
g1431
ag2187
ag1585
ag1433
ag1738
ag1435
ag1449
ag1438
ag1448
ag1440
ag1805
ag1441
ag1808
ag2031
ag1482
ag1447
atp2593
Rp2594
sg1447
g54
((lp2595
g1641
ag1738
ag1482
ag1718
ag1449
ag1791
ag1438
ag1451
ag1984
ag1455
ag1458
ag1807
ag1437
ag1433
ag1435
ag1722
ag1439
ag1478
ag1808
ag2187
ag1446
ag1801
ag1734
ag1579
ag1473
atp2596
Rp2597
sg1837
g54
((lp2598
g1431
ag2187
ag1585
ag1447
ag1738
ag1641
ag1435
ag1639
ag1458
ag1438
ag1451
ag1452
ag1448
ag1440
ag1805
ag1441
ag1456
ag1808
ag2031
ag1436
atp2599
Rp2600
sg1791
g54
((lp2601
g1437
ag2187
ag1585
ag1447
ag1435
ag1738
ag1478
ag1808
ag1482
ag1433
atp2602
Rp2603
sg1438
g54
((lp2604
g1431
ag2187
ag1585
ag1447
ag1639
ag1732
ag1435
ag1449
ag1722
ag1738
ag1451
ag1734
ag1448
ag1440
ag1805
ag1441
ag1579
ag1808
ag2031
ag1458
atp2605
Rp2606
sg1595
g54
((lp2607
g2187
ag1585
ag1447
ag1435
ag1449
ag1722
ag1438
ag1734
ag1808
ag1448
ag1738
ag1579
ag1458
atp2608
Rp2609
sg1454
g54
((lp2610
g1807
ag2187
ag1433
ag1641
ag1435
ag1449
ag1437
ag1438
ag1734
ag1447
ag1439
ag1738
ag1718
ag1455
ag1441
ag1478
ag1808
ag2031
ag1482
ag1473
atp2611
Rp2612
sg1455
g54
((lp2613
g1431
ag2187
ag1585
ag1433
ag1435
ag1437
ag1738
ag1999
ag1440
ag1805
ag1473
ag1441
ag1478
ag1808
ag2031
ag1482
ag1447
atp2614
Rp2615
sg1817
g54
((lp2616
g1807
ag2187
ag1433
ag1641
ag1435
ag1449
ag1437
ag1438
ag1734
ag1439
ag1738
ag1984
ag1455
ag1441
ag1478
ag1808
ag1718
ag1482
ag1473
atp2617
Rp2618
sg1458
g54
((lp2619
g2187
ag1585
ag1447
ag1641
ag1435
ag1449
ag1438
ag1451
ag1738
ag1808
ag1579
atp2620
Rp2621
sg1815
g54
((lp2622
g1718
ag1437
ag1585
ag1433
ag1738
ag1641
ag1435
ag1449
ag1438
ag1734
ag2187
ag1440
ag1805
ag1455
ag1441
ag1478
ag1808
ag2031
ag1482
ag1447
atp2623
Rp2624
sg1432
g54
((lp2625
tp2626
Rp2627
sg1433
g54
((lp2628
g1437
ag1431
ag1585
ag1447
ag1435
ag2187
ag1440
ag1738
ag1805
ag1455
ag1441
ag1478
ag1808
ag2031
ag1482
atp2629
Rp2630
sg1434
g54
((lp2631
g1808
atp2632
Rp2633
sg1435
g54
((lp2634
g1641
ag1738
ag1433
ag1639
ag1447
ag2231
ag1791
ag1438
ag1451
ag1805
ag1455
ag2031
ag1436
ag1431
ag1473
ag1458
ag1448
ag1441
ag1442
ag1808
ag2187
ag1585
ag1999
ag1440
ag1452
ag1456
atp2635
Rp2636
sg1706
g54
((lp2637
g2187
ag1585
ag1447
ag1435
ag1449
ag1438
ag1451
ag1734
ag1738
ag1808
ag1579
atp2638
Rp2639
sg1491
g54
((lp2640
g1431
ag1585
ag1433
ag1791
ag1738
ag1999
ag1440
ag1805
ag1455
ag1441
ag1442
ag1808
ag1473
ag1482
ag2031
ag1447
atp2641
Rp2642
sg1439
g54
((lp2643
g1437
ag2187
ag1473
ag1435
ag1738
ag1805
ag1455
ag1441
ag1478
ag2031
ag1482
ag1447
atp2644
Rp2645
sg1441
g54
((lp2646
g1807
ag2187
ag1433
ag1718
ag1641
ag1435
ag1449
ag1437
ag1438
ag1734
ag1439
ag1738
ag1984
ag1455
ag1478
ag1808
ag1806
ag1482
ag1473
atp2647
Rp2648
sg1486
g54
((lp2649
g1431
ag2187
ag1585
ag1433
ag1738
ag1435
ag1437
ag1791
ag1999
ag1440
ag1805
ag1455
ag1441
ag1808
ag1473
ag1482
ag2031
ag1447
atp2650
Rp2651
sg1443
g54
((lp2652
g1641
ag1738
ag1482
ag1718
ag1447
ag1449
ag1791
ag1438
ag1451
ag1805
ag1455
ag2031
ag1458
ag1807
ag1437
ag1433
ag1434
ag1435
ag1722
ag1801
ag1441
ag1478
ag2187
ag1446
ag1734
ag1579
atp2653
Rp2654
sg1839
g54
((lp2655
g1641
ag1738
ag1433
ag1639
ag1447
ag2231
ag1791
ag1438
ag1451
ag1805
ag1455
ag2031
ag1436
ag1431
ag1473
ag1435
ag1458
ag1448
ag1441
ag1442
ag1808
ag1585
ag1999
ag1440
ag1452
ag1456
atp2656
Rp2657
sg1446
g54
((lp2658
g1641
ag1738
ag1482
ag1718
ag1447
ag1449
ag1791
ag1438
ag1451
ag1455
ag1458
ag1807
ag1437
ag1433
ag1435
ag1722
ag1801
ag1478
ag1808
ag2187
ag1734
ag1579
atp2659
Rp2660
sg1801
g54
((lp2661
g1718
ag2187
ag1585
ag1447
ag1435
ag1449
ag1791
ag1438
ag1451
ag1738
ag1808
ag1482
ag1579
ag1433
atp2662
Rp2663
sg1440
g54
((lp2664
g1437
ag1807
ag1433
ag1641
ag1435
ag1449
ag1438
ag1734
ag2187
ag1738
ag1455
ag1478
ag1718
ag1482
atp2665
Rp2666
sg1710
g54
((lp2667
g1431
ag2187
ag1585
ag1447
ag1435
ag1449
ag1436
ag1438
ag1451
ag1738
ag1805
ag1441
ag1440
ag2031
ag1808
atp2668
Rp2669
sg1456
g54
((lp2670
g2187
ag1585
ag1447
ag1641
ag1435
ag1449
ag1458
ag1438
ag1451
ag1448
ag1738
ag1808
ag1436
atp2671
Rp2672
sg1473
g54
((lp2673
g1437
ag2187
ag1447
ag1435
ag1439
ag1738
ag1805
ag1455
ag1441
ag1478
ag2031
ag1482
atp2674
Rp2675
ssg1269
g402
(g54
tp2676
Rp2677
(g1437
I01
tp2678
(lp2679
I8
aI9
aI10
aI13
aI14
aI16
aI17
aI18
aI21
aI22
aI23
aI24
aI25
aI26
aI27
aI30
aI31
aI33
aI36
as(g1440
I00
tp2680
(lp2681
I3
aI4
aI7
aI8
aI10
aI35
aI36
as(g1431
I00
tp2682
(lp2683
I3
aI4
aI7
aI8
aI10
aI35
aI36
as(g1722
I01
tp2684
(lp2685
I4
aI5
aI6
aI9
aI10
aI12
aI13
aI15
aI17
aI18
aI22
aI26
aI28
aI35
aI36
as(g1438
I01
tp2686
(lp2687
I0
aI34
aI35
as(g1808
I00
tp2688
g54
((lp2689
tp2690
Rp2691
s(g1452
I00
tp2692
(lp2693
I7
aI8
aI10
aI15
aI16
aI21
aI36
as(g1439
I01
tp2694
(lp2695
I3
aI5
aI6
aI23
aI24
aI25
aI26
aI27
as(g1639
I00
tp2696
(lp2697
I15
aI17
aI21
aI22
as(g1482
I01
tp2698
(lp2699
I8
aI10
aI11
aI12
aI13
aI14
aI16
aI18
aI19
aI20
aI21
aI22
aI23
aI24
aI25
aI26
as(g1458
I01
tp2700
(lp2701
I4
aI5
aI6
aI8
aI9
aI11
aI14
aI15
aI16
aI17
aI21
aI25
aI28
aI35
aI36
as(g1473
I01
tp2702
(lp2703
I3
aI5
aI6
aI7
aI8
aI10
aI15
aI16
aI18
aI23
aI24
aI25
aI26
aI27
aI34
aI35
aI36
as(g1984
I01
tp2704
(lp2705
I0
aI3
aI5
aI6
aI23
aI24
aI25
aI26
aI27
as(g1455
I01
tp2706
(lp2707
I8
aI9
aI10
aI13
aI14
aI16
aI17
aI18
aI21
aI22
aI23
aI24
aI25
aI26
aI27
aI35
aI36
as(g1738
I01
tp2708
(lp2709
s(g1807
I01
tp2710
(lp2711
I0
aI8
aI9
aI10
aI13
aI14
aI16
aI17
aI18
aI21
aI22
aI23
aI24
aI25
aI26
aI27
aI34
aI35
aI36
as(g1453
I00
tp2712
(lp2713
I30
aI32
aI33
as(g1434
I00
tp2714
(lp2715
s(g1449
I01
tp2716
(lp2717
I0
aI30
aI31
aI32
aI34
aI35
as(g1808
I01
tp2718
(lp2719
I0
as(g1456
I00
tp2720
(lp2721
I7
aI8
aI9
aI13
aI15
aI16
aI17
aI21
as(g1448
I00
tp2722
(lp2723
I7
aI9
aI13
aI14
aI15
aI17
aI21
aI22
as(g1718
I01
tp2724
(lp2725
I0
aI8
aI10
aI11
aI12
aI13
aI14
aI16
aI18
aI19
aI20
aI21
aI22
aI23
aI24
aI25
aI26
aI34
aI35
as(g1529
I00
tp2726
(lp2727
I7
aI8
aI10
aI15
aI16
aI18
aI36
as(g1607
I00
tp2728
(lp2729
I15
aI17
aI18
aI22
as(g1805
I00
tp2730
(lp2731
I3
aI4
aI7
aI8
aI10
aI35
aI36
as(g1447
I01
tp2732
g54
((lp2733
tp2734
Rp2735
s(g1451
I00
tp2736
(lp2737
I7
aI9
aI10
aI14
aI15
aI17
aI18
aI22
as(g2187
I01
tp2738
(lp2739
I1
aI2
as(g1999
I00
tp2740
(lp2741
I0
aI7
aI8
aI10
aI15
aI16
aI18
aI34
aI35
aI36
as(g2231
I00
tp2742
(lp2743
I15
aI16
aI17
aI21
as(g1446
I01
tp2744
(lp2745
I4
aI5
aI6
aI8
aI9
aI10
aI13
aI14
aI35
aI36
as(g1579
I01
tp2746
(lp2747
I4
aI5
aI6
aI15
aI18
aI22
aI23
aI26
aI27
aI35
as(g1641
I01
tp2748
(lp2749
I0
aI8
aI9
aI11
aI14
aI16
aI17
aI19
aI22
aI24
aI26
aI27
aI28
aI29
aI34
aI35
aI36
as(g1440
I01
tp2750
g54
((lp2751
tp2752
Rp2753
s(g1749
I00
tp2754
(lp2755
I31
aI32
aI33
as(g1801
I01
tp2756
(lp2757
I4
aI5
aI6
aI8
aI10
aI11
aI12
aI13
aI14
aI15
aI16
aI18
aI27
aI35
as(g1451
I01
tp2758
(lp2759
I4
aI5
aI6
aI15
aI16
aI21
aI24
aI25
aI27
aI35
as(g2011
I00
tp2760
(lp2761
I1
aI7
aI8
aI10
aI15
aI16
aI18
aI36
as(g1478
I01
tp2762
(lp2763
I1
aI2
aI8
aI9
aI10
aI13
aI14
aI16
aI17
aI18
aI21
aI22
aI23
aI24
aI25
aI26
aI27
aI36
as(g1447
I00
tp2764
(lp2765
s(g1436
I00
tp2766
(lp2767
I7
aI8
aI13
aI15
aI16
aI21
aI36
as(g1433
I01
tp2768
(lp2769
I0
aI8
aI10
aI11
aI12
aI13
aI14
aI16
aI18
aI19
aI20
aI21
aI22
aI23
aI24
aI25
aI26
as(g1495
I00
tp2770
(lp2771
I3
aI5
as(g1432
I01
tp2772
g54
((lp2773
tp2774
Rp2775
s(g1806
I01
tp2776
(lp2777
I3
aI5
aI6
aI23
aI24
aI25
aI26
aI27
as(g1732
I00
tp2778
(lp2779
I7
aI8
aI10
aI15
aI18
aI22
aI36
as(g1473
I00
tp2780
g54
((lp2781
tp2782
Rp2783
s(g1435
I01
tp2784
(lp2785
I1
aI2
as(g2031
I00
tp2786
(lp2787
I3
aI4
aI7
aI8
aI10
aI35
aI36
as(g1734
I01
tp2788
(lp2789
I0
aI9
aI10
aI12
aI13
aI17
aI18
aI20
aI21
aI23
aI25
aI27
aI28
aI29
aI34
aI35
aI36
as(g1791
I00
tp2790
g54
((lp2791
tp2792
Rp2793
s(g1585
I00
tp2794
(lp2795
s(g1442
I00
tp2796
(lp2797
I7
aI8
aI10
aI15
aI16
aI18
aI35
aI36
as(g1791
I01
tp2798
(lp2799
I4
aI5
aI6
aI8
aI10
aI11
aI12
aI13
aI14
aI15
aI16
aI18
aI27
as(g1444
I00
tp2800
(lp2801
I2
as(g1441
I01
tp2802
(lp2803
I7
aI8
aI10
aI35
aI36
as(g1458
I00
tp2804
(lp2805
I7
aI10
aI14
aI15
aI18
aI22
aI36
as(g1455
I00
tp2806
(lp2807
I7
aI8
aI10
aI15
aI16
aI18
aI34
aI35
aI36
assbsg1402
(dp2808
g1445
I01
sS'finite'
p2809
I01
ssbsbcsympy.core.numbers
NegativeOne
p2810
(I-1
tp2811
Rp2812
(dp2813
btp2814
Rp2815
(dp2816
bg1405
(csympy.core.add
Add
p2817
(g1405
(g8
g1421
tp2818
Rp2819
(dp2820
bg1405
(g5
(S'\\gamma'
p2821
tp2822
Rp2823
(dp2824
g10
g11
(g12
g13
(dp2825
g15
I01
sg16
Nsg17
Nsg18
Nsg19
Nsg20
Nsg21
Nsg22
Nsg23
I01
sg24
I00
sg25
Nsg26
I00
sg27
Nsg28
I01
sg29
I01
sg30
I01
sg31
I00
sg32
I01
sg33
Nsg34
Nsg35
Nsg36
Nsg37
Nsg38
I01
sg39
Nsg40
Nsg41
I01
sg42
Nstp2826
Rp2827
(dp2828
g46
g50
sg1402
(dp2829
g28
I01
sg1404
I01
ssbsbg1421
tp2830
Rp2831
(dp2832
btp2833
Rp2834
(dp2835
bg1
(I-1
I2
tp2836
Rp2837
(dp2838
btp2839
Rp2840
(dp2841
btp2842
Rp2843
(dp2844
b.