csympy.core.mul
Mul
p0
(csympy.core.numbers
Rational
p1
(I4
I3
tp2
Rp3
(dp4
bcsympy.core.power
Pow
p5
(csympy.core.numbers
Integer
p6
(I6
tp7
Rp8
(dp9
bcsympy.core.numbers
Half
p10
(I1
I2
tp11
Rp12
(dp13
btp14
Rp15
(dp16
bg5
(csympy.core.numbers
Pi
p17
(tRp18
(dp19
bg6
(I3
tp20
Rp21
(dp22
btp23
Rp24
(dp25
bg5
(csympy.core.add
Add
p26
(g5
(g18
g6
(I2
tp27
Rp28
(dp29
btp30
Rp31
(dp32
bg0
(g6
(I4
tp33
Rp34
(dp35
bg5
(csympy.core.symbol
Symbol
p36
(S'\\gamma'
p37
tp38
Rp39
(dp40
S'_assumptions'
p41
ccopy_reg
_reconstructor
p42
(csympy.core.assumptions
StdFactKB
p43
c__builtin__
dict
p44
(dp45
S'real'
p46
I01
sS'polar'
p47
NsS'irrational'
p48
NsS'antihermitian'
p49
NsS'composite'
p50
NsS'extended_nonnegative'
p51
NsS'even'
p52
NsS'algebraic'
p53
NsS'hermitian'
p54
I01
sS'infinite'
p55
I00
sS'integer'
p56
NsS'imaginary'
p57
I00
sS'odd'
p58
NsS'nonzero'
p59
I01
sS'extended_real'
p60
I01
sS'commutative'
p61
I01
sS'zero'
p62
I00
sS'extended_nonzero'
p63
I01
sS'positive'
p64
NsS'negative'
p65
NsS'extended_negative'
p66
NsS'nonnegative'
p67
NsS'prime'
p68
NsS'complex'
p69
I01
sS'rational'
p70
NsS'extended_positive'
p71
NsS'finite'
p72
I01
sS'extended_nonpositive'
p73
Nstp74
Rp75
(dp76
S'rules'
p77
g42
(csympy.core.facts
FactRules
p78
c__builtin__
object
p79
Ntp80
Rp81
(dp82
S'beta_rules'
p83
(lp84
(c__builtin__
set
p85
((lp86
(S'algebraic'
p87
I00
tp88
a(S'complex'
p89
I01
tp90
atp91
Rp92
(S'transcendental'
p93
I01
tp94
tp95
a(g85
((lp96
(g52
I00
tp97
a(S'integer'
p98
I01
tp99
atp100
Rp101
(S'odd'
p102
I01
tp103
tp104
a(g85
((lp105
(S'integer'
p106
I01
tp107
a(g58
I00
tp108
atp109
Rp110
(S'even'
p111
I01
tp112
tp113
a(g85
((lp114
(S'infinite'
p115
I00
tp116
a(S'real'
p117
I00
tp118
atp119
Rp120
(S'extended_real'
p121
I00
tp122
tp123
a(g85
((lp124
(g121
I01
tp125
a(g117
I00
tp126
atp127
Rp128
(g115
I01
tp129
tp130
a(g85
((lp131
(g121
I01
tp132
a(g115
I00
tp133
atp134
Rp135
(g117
I01
tp136
tp137
a(g85
((lp138
(S'extended_real'
p139
I01
tp140
a(S'finite'
p141
I01
tp142
atp143
Rp144
(S'real'
p145
I01
tp146
tp147
a(g85
((lp148
(S'zero'
p149
I00
tp150
a(S'extended_negative'
p151
I00
tp152
a(g71
I00
tp153
atp154
Rp155
(S'extended_real'
p156
I00
tp157
tp158
a(g85
((lp159
(g149
I00
tp160
a(g156
I01
tp161
a(g71
I00
tp162
atp163
Rp164
(g151
I01
tp165
tp166
a(g85
((lp167
(g71
I00
tp168
a(g156
I01
tp169
a(g151
I00
tp170
atp171
Rp172
(g149
I01
tp173
tp174
a(g85
((lp175
(g149
I00
tp176
a(g156
I01
tp177
a(g151
I00
tp178
atp179
Rp180
(g71
I01
tp181
tp182
a(g85
((lp183
(S'extended_nonzero'
p184
I01
tp185
a(S'extended_nonpositive'
p186
I01
tp187
atp188
Rp189
(S'extended_negative'
p190
I01
tp191
tp192
a(g85
((lp193
(S'extended_nonzero'
p194
I01
tp195
a(g51
I01
tp196
atp197
Rp198
(S'extended_positive'
p199
I01
tp200
tp201
a(g85
((lp202
(S'extended_positive'
p203
I00
tp204
a(S'extended_real'
p205
I01
tp206
atp207
Rp208
(S'extended_nonpositive'
p209
I01
tp210
tp211
a(g85
((lp212
(S'extended_real'
p213
I01
tp214
a(S'extended_negative'
p215
I00
tp216
atp217
Rp218
(S'extended_nonnegative'
p219
I01
tp220
tp221
a(g85
((lp222
(S'zero'
p223
I00
tp224
a(S'positive'
p225
I00
tp226
a(S'negative'
p227
I00
tp228
atp229
Rp230
(S'real'
p231
I00
tp232
tp233
a(g85
((lp234
(g231
I01
tp235
a(g223
I00
tp236
a(g225
I00
tp237
atp238
Rp239
(g227
I01
tp240
tp241
a(g85
((lp242
(g231
I01
tp243
a(g225
I00
tp244
a(g227
I00
tp245
atp246
Rp247
(g223
I01
tp248
tp249
a(g85
((lp250
(g231
I01
tp251
a(g223
I00
tp252
a(g227
I00
tp253
atp254
Rp255
(g225
I01
tp256
tp257
a(g85
((lp258
(S'nonzero'
p259
I01
tp260
a(S'nonpositive'
p261
I01
tp262
atp263
Rp264
(g65
I01
tp265
tp266
a(g85
((lp267
(S'nonzero'
p268
I01
tp269
a(g67
I01
tp270
atp271
Rp272
(S'positive'
p273
I01
tp274
tp275
a(g85
((lp276
(S'real'
p277
I01
tp278
a(S'positive'
p279
I00
tp280
atp281
Rp282
(S'nonpositive'
p283
I01
tp284
tp285
a(g85
((lp286
(S'real'
p287
I01
tp288
a(S'negative'
p289
I00
tp290
atp291
Rp292
(S'nonnegative'
p293
I01
tp294
tp295
a(g85
((lp296
(S'finite'
p297
I01
tp298
a(S'extended_positive'
p299
I01
tp300
atp301
Rp302
(g64
I01
tp303
tp304
a(g85
((lp305
(g66
I01
tp306
a(S'finite'
p307
I01
tp308
atp309
Rp310
(S'negative'
p311
I01
tp312
tp313
a(g85
((lp314
(S'finite'
p315
I01
tp316
a(g73
I01
tp317
atp318
Rp319
(S'nonpositive'
p320
I01
tp321
tp322
a(g85
((lp323
(S'finite'
p324
I01
tp325
a(S'extended_nonnegative'
p326
I01
tp327
atp328
Rp329
(S'nonnegative'
p330
I01
tp331
tp332
a(g85
((lp333
(g72
I01
tp334
a(g63
I01
tp335
atp336
Rp337
(S'nonzero'
p338
I01
tp339
tp340
a(g85
((lp341
(S'extended_nonnegative'
p342
I01
tp343
a(S'extended_nonpositive'
p344
I01
tp345
atp346
Rp347
(S'zero'
p348
I01
tp349
tp350
a(g85
((lp351
(S'nonpositive'
p352
I01
tp353
a(S'nonnegative'
p354
I01
tp355
atp356
Rp357
(S'zero'
p358
I01
tp359
tp360
a(g85
((lp361
(S'even'
p362
I01
tp363
a(g68
I00
tp364
a(S'positive'
p365
I01
tp366
atp367
Rp368
(S'composite'
p369
I01
tp370
tp371
a(g85
((lp372
(g362
I01
tp373
a(g369
I00
tp374
a(g365
I01
tp375
atp376
Rp377
(g68
I01
tp378
tp379
a(g85
((lp380
(g369
I00
tp381
a(g68
I00
tp382
a(g365
I01
tp383
atp384
Rp385
(g362
I00
tp386
tp387
a(g85
((lp388
(g362
I01
tp389
a(g369
I00
tp390
a(g68
I00
tp391
atp392
Rp393
(g365
I00
tp394
tp395
a(g85
((lp396
(S'real'
p397
I01
tp398
a(g70
I00
tp399
atp400
Rp401
(g48
I01
tp402
tp403
a(g85
((lp404
(S'integer'
p405
I00
tp406
a(S'extended_real'
p407
I01
tp408
atp409
Rp410
(S'noninteger'
p411
I01
tp412
tp413
a(g85
((lp414
(S'zero'
p415
I00
tp416
a(S'extended_real'
p417
I01
tp418
atp419
Rp420
(S'extended_nonzero'
p421
I01
tp422
tp423
asS'defined_facts'
p424
g85
((lp425
g352
ag54
ag58
ag52
ag61
ag64
ag411
ag65
ag66
aS'complex'
p426
ag70
aS'finite'
p427
ag51
aS'real'
p428
ag338
ag48
ag49
ag50
ag73
ag63
ag115
ag56
aS'imaginary'
p429
ag68
ag60
ag53
ag358
ag67
ag71
ag93
atp430
Rp431
sS'full_implications'
p432
ccollections
defaultdict
p433
(g85
tp434
Rp435
(g52
I01
tp436
g85
((lp437
(S'real'
p438
I01
tp439
a(g55
I00
tp440
a(g57
I00
tp441
a(g60
I01
tp442
a(g53
I01
tp443
a(g411
I00
tp444
a(S'finite'
p445
I01
tp446
a(g106
I01
tp447
a(g48
I00
tp448
a(g102
I00
tp449
a(g61
I01
tp450
a(g70
I01
tp451
a(g69
I01
tp452
a(g93
I00
tp453
a(g54
I01
tp454
atp455
Rp456
s(g54
I00
tp457
g85
((lp458
(g62
I00
tp459
a(S'positive'
p460
I00
tp461
a(S'prime'
p462
I00
tp463
a(g352
I00
tp464
a(g50
I00
tp465
a(g330
I00
tp466
a(S'nonzero'
p467
I00
tp468
a(g56
I00
tp469
a(g438
I00
tp470
a(g111
I00
tp471
a(g48
I00
tp472
a(g102
I00
tp473
a(g70
I00
tp474
a(g65
I00
tp475
atp476
Rp477
s(g46
I00
tp478
g85
((lp479
(g223
I00
tp480
a(g225
I00
tp481
a(g467
I00
tp482
a(g283
I00
tp483
a(g50
I00
tp484
a(g293
I00
tp485
a(g56
I00
tp486
a(g462
I00
tp487
a(g111
I00
tp488
a(g48
I00
tp489
a(g102
I00
tp490
a(S'rational'
p491
I00
tp492
a(g227
I00
tp493
atp494
Rp495
s(g342
I01
tp496
g85
((lp497
(g57
I00
tp498
a(g213
I01
tp499
a(g215
I00
tp500
a(g65
I00
tp501
a(g61
I01
tp502
atp503
Rp504
s(g65
I01
tp505
g85
((lp506
(g231
I01
tp507
a(g259
I01
tp508
a(g460
I00
tp509
a(g462
I00
tp510
a(g55
I00
tp511
a(g261
I01
tp512
a(g60
I01
tp513
a(g71
I00
tp514
a(g50
I00
tp515
a(g293
I00
tp516
a(g421
I01
tp517
a(g57
I00
tp518
a(g66
I01
tp519
a(g307
I01
tp520
a(g62
I00
tp521
a(g73
I01
tp522
a(g61
I01
tp523
a(g326
I00
tp524
a(g69
I01
tp525
a(g54
I01
tp526
atp527
Rp528
s(g429
I00
tp529
g85
((lp530
tp531
Rp532
s(g67
I00
tp533
g85
((lp534
(g462
I00
tp535
a(g273
I00
tp536
a(g50
I00
tp537
a(g358
I00
tp538
atp539
Rp540
s(g53
I01
tp541
g85
((lp542
(g61
I01
tp543
a(g55
I00
tp544
a(g69
I01
tp545
a(g93
I00
tp546
a(g445
I01
tp547
atp548
Rp549
s(g259
I00
tp550
g85
((lp551
(g273
I00
tp552
a(g462
I00
tp553
a(g65
I00
tp554
a(g50
I00
tp555
atp556
Rp557
s(g102
I01
tp558
g85
((lp559
(g438
I01
tp560
a(g62
I00
tp561
a(g55
I00
tp562
a(g57
I00
tp563
a(g60
I01
tp564
a(g52
I00
tp565
a(g53
I01
tp566
a(g338
I01
tp567
a(g421
I01
tp568
a(g411
I00
tp569
a(g445
I01
tp570
a(g98
I01
tp571
a(g48
I00
tp572
a(g61
I01
tp573
a(g70
I01
tp574
a(g69
I01
tp575
a(g93
I00
tp576
a(g54
I01
tp577
atp578
Rp579
s(g73
I01
tp580
g85
((lp581
(g460
I00
tp582
a(g50
I00
tp583
a(g203
I00
tp584
a(g205
I01
tp585
a(g462
I00
tp586
a(g57
I00
tp587
a(g61
I01
tp588
atp589
Rp590
s(g70
I01
tp591
g85
((lp592
(S'real'
p593
I01
tp594
a(g55
I00
tp595
a(g57
I00
tp596
a(g60
I01
tp597
a(S'algebraic'
p598
I01
tp599
a(g445
I01
tp600
a(g48
I00
tp601
a(g61
I01
tp602
a(g69
I01
tp603
a(g93
I00
tp604
a(g54
I01
tp605
atp606
Rp607
s(S'complex'
p608
I01
tp609
g85
((lp610
(g61
I01
tp611
a(g55
I00
tp612
a(g445
I01
tp613
atp614
Rp615
s(g93
I01
tp616
g85
((lp617
(g62
I00
tp618
a(g55
I00
tp619
a(g87
I00
tp620
a(g50
I00
tp621
a(g111
I00
tp622
a(g56
I00
tp623
a(g462
I00
tp624
a(g102
I00
tp625
a(g61
I01
tp626
a(g89
I01
tp627
a(g70
I00
tp628
a(g445
I01
tp629
atp630
Rp631
s(g358
I01
tp632
g85
((lp633
(S'even'
p634
I01
tp635
a(g342
I01
tp636
a(g57
I00
tp637
a(g53
I01
tp638
a(g344
I01
tp639
a(g70
I01
tp640
a(g69
I01
tp641
a(g65
I00
tp642
a(g231
I01
tp643
a(g462
I00
tp644
a(g71
I00
tp645
a(g421
I00
tp646
a(g54
I01
tp647
a(g61
I01
tp648
a(g190
I00
tp649
a(g460
I00
tp650
a(g50
I00
tp651
a(g352
I01
tp652
a(g156
I01
tp653
a(S'finite'
p654
I01
tp655
a(g98
I01
tp656
a(g55
I00
tp657
a(g467
I00
tp658
a(g354
I01
tp659
a(g411
I00
tp660
a(g48
I00
tp661
a(g102
I00
tp662
a(g93
I00
tp663
atp664
Rp665
s(g428
I01
tp666
g85
((lp667
(S'complex'
p668
I01
tp669
a(g57
I00
tp670
a(g139
I01
tp671
a(g141
I01
tp672
a(g61
I01
tp673
a(g55
I00
tp674
a(g54
I01
tp675
atp676
Rp677
s(g68
I00
tp678
g85
((lp679
tp680
Rp681
s(g49
I00
tp682
g85
((lp683
(g429
I00
tp684
atp685
Rp686
s(g64
I01
tp687
g85
((lp688
(g231
I01
tp689
a(g62
I00
tp690
a(g55
I00
tp691
a(g283
I00
tp692
a(g299
I01
tp693
a(g57
I00
tp694
a(g60
I01
tp695
a(g421
I01
tp696
a(g268
I01
tp697
a(g67
I01
tp698
a(g297
I01
tp699
a(g65
I00
tp700
a(g342
I01
tp701
a(g61
I01
tp702
a(g73
I00
tp703
a(g69
I01
tp704
a(g54
I01
tp705
a(g190
I00
tp706
atp707
Rp708
s(g429
I01
tp709
g85
((lp710
(g62
I00
tp711
a(g46
I00
tp712
a(g330
I00
tp713
a(g467
I00
tp714
a(g426
I01
tp715
a(g65
I00
tp716
a(g462
I00
tp717
a(g71
I00
tp718
a(g49
I01
tp719
a(g190
I00
tp720
a(g61
I01
tp721
a(g460
I00
tp722
a(g50
I00
tp723
a(g445
I01
tp724
a(g73
I00
tp725
a(g55
I00
tp726
a(g111
I00
tp727
a(g352
I00
tp728
a(g60
I00
tp729
a(g70
I00
tp730
a(g411
I00
tp731
a(g56
I00
tp732
a(g48
I00
tp733
a(g102
I00
tp734
a(g326
I00
tp735
a(g63
I00
tp736
atp737
Rp738
s(g71
I00
tp739
g85
((lp740
(g462
I00
tp741
a(g64
I00
tp742
a(g50
I00
tp743
atp744
Rp745
s(g63
I00
tp746
g85
((lp747
(g460
I00
tp748
a(g338
I00
tp749
a(g199
I00
tp750
a(g50
I00
tp751
a(g462
I00
tp752
a(g190
I00
tp753
a(g65
I00
tp754
atp755
Rp756
s(g54
I01
tp757
g85
((lp758
tp759
Rp760
s(g338
I01
tp761
g85
((lp762
(g46
I01
tp763
a(g62
I00
tp764
a(g55
I00
tp765
a(g57
I00
tp766
a(g60
I01
tp767
a(g63
I01
tp768
a(g72
I01
tp769
a(g61
I01
tp770
a(g69
I01
tp771
a(g54
I01
tp772
atp773
Rp774
s(g149
I00
tp775
g85
((lp776
tp777
Rp778
s(g227
I00
tp779
g85
((lp780
tp781
Rp782
s(g426
I00
tp783
g85
((lp784
(g62
I00
tp785
a(g460
I00
tp786
a(g462
I00
tp787
a(g352
I00
tp788
a(S'imaginary'
p789
I00
tp790
a(g53
I00
tp791
a(g50
I00
tp792
a(g330
I00
tp793
a(g70
I00
tp794
a(g467
I00
tp795
a(g56
I00
tp796
a(g428
I00
tp797
a(g111
I00
tp798
a(g48
I00
tp799
a(g102
I00
tp800
a(g93
I00
tp801
a(g65
I00
tp802
atp803
Rp804
s(g61
I01
tp805
g85
((lp806
tp807
Rp808
s(g66
I00
tp809
g85
((lp810
(g311
I00
tp811
atp812
Rp813
s(S'prime'
p814
I01
tp815
g85
((lp816
(g338
I01
tp817
a(g62
I00
tp818
a(g57
I00
tp819
a(g421
I01
tp820
a(g342
I01
tp821
a(g70
I01
tp822
a(g69
I01
tp823
a(g65
I00
tp824
a(g438
I01
tp825
a(g460
I01
tp826
a(g190
I00
tp827
a(g61
I01
tp828
a(g60
I01
tp829
a(g199
I01
tp830
a(g54
I01
tp831
a(g50
I00
tp832
a(g53
I01
tp833
a(S'integer'
p834
I01
tp835
a(g55
I00
tp836
a(g445
I01
tp837
a(g352
I00
tp838
a(g354
I01
tp839
a(g411
I00
tp840
a(g48
I00
tp841
a(g73
I00
tp842
a(g93
I00
tp843
atp844
Rp845
s(g598
I00
tp846
g85
((lp847
(g62
I00
tp848
a(g462
I00
tp849
a(g50
I00
tp850
a(g56
I00
tp851
a(g111
I00
tp852
a(g102
I00
tp853
a(S'rational'
p854
I00
tp855
atp856
Rp857
s(S'positive'
p858
I00
tp859
g85
((lp860
(g50
I00
tp861
a(g462
I00
tp862
atp863
Rp864
s(g60
I01
tp865
g85
((lp866
(g57
I00
tp867
a(S'commutative'
p868
I01
tp869
atp870
Rp871
s(g199
I01
tp872
g85
((lp873
(g62
I00
tp874
a(g352
I00
tp875
a(g57
I00
tp876
a(g156
I01
tp877
a(g194
I01
tp878
a(g190
I00
tp879
a(g51
I01
tp880
a(g61
I01
tp881
a(g209
I00
tp882
a(g65
I00
tp883
atp884
Rp885
s(g261
I01
tp886
g85
((lp887
(g277
I01
tp888
a(g279
I00
tp889
a(g55
I00
tp890
a(g60
I01
tp891
a(g71
I00
tp892
a(g50
I00
tp893
a(g462
I00
tp894
a(g73
I01
tp895
a(g57
I00
tp896
a(g61
I01
tp897
a(g69
I01
tp898
a(g54
I01
tp899
a(g315
I01
tp900
atp901
Rp902
s(g654
I00
tp903
g85
((lp904
(g62
I00
tp905
a(g64
I00
tp906
a(g462
I00
tp907
a(g320
I00
tp908
a(g57
I00
tp909
a(g87
I00
tp910
a(g50
I00
tp911
a(g330
I00
tp912
a(g93
I00
tp913
a(g145
I00
tp914
a(g56
I00
tp915
a(g338
I00
tp916
a(g111
I00
tp917
a(g48
I00
tp918
a(g102
I00
tp919
a(g608
I00
tp920
a(g70
I00
tp921
a(g311
I00
tp922
atp923
Rp924
s(g369
I00
tp925
g85
((lp926
tp927
Rp928
s(g421
I01
tp929
g85
((lp930
(g61
I01
tp931
a(g417
I01
tp932
a(g415
I00
tp933
a(g57
I00
tp934
atp935
Rp936
s(g66
I01
tp937
g85
((lp938
(g62
I00
tp939
a(g460
I00
tp940
a(g156
I01
tp941
a(g61
I01
tp942
a(g57
I00
tp943
a(g50
I00
tp944
a(g330
I00
tp945
a(g184
I01
tp946
a(g462
I00
tp947
a(g186
I01
tp948
a(g71
I00
tp949
a(g219
I00
tp950
atp951
Rp952
s(g634
I00
tp953
g85
((lp954
(g62
I00
tp955
atp956
Rp957
s(g98
I01
tp958
g85
((lp959
(g438
I01
tp960
a(g55
I00
tp961
a(g57
I00
tp962
a(g60
I01
tp963
a(g53
I01
tp964
a(g411
I00
tp965
a(g445
I01
tp966
a(g48
I00
tp967
a(g61
I01
tp968
a(S'rational'
p969
I01
tp970
a(g69
I01
tp971
a(g93
I00
tp972
a(g54
I01
tp973
atp974
Rp975
s(g61
I00
tp976
g85
((lp977
(g62
I00
tp978
a(g46
I00
tp979
a(g57
I00
tp980
a(g330
I00
tp981
a(g65
I00
tp982
a(g462
I00
tp983
a(g71
I00
tp984
a(g87
I00
tp985
a(g63
I00
tp986
a(g190
I00
tp987
a(S'complex'
p988
I00
tp989
a(g460
I00
tp990
a(g50
I00
tp991
a(g467
I00
tp992
a(g326
I00
tp993
a(g111
I00
tp994
a(g352
I00
tp995
a(S'extended_real'
p996
I00
tp997
a(g70
I00
tp998
a(g411
I00
tp999
a(g56
I00
tp1000
a(g48
I00
tp1001
a(g102
I00
tp1002
a(g73
I00
tp1003
a(g93
I00
tp1004
atp1005
Rp1006
s(g51
I00
tp1007
g85
((lp1008
(g348
I00
tp1009
a(g460
I00
tp1010
a(g462
I00
tp1011
a(g199
I00
tp1012
a(g50
I00
tp1013
a(g330
I00
tp1014
atp1015
Rp1016
s(g48
I01
tp1017
g85
((lp1018
(g397
I01
tp1019
a(g62
I00
tp1020
a(g60
I01
tp1021
a(g462
I00
tp1022
a(g55
I00
tp1023
a(g57
I00
tp1024
a(g50
I00
tp1025
a(g111
I00
tp1026
a(g421
I01
tp1027
a(g338
I01
tp1028
a(g56
I00
tp1029
a(g411
I01
tp1030
a(g102
I00
tp1031
a(g61
I01
tp1032
a(g69
I01
tp1033
a(g70
I00
tp1034
a(g54
I01
tp1035
a(g445
I01
tp1036
atp1037
Rp1038
s(g115
I00
tp1039
g85
((lp1040
tp1041
Rp1042
s(g47
I01
tp1043
g85
((lp1044
tp1045
Rp1046
s(g427
I01
tp1047
g85
((lp1048
(g55
I00
tp1049
atp1050
Rp1051
s(g352
I00
tp1052
g85
((lp1053
(g358
I00
tp1054
a(g65
I00
tp1055
atp1056
Rp1057
s(g93
I00
tp1058
g85
((lp1059
tp1060
Rp1061
s(g50
I01
tp1062
g85
((lp1063
(g338
I01
tp1064
a(g62
I00
tp1065
a(g57
I00
tp1066
a(g53
I01
tp1067
a(g342
I01
tp1068
a(g70
I01
tp1069
a(g69
I01
tp1070
a(g65
I00
tp1071
a(g438
I01
tp1072
a(g814
I00
tp1073
a(g858
I01
tp1074
a(g190
I00
tp1075
a(g61
I01
tp1076
a(g199
I01
tp1077
a(g54
I01
tp1078
a(g60
I01
tp1079
a(g421
I01
tp1080
a(g56
I01
tp1081
a(g55
I00
tp1082
a(g445
I01
tp1083
a(g352
I00
tp1084
a(g354
I01
tp1085
a(g411
I00
tp1086
a(g48
I00
tp1087
a(g73
I00
tp1088
a(g93
I00
tp1089
atp1090
Rp1091
s(g354
I01
tp1092
g85
((lp1093
(g287
I01
tp1094
a(g55
I00
tp1095
a(g57
I00
tp1096
a(g60
I01
tp1097
a(g289
I00
tp1098
a(g324
I01
tp1099
a(g190
I00
tp1100
a(g326
I01
tp1101
a(g61
I01
tp1102
a(g69
I01
tp1103
a(g54
I01
tp1104
atp1105
Rp1106
s(g411
I00
tp1107
g85
((lp1108
tp1109
Rp1110
s(g205
I00
tp1111
g85
((lp1112
(g149
I00
tp1113
a(g460
I00
tp1114
a(g462
I00
tp1115
a(g352
I00
tp1116
a(g145
I00
tp1117
a(g71
I00
tp1118
a(g421
I00
tp1119
a(g50
I00
tp1120
a(g330
I00
tp1121
a(g411
I00
tp1122
a(g56
I00
tp1123
a(g467
I00
tp1124
a(g111
I00
tp1125
a(g151
I00
tp1126
a(g48
I00
tp1127
a(g102
I00
tp1128
a(g219
I00
tp1129
a(g70
I00
tp1130
a(g65
I00
tp1131
a(g209
I00
tp1132
atp1133
Rp1134
s(g56
I00
tp1135
g85
((lp1136
(g62
I00
tp1137
a(g50
I00
tp1138
a(g462
I00
tp1139
a(g111
I00
tp1140
a(g102
I00
tp1141
atp1142
Rp1143
s(g411
I01
tp1144
g85
((lp1145
(g62
I00
tp1146
a(g407
I01
tp1147
a(g57
I00
tp1148
a(g50
I00
tp1149
a(g111
I00
tp1150
a(g421
I01
tp1151
a(g405
I00
tp1152
a(g462
I00
tp1153
a(g102
I00
tp1154
a(g61
I01
tp1155
atp1156
Rp1157
s(g48
I00
tp1158
g85
((lp1159
tp1160
Rp1161
s(g58
I00
tp1162
g85
((lp1163
tp1164
Rp1165
s(g55
I01
tp1166
g85
((lp1167
(g427
I00
tp1168
a(g62
I00
tp1169
a(g460
I00
tp1170
a(g462
I00
tp1171
a(g352
I00
tp1172
a(g57
I00
tp1173
a(g87
I00
tp1174
a(g50
I00
tp1175
a(g330
I00
tp1176
a(g70
I00
tp1177
a(g467
I00
tp1178
a(g56
I00
tp1179
a(g46
I00
tp1180
a(g111
I00
tp1181
a(g48
I00
tp1182
a(g102
I00
tp1183
a(g426
I00
tp1184
a(g93
I00
tp1185
a(g65
I00
tp1186
atp1187
Rp1188
s(g73
I00
tp1189
g85
((lp1190
(g348
I00
tp1191
a(g320
I00
tp1192
a(g190
I00
tp1193
a(g65
I00
tp1194
atp1195
Rp1196
s(g70
I00
tp1197
g85
((lp1198
(g62
I00
tp1199
a(g111
I00
tp1200
a(g50
I00
tp1201
a(S'integer'
p1202
I00
tp1203
a(g462
I00
tp1204
a(g102
I00
tp1205
atp1206
Rp1207
ssS'prereq'
p1208
g433
(g85
tp1209
Rp1210
g352
g85
((lp1211
g46
ag814
ag205
ag61
ag50
ag64
ag73
ag65
ag358
ag426
ag55
ag199
ag54
ag654
ag429
atp1212
Rp1213
sg62
g85
((lp1214
g46
ag634
ag93
ag352
ag50
ag73
ag598
ag54
ag55
ag56
ag429
ag102
ag48
ag338
ag205
ag61
ag421
ag64
ag411
ag65
ag66
ag67
ag814
ag426
ag70
ag199
ag654
ag51
atp1215
Rp1216
sg102
g85
((lp1217
g46
ag93
ag598
ag358
ag55
ag56
ag429
ag48
ag52
ag205
ag61
ag411
ag54
ag426
ag70
ag654
atp1218
Rp1219
sg48
g85
((lp1220
g52
ag46
ag205
ag61
ag50
ag814
ag54
ag358
ag426
ag70
ag55
ag98
ag429
ag654
ag102
atp1221
Rp1222
sg467
g85
((lp1223
g46
ag48
ag50
ag63
ag358
ag55
ag54
ag102
ag429
ag814
ag205
ag61
ag64
ag65
ag426
ag654
atp1224
Rp1225
sg47
g85
((lp1226
tp1227
Rp1228
sg61
g85
((lp1229
g428
ag338
ag48
ag261
ag50
ag73
ag421
ag358
ag98
ag429
ag354
ag102
ag52
ag60
ag53
ag64
ag411
ag65
ag66
ag70
ag814
ag608
ag93
ag199
ag342
atp1230
Rp1231
sg460
g85
((lp1232
g46
ag814
ag261
ag50
ag73
ag63
ag358
ag55
ag54
ag429
ag259
ag205
ag61
ag65
ag66
ag67
ag426
ag71
ag654
ag51
atp1233
Rp1234
sg411
g85
((lp1235
g52
ag814
ag205
ag61
ag50
ag358
ag98
ag429
ag102
ag48
atp1236
Rp1237
sg65
g85
((lp1238
g46
ag814
ag352
ag50
ag342
ag63
ag358
ag55
ag429
ag259
ag205
ag61
ag64
ag54
ag66
ag354
ag426
ag199
ag654
ag73
atp1239
Rp1240
sg215
g85
((lp1241
g814
ag205
ag61
ag50
ag64
ag342
ag65
ag354
ag63
ag358
ag199
ag429
ag73
atp1242
Rp1243
sg69
g85
((lp1244
g428
ag814
ag48
ag261
ag50
ag53
ag358
ag338
ag55
ag98
ag429
ag102
ag61
ag52
ag93
ag64
ag65
ag354
ag70
ag654
atp1245
Rp1246
sg70
g85
((lp1247
g46
ag814
ag48
ag50
ag598
ag358
ag55
ag98
ag429
ag102
ag52
ag205
ag61
ag54
ag426
ag93
ag654
atp1248
Rp1249
sg445
g85
((lp1250
g428
ag814
ag70
ag261
ag50
ag53
ag358
ag55
ag98
ag429
ag102
ag48
ag52
ag64
ag65
ag354
ag608
ag93
ag338
atp1251
Rp1252
sg73
g85
((lp1253
g814
ag205
ag61
ag261
ag50
ag64
ag65
ag66
ag358
ag429
ag199
atp1254
Rp1255
sg438
g85
((lp1256
g338
ag48
ag261
ag50
ag358
ag55
ag98
ag54
ag102
ag429
ag52
ag205
ag61
ag64
ag65
ag354
ag814
ag426
ag70
ag654
atp1257
Rp1258
sg111
g85
((lp1259
g46
ag93
ag598
ag358
ag55
ag56
ag429
ag102
ag48
ag205
ag61
ag411
ag54
ag426
ag70
ag654
atp1260
Rp1261
sg93
g85
((lp1262
g52
ag814
ag61
ag50
ag53
ag358
ag426
ag70
ag55
ag98
ag654
ag102
atp1263
Rp1264
sg49
g85
((lp1265
g429
atp1266
Rp1267
sg50
g85
((lp1268
g46
ag814
ag54
ag93
ag261
ag51
ag598
ag358
ag55
ag56
ag429
ag48
ag259
ag205
ag61
ag63
ag858
ag411
ag65
ag66
ag67
ag426
ag70
ag71
ag654
ag73
atp1269
Rp1270
sg326
g85
((lp1271
g814
ag205
ag61
ag50
ag64
ag65
ag66
ag354
ag358
ag429
ag199
atp1272
Rp1273
sg53
g85
((lp1274
g52
ag814
ag93
ag50
ag358
ag426
ag70
ag55
ag98
ag654
ag102
ag61
atp1275
Rp1276
sg55
g85
((lp1277
g428
ag814
ag70
ag261
ag50
ag53
ag358
ag338
ag98
ag429
ag102
ag48
ag52
ag64
ag65
ag354
ag608
ag93
ag427
atp1278
Rp1279
sg106
g85
((lp1280
g46
ag814
ag93
ag50
ag598
ag358
ag55
ag429
ag102
ag48
ag52
ag205
ag61
ag411
ag54
ag426
ag70
ag654
atp1281
Rp1282
sg57
g85
((lp1283
g428
ag338
ag48
ag49
ag261
ag50
ag73
ag421
ag358
ag55
ag98
ag102
ag52
ag60
ag61
ag64
ag411
ag65
ag66
ag354
ag814
ag426
ag70
ag199
ag654
ag342
atp1284
Rp1285
sg462
g85
((lp1286
g46
ag54
ag93
ag261
ag50
ag51
ag598
ag358
ag55
ag56
ag429
ag48
ag259
ag205
ag61
ag63
ag858
ag411
ag65
ag66
ag67
ag426
ag70
ag71
ag654
ag73
atp1287
Rp1288
sg60
g85
((lp1289
g428
ag338
ag48
ag261
ag50
ag73
ag421
ag358
ag98
ag429
ag102
ag52
ag61
ag64
ag411
ag65
ag66
ag354
ag814
ag70
ag199
ag342
atp1290
Rp1291
sg421
g85
((lp1292
g338
ag814
ag205
ag61
ag50
ag64
ag411
ag65
ag66
ag358
ag429
ag102
ag199
ag48
atp1293
Rp1294
sg54
g85
((lp1295
g52
ag428
ag48
ag261
ag50
ag64
ag65
ag354
ag814
ag358
ag70
ag98
ag338
ag102
atp1296
Rp1297
sg330
g85
((lp1298
g46
ag814
ag205
ag61
ag50
ag64
ag51
ag65
ag66
ag358
ag426
ag55
ag54
ag654
ag429
atp1299
Rp1300
sg71
g85
((lp1301
g814
ag205
ag61
ag261
ag50
ag64
ag73
ag65
ag66
ag63
ag358
ag429
ag51
atp1302
Rp1303
ssS'beta_triggers'
p1304
g433
(g85
tp1305
Rp1306
(g52
I01
tp1307
(lp1308
I8
aI9
aI10
aI13
aI14
aI16
aI17
aI18
aI21
aI22
aI23
aI24
aI25
aI26
aI27
aI30
aI31
aI33
aI36
as(g54
I00
tp1309
(lp1310
I3
aI4
aI7
aI8
aI10
aI35
aI36
as(g46
I00
tp1311
(lp1312
I3
aI4
aI7
aI8
aI10
aI35
aI36
as(g342
I01
tp1313
(lp1314
I4
aI5
aI6
aI9
aI10
aI12
aI13
aI15
aI17
aI18
aI22
aI26
aI28
aI35
aI36
as(g65
I01
tp1315
(lp1316
I0
aI34
aI35
as(g429
I00
tp1317
g85
((lp1318
tp1319
Rp1320
s(g67
I00
tp1321
(lp1322
I7
aI8
aI10
aI15
aI16
aI21
aI36
as(g53
I01
tp1323
(lp1324
I3
aI5
aI6
aI23
aI24
aI25
aI26
aI27
as(g259
I00
tp1325
(lp1326
I15
aI17
aI21
aI22
as(g102
I01
tp1327
(lp1328
I8
aI10
aI11
aI12
aI13
aI14
aI16
aI18
aI19
aI20
aI21
aI22
aI23
aI24
aI25
aI26
as(g73
I01
tp1329
(lp1330
I4
aI5
aI6
aI8
aI9
aI11
aI14
aI15
aI16
aI17
aI21
aI25
aI28
aI35
aI36
as(g70
I01
tp1331
(lp1332
I8
aI9
aI10
aI13
aI14
aI16
aI17
aI18
aI21
aI22
aI23
aI24
aI25
aI26
aI27
aI35
aI36
as(g608
I01
tp1333
(lp1334
I0
aI3
aI5
aI6
aI23
aI24
aI25
aI26
aI27
as(g93
I01
tp1335
(lp1336
I3
aI5
aI6
aI7
aI8
aI10
aI15
aI16
aI18
aI23
aI24
aI25
aI26
aI27
aI34
aI35
aI36
as(g358
I01
tp1337
(lp1338
s(g428
I01
tp1339
(lp1340
I0
aI8
aI9
aI10
aI13
aI14
aI16
aI17
aI18
aI21
aI22
aI23
aI24
aI25
aI26
aI27
aI34
aI35
aI36
as(g68
I00
tp1341
(lp1342
I30
aI32
aI33
as(g49
I00
tp1343
(lp1344
s(g64
I01
tp1345
(lp1346
I0
aI30
aI31
aI32
aI34
aI35
as(g429
I01
tp1347
(lp1348
I0
as(g71
I00
tp1349
(lp1350
I7
aI8
aI9
aI13
aI15
aI16
aI17
aI21
as(g63
I00
tp1351
(lp1352
I7
aI9
aI13
aI14
aI15
aI17
aI21
aI22
as(g54
I01
tp1353
g85
((lp1354
tp1355
Rp1356
s(g338
I01
tp1357
(lp1358
I0
aI8
aI10
aI11
aI12
aI13
aI14
aI16
aI18
aI19
aI20
aI21
aI22
aI23
aI24
aI25
aI26
aI34
aI35
as(g149
I00
tp1359
(lp1360
I7
aI8
aI10
aI15
aI16
aI18
aI36
as(g227
I00
tp1361
(lp1362
I15
aI17
aI18
aI22
as(g426
I00
tp1363
(lp1364
I3
aI4
aI7
aI8
aI10
aI35
aI36
as(g61
I01
tp1365
g85
((lp1366
tp1367
Rp1368
s(g66
I00
tp1369
(lp1370
I7
aI9
aI10
aI14
aI15
aI17
aI18
aI22
as(g814
I01
tp1371
(lp1372
I1
aI2
as(g598
I00
tp1373
(lp1374
I0
aI7
aI8
aI10
aI15
aI16
aI18
aI34
aI35
aI36
as(g858
I00
tp1375
(lp1376
I15
aI16
aI17
aI21
as(g60
I01
tp1377
(lp1378
I4
aI5
aI6
aI8
aI9
aI10
aI13
aI14
aI35
aI36
as(g199
I01
tp1379
(lp1380
I4
aI5
aI6
aI15
aI18
aI22
aI23
aI26
aI27
aI35
as(g261
I01
tp1381
(lp1382
I0
aI8
aI9
aI11
aI14
aI16
aI17
aI19
aI22
aI24
aI26
aI27
aI28
aI29
aI34
aI35
aI36
as(g654
I00
tp1383
(lp1384
I3
aI4
aI7
aI8
aI10
aI35
aI36
as(g369
I00
tp1385
(lp1386
I31
aI32
aI33
as(g421
I01
tp1387
(lp1388
I4
aI5
aI6
aI8
aI10
aI11
aI12
aI13
aI14
aI15
aI16
aI18
aI27
aI35
as(g66
I01
tp1389
(lp1390
I4
aI5
aI6
aI15
aI16
aI21
aI24
aI25
aI27
aI35
as(g634
I00
tp1391
(lp1392
I1
aI7
aI8
aI10
aI15
aI16
aI18
aI36
as(g98
I01
tp1393
(lp1394
I1
aI2
aI8
aI9
aI10
aI13
aI14
aI16
aI17
aI18
aI21
aI22
aI23
aI24
aI25
aI26
aI27
aI36
as(g61
I00
tp1395
(lp1396
s(g51
I00
tp1397
(lp1398
I7
aI8
aI13
aI15
aI16
aI21
aI36
as(g48
I01
tp1399
(lp1400
I0
aI8
aI10
aI11
aI12
aI13
aI14
aI16
aI18
aI19
aI20
aI21
aI22
aI23
aI24
aI25
aI26
as(g115
I00
tp1401
(lp1402
I3
aI5
as(g47
I01
tp1403
g85
((lp1404
tp1405
Rp1406
s(g427
I01
tp1407
(lp1408
I3
aI5
aI6
aI23
aI24
aI25
aI26
aI27
as(g352
I00
tp1409
(lp1410
I7
aI8
aI10
aI15
aI18
aI22
aI36
as(g93
I00
tp1411
g85
((lp1412
tp1413
Rp1414
s(g50
I01
tp1415
(lp1416
I1
aI2
as(g354
I01
tp1417
(lp1418
I0
aI9
aI10
aI12
aI13
aI17
aI18
aI20
aI21
aI23
aI25
aI27
aI28
aI29
aI34
aI35
aI36
as(g411
I00
tp1419
g85
((lp1420
tp1421
Rp1422
s(g205
I00
tp1423
(lp1424
s(g56
I00
tp1425
(lp1426
I7
aI8
aI10
aI15
aI16
aI18
aI35
aI36
as(g411
I01
tp1427
(lp1428
I4
aI5
aI6
aI8
aI10
aI11
aI12
aI13
aI14
aI15
aI16
aI18
aI27
as(g48
I00
tp1429
g85
((lp1430
tp1431
Rp1432
s(g58
I00
tp1433
(lp1434
I2
as(g55
I01
tp1435
(lp1436
I7
aI8
aI10
aI35
aI36
as(g73
I00
tp1437
(lp1438
I7
aI10
aI14
aI15
aI18
aI22
aI36
as(g70
I00
tp1439
(lp1440
I7
aI8
aI10
aI15
aI16
aI18
aI34
aI35
aI36
assbsS'_generator'
p1441
(dp1442
g59
I01
sS'finite'
p1443
I01
ssbsbg28
tp1444
Rp1445
(dp1446
btp1447
Rp1448
(dp1449
btp1450
Rp1451
(dp1452
bg1
(I-1
I2
tp1453
Rp1454
(dp1455
btp1456
Rp1457
(dp1458
bg5
(g26
(g5
(g36
(S'\\alpha'
p1459
tp1460
Rp1461
(dp1462
g41
g42
(g43
g44
(dp1463
g46
I01
sg47
Nsg48
Nsg49
Nsg50
Nsg51
Nsg52
Nsg53
Nsg54
I01
sg55
I00
sg56
Nsg57
I00
sg58
Nsg59
I01
sg60
I01
sg61
I01
sg62
I00
sg63
I01
sg64
Nsg65
Nsg66
Nsg67
Nsg68
Nsg69
I01
sg70
Nsg71
Nsg72
I01
sg73
Nstp1464
Rp1465
(dp1466
g77
g81
sg1441
(dp1467
g59
I01
sg1443
I01
ssbsbg28
tp1468
Rp1469
(dp1470
bg1445
tp1471
Rp1472
(dp1473
bg1454
tp1474
Rp1475
(dp1476
btp1477
Rp1478
(dp1479
b.