csympy.core.mul
Mul
p0
(csympy.core.numbers
Integer
p1
(I-2
tp2
Rp3
(dp4
bcsympy.core.power
Pow
p5
(g1
(I6
tp6
Rp7
(dp8
bcsympy.core.numbers
Half
p9
(I1
I2
tp10
Rp11
(dp12
btp13
Rp14
(dp15
bg5
(csympy.core.numbers
Pi
p16
(tRp17
(dp18
bg1
(I3
tp19
Rp20
(dp21
btp22
Rp23
(dp24
bg5
(csympy.core.symbol
Symbol
p25
(S'\\alpha'
p26
tp27
Rp28
(dp29
S'_assumptions'
p30
ccopy_reg
_reconstructor
p31
(csympy.core.assumptions
StdFactKB
p32
c__builtin__
dict
p33
(dp34
S'real'
p35
I01
sS'polar'
p36
NsS'irrational'
p37
NsS'antihermitian'
p38
NsS'composite'
p39
NsS'extended_nonnegative'
p40
NsS'even'
p41
NsS'algebraic'
p42
NsS'hermitian'
p43
I01
sS'infinite'
p44
I00
sS'integer'
p45
NsS'imaginary'
p46
I00
sS'odd'
p47
NsS'nonzero'
p48
I01
sS'extended_real'
p49
I01
sS'commutative'
p50
I01
sS'zero'
p51
I00
sS'extended_nonzero'
p52
I01
sS'positive'
p53
NsS'negative'
p54
NsS'extended_negative'
p55
NsS'nonnegative'
p56
NsS'prime'
p57
NsS'complex'
p58
I01
sS'rational'
p59
NsS'extended_positive'
p60
NsS'finite'
p61
I01
sS'extended_nonpositive'
p62
Nstp63
Rp64
(dp65
S'rules'
p66
g31
(csympy.core.facts
FactRules
p67
c__builtin__
object
p68
Ntp69
Rp70
(dp71
S'beta_rules'
p72
(lp73
(c__builtin__
set
p74
((lp75
(S'algebraic'
p76
I00
tp77
a(S'complex'
p78
I01
tp79
atp80
Rp81
(S'transcendental'
p82
I01
tp83
tp84
a(g74
((lp85
(g41
I00
tp86
a(S'integer'
p87
I01
tp88
atp89
Rp90
(S'odd'
p91
I01
tp92
tp93
a(g74
((lp94
(S'integer'
p95
I01
tp96
a(g47
I00
tp97
atp98
Rp99
(S'even'
p100
I01
tp101
tp102
a(g74
((lp103
(S'infinite'
p104
I00
tp105
a(S'real'
p106
I00
tp107
atp108
Rp109
(S'extended_real'
p110
I00
tp111
tp112
a(g74
((lp113
(g110
I01
tp114
a(g106
I00
tp115
atp116
Rp117
(g104
I01
tp118
tp119
a(g74
((lp120
(g110
I01
tp121
a(g104
I00
tp122
atp123
Rp124
(g106
I01
tp125
tp126
a(g74
((lp127
(S'extended_real'
p128
I01
tp129
a(S'finite'
p130
I01
tp131
atp132
Rp133
(S'real'
p134
I01
tp135
tp136
a(g74
((lp137
(S'zero'
p138
I00
tp139
a(S'extended_negative'
p140
I00
tp141
a(g60
I00
tp142
atp143
Rp144
(S'extended_real'
p145
I00
tp146
tp147
a(g74
((lp148
(g138
I00
tp149
a(g145
I01
tp150
a(g60
I00
tp151
atp152
Rp153
(g140
I01
tp154
tp155
a(g74
((lp156
(g60
I00
tp157
a(g145
I01
tp158
a(g140
I00
tp159
atp160
Rp161
(g138
I01
tp162
tp163
a(g74
((lp164
(g138
I00
tp165
a(g145
I01
tp166
a(g140
I00
tp167
atp168
Rp169
(g60
I01
tp170
tp171
a(g74
((lp172
(S'extended_nonzero'
p173
I01
tp174
a(S'extended_nonpositive'
p175
I01
tp176
atp177
Rp178
(S'extended_negative'
p179
I01
tp180
tp181
a(g74
((lp182
(S'extended_nonzero'
p183
I01
tp184
a(g40
I01
tp185
atp186
Rp187
(S'extended_positive'
p188
I01
tp189
tp190
a(g74
((lp191
(S'extended_positive'
p192
I00
tp193
a(S'extended_real'
p194
I01
tp195
atp196
Rp197
(S'extended_nonpositive'
p198
I01
tp199
tp200
a(g74
((lp201
(S'extended_real'
p202
I01
tp203
a(S'extended_negative'
p204
I00
tp205
atp206
Rp207
(S'extended_nonnegative'
p208
I01
tp209
tp210
a(g74
((lp211
(S'zero'
p212
I00
tp213
a(S'positive'
p214
I00
tp215
a(S'negative'
p216
I00
tp217
atp218
Rp219
(S'real'
p220
I00
tp221
tp222
a(g74
((lp223
(g220
I01
tp224
a(g212
I00
tp225
a(g214
I00
tp226
atp227
Rp228
(g216
I01
tp229
tp230
a(g74
((lp231
(g220
I01
tp232
a(g214
I00
tp233
a(g216
I00
tp234
atp235
Rp236
(g212
I01
tp237
tp238
a(g74
((lp239
(g220
I01
tp240
a(g212
I00
tp241
a(g216
I00
tp242
atp243
Rp244
(g214
I01
tp245
tp246
a(g74
((lp247
(S'nonzero'
p248
I01
tp249
a(S'nonpositive'
p250
I01
tp251
atp252
Rp253
(g54
I01
tp254
tp255
a(g74
((lp256
(S'nonzero'
p257
I01
tp258
a(g56
I01
tp259
atp260
Rp261
(S'positive'
p262
I01
tp263
tp264
a(g74
((lp265
(S'real'
p266
I01
tp267
a(S'positive'
p268
I00
tp269
atp270
Rp271
(S'nonpositive'
p272
I01
tp273
tp274
a(g74
((lp275
(S'real'
p276
I01
tp277
a(S'negative'
p278
I00
tp279
atp280
Rp281
(S'nonnegative'
p282
I01
tp283
tp284
a(g74
((lp285
(S'finite'
p286
I01
tp287
a(S'extended_positive'
p288
I01
tp289
atp290
Rp291
(g53
I01
tp292
tp293
a(g74
((lp294
(g55
I01
tp295
a(S'finite'
p296
I01
tp297
atp298
Rp299
(S'negative'
p300
I01
tp301
tp302
a(g74
((lp303
(S'finite'
p304
I01
tp305
a(g62
I01
tp306
atp307
Rp308
(S'nonpositive'
p309
I01
tp310
tp311
a(g74
((lp312
(S'finite'
p313
I01
tp314
a(S'extended_nonnegative'
p315
I01
tp316
atp317
Rp318
(S'nonnegative'
p319
I01
tp320
tp321
a(g74
((lp322
(g61
I01
tp323
a(g52
I01
tp324
atp325
Rp326
(S'nonzero'
p327
I01
tp328
tp329
a(g74
((lp330
(S'extended_nonnegative'
p331
I01
tp332
a(S'extended_nonpositive'
p333
I01
tp334
atp335
Rp336
(S'zero'
p337
I01
tp338
tp339
a(g74
((lp340
(S'nonpositive'
p341
I01
tp342
a(S'nonnegative'
p343
I01
tp344
atp345
Rp346
(S'zero'
p347
I01
tp348
tp349
a(g74
((lp350
(S'even'
p351
I01
tp352
a(g57
I00
tp353
a(S'positive'
p354
I01
tp355
atp356
Rp357
(S'composite'
p358
I01
tp359
tp360
a(g74
((lp361
(g351
I01
tp362
a(g358
I00
tp363
a(g354
I01
tp364
atp365
Rp366
(g57
I01
tp367
tp368
a(g74
((lp369
(g358
I00
tp370
a(g57
I00
tp371
a(g354
I01
tp372
atp373
Rp374
(g351
I00
tp375
tp376
a(g74
((lp377
(g351
I01
tp378
a(g358
I00
tp379
a(g57
I00
tp380
atp381
Rp382
(g354
I00
tp383
tp384
a(g74
((lp385
(S'real'
p386
I01
tp387
a(g59
I00
tp388
atp389
Rp390
(g37
I01
tp391
tp392
a(g74
((lp393
(S'integer'
p394
I00
tp395
a(S'extended_real'
p396
I01
tp397
atp398
Rp399
(S'noninteger'
p400
I01
tp401
tp402
a(g74
((lp403
(S'zero'
p404
I00
tp405
a(S'extended_real'
p406
I01
tp407
atp408
Rp409
(S'extended_nonzero'
p410
I01
tp411
tp412
asS'defined_facts'
p413
g74
((lp414
g341
ag43
ag47
ag41
ag50
ag53
ag400
ag54
ag55
aS'complex'
p415
ag59
aS'finite'
p416
ag40
aS'real'
p417
ag327
ag37
ag38
ag39
ag62
ag52
ag104
ag45
aS'imaginary'
p418
ag57
ag49
ag42
ag347
ag56
ag60
ag82
atp419
Rp420
sS'full_implications'
p421
ccollections
defaultdict
p422
(g74
tp423
Rp424
(g41
I01
tp425
g74
((lp426
(S'real'
p427
I01
tp428
a(g44
I00
tp429
a(g46
I00
tp430
a(g49
I01
tp431
a(g42
I01
tp432
a(g400
I00
tp433
a(S'finite'
p434
I01
tp435
a(g95
I01
tp436
a(g37
I00
tp437
a(g91
I00
tp438
a(g50
I01
tp439
a(g59
I01
tp440
a(g58
I01
tp441
a(g82
I00
tp442
a(g43
I01
tp443
atp444
Rp445
s(g43
I00
tp446
g74
((lp447
(g51
I00
tp448
a(S'positive'
p449
I00
tp450
a(S'prime'
p451
I00
tp452
a(g341
I00
tp453
a(g39
I00
tp454
a(g319
I00
tp455
a(S'nonzero'
p456
I00
tp457
a(g45
I00
tp458
a(g427
I00
tp459
a(g100
I00
tp460
a(g37
I00
tp461
a(g91
I00
tp462
a(g59
I00
tp463
a(g54
I00
tp464
atp465
Rp466
s(g35
I00
tp467
g74
((lp468
(g212
I00
tp469
a(g214
I00
tp470
a(g456
I00
tp471
a(g272
I00
tp472
a(g39
I00
tp473
a(g282
I00
tp474
a(g45
I00
tp475
a(g451
I00
tp476
a(g100
I00
tp477
a(g37
I00
tp478
a(g91
I00
tp479
a(S'rational'
p480
I00
tp481
a(g216
I00
tp482
atp483
Rp484
s(g331
I01
tp485
g74
((lp486
(g46
I00
tp487
a(g202
I01
tp488
a(g204
I00
tp489
a(g54
I00
tp490
a(g50
I01
tp491
atp492
Rp493
s(g54
I01
tp494
g74
((lp495
(g220
I01
tp496
a(g248
I01
tp497
a(g449
I00
tp498
a(g451
I00
tp499
a(g44
I00
tp500
a(g250
I01
tp501
a(g49
I01
tp502
a(g60
I00
tp503
a(g39
I00
tp504
a(g282
I00
tp505
a(g410
I01
tp506
a(g46
I00
tp507
a(g55
I01
tp508
a(g296
I01
tp509
a(g51
I00
tp510
a(g62
I01
tp511
a(g50
I01
tp512
a(g315
I00
tp513
a(g58
I01
tp514
a(g43
I01
tp515
atp516
Rp517
s(g418
I00
tp518
g74
((lp519
tp520
Rp521
s(g56
I00
tp522
g74
((lp523
(g451
I00
tp524
a(g262
I00
tp525
a(g39
I00
tp526
a(g347
I00
tp527
atp528
Rp529
s(g42
I01
tp530
g74
((lp531
(g50
I01
tp532
a(g44
I00
tp533
a(g58
I01
tp534
a(g82
I00
tp535
a(g434
I01
tp536
atp537
Rp538
s(g248
I00
tp539
g74
((lp540
(g262
I00
tp541
a(g451
I00
tp542
a(g54
I00
tp543
a(g39
I00
tp544
atp545
Rp546
s(g91
I01
tp547
g74
((lp548
(g427
I01
tp549
a(g51
I00
tp550
a(g44
I00
tp551
a(g46
I00
tp552
a(g49
I01
tp553
a(g41
I00
tp554
a(g42
I01
tp555
a(g327
I01
tp556
a(g410
I01
tp557
a(g400
I00
tp558
a(g434
I01
tp559
a(g87
I01
tp560
a(g37
I00
tp561
a(g50
I01
tp562
a(g59
I01
tp563
a(g58
I01
tp564
a(g82
I00
tp565
a(g43
I01
tp566
atp567
Rp568
s(g62
I01
tp569
g74
((lp570
(g449
I00
tp571
a(g39
I00
tp572
a(g192
I00
tp573
a(g194
I01
tp574
a(g451
I00
tp575
a(g46
I00
tp576
a(g50
I01
tp577
atp578
Rp579
s(g59
I01
tp580
g74
((lp581
(S'real'
p582
I01
tp583
a(g44
I00
tp584
a(g46
I00
tp585
a(g49
I01
tp586
a(S'algebraic'
p587
I01
tp588
a(g434
I01
tp589
a(g37
I00
tp590
a(g50
I01
tp591
a(g58
I01
tp592
a(g82
I00
tp593
a(g43
I01
tp594
atp595
Rp596
s(S'complex'
p597
I01
tp598
g74
((lp599
(g50
I01
tp600
a(g44
I00
tp601
a(g434
I01
tp602
atp603
Rp604
s(g82
I01
tp605
g74
((lp606
(g51
I00
tp607
a(g44
I00
tp608
a(g76
I00
tp609
a(g39
I00
tp610
a(g100
I00
tp611
a(g45
I00
tp612
a(g451
I00
tp613
a(g91
I00
tp614
a(g50
I01
tp615
a(g78
I01
tp616
a(g59
I00
tp617
a(g434
I01
tp618
atp619
Rp620
s(g347
I01
tp621
g74
((lp622
(S'even'
p623
I01
tp624
a(g331
I01
tp625
a(g46
I00
tp626
a(g42
I01
tp627
a(g333
I01
tp628
a(g59
I01
tp629
a(g58
I01
tp630
a(g54
I00
tp631
a(g220
I01
tp632
a(g451
I00
tp633
a(g60
I00
tp634
a(g410
I00
tp635
a(g43
I01
tp636
a(g50
I01
tp637
a(g179
I00
tp638
a(g449
I00
tp639
a(g39
I00
tp640
a(g341
I01
tp641
a(g145
I01
tp642
a(S'finite'
p643
I01
tp644
a(g87
I01
tp645
a(g44
I00
tp646
a(g456
I00
tp647
a(g343
I01
tp648
a(g400
I00
tp649
a(g37
I00
tp650
a(g91
I00
tp651
a(g82
I00
tp652
atp653
Rp654
s(g417
I01
tp655
g74
((lp656
(S'complex'
p657
I01
tp658
a(g46
I00
tp659
a(g128
I01
tp660
a(g130
I01
tp661
a(g50
I01
tp662
a(g44
I00
tp663
a(g43
I01
tp664
atp665
Rp666
s(g57
I00
tp667
g74
((lp668
tp669
Rp670
s(g38
I00
tp671
g74
((lp672
(g418
I00
tp673
atp674
Rp675
s(g53
I01
tp676
g74
((lp677
(g220
I01
tp678
a(g51
I00
tp679
a(g44
I00
tp680
a(g272
I00
tp681
a(g288
I01
tp682
a(g46
I00
tp683
a(g49
I01
tp684
a(g410
I01
tp685
a(g257
I01
tp686
a(g56
I01
tp687
a(g286
I01
tp688
a(g54
I00
tp689
a(g331
I01
tp690
a(g50
I01
tp691
a(g62
I00
tp692
a(g58
I01
tp693
a(g43
I01
tp694
a(g179
I00
tp695
atp696
Rp697
s(g418
I01
tp698
g74
((lp699
(g51
I00
tp700
a(g35
I00
tp701
a(g319
I00
tp702
a(g456
I00
tp703
a(g415
I01
tp704
a(g54
I00
tp705
a(g451
I00
tp706
a(g60
I00
tp707
a(g38
I01
tp708
a(g179
I00
tp709
a(g50
I01
tp710
a(g449
I00
tp711
a(g39
I00
tp712
a(g434
I01
tp713
a(g62
I00
tp714
a(g44
I00
tp715
a(g100
I00
tp716
a(g341
I00
tp717
a(g49
I00
tp718
a(g59
I00
tp719
a(g400
I00
tp720
a(g45
I00
tp721
a(g37
I00
tp722
a(g91
I00
tp723
a(g315
I00
tp724
a(g52
I00
tp725
atp726
Rp727
s(g60
I00
tp728
g74
((lp729
(g451
I00
tp730
a(g53
I00
tp731
a(g39
I00
tp732
atp733
Rp734
s(g52
I00
tp735
g74
((lp736
(g449
I00
tp737
a(g327
I00
tp738
a(g188
I00
tp739
a(g39
I00
tp740
a(g451
I00
tp741
a(g179
I00
tp742
a(g54
I00
tp743
atp744
Rp745
s(g43
I01
tp746
g74
((lp747
tp748
Rp749
s(g327
I01
tp750
g74
((lp751
(g35
I01
tp752
a(g51
I00
tp753
a(g44
I00
tp754
a(g46
I00
tp755
a(g49
I01
tp756
a(g52
I01
tp757
a(g61
I01
tp758
a(g50
I01
tp759
a(g58
I01
tp760
a(g43
I01
tp761
atp762
Rp763
s(g138
I00
tp764
g74
((lp765
tp766
Rp767
s(g216
I00
tp768
g74
((lp769
tp770
Rp771
s(g415
I00
tp772
g74
((lp773
(g51
I00
tp774
a(g449
I00
tp775
a(g451
I00
tp776
a(g341
I00
tp777
a(S'imaginary'
p778
I00
tp779
a(g42
I00
tp780
a(g39
I00
tp781
a(g319
I00
tp782
a(g59
I00
tp783
a(g456
I00
tp784
a(g45
I00
tp785
a(g417
I00
tp786
a(g100
I00
tp787
a(g37
I00
tp788
a(g91
I00
tp789
a(g82
I00
tp790
a(g54
I00
tp791
atp792
Rp793
s(g50
I01
tp794
g74
((lp795
tp796
Rp797
s(g55
I00
tp798
g74
((lp799
(g300
I00
tp800
atp801
Rp802
s(S'prime'
p803
I01
tp804
g74
((lp805
(g327
I01
tp806
a(g51
I00
tp807
a(g46
I00
tp808
a(g410
I01
tp809
a(g331
I01
tp810
a(g59
I01
tp811
a(g58
I01
tp812
a(g54
I00
tp813
a(g427
I01
tp814
a(g449
I01
tp815
a(g179
I00
tp816
a(g50
I01
tp817
a(g49
I01
tp818
a(g188
I01
tp819
a(g43
I01
tp820
a(g39
I00
tp821
a(g42
I01
tp822
a(S'integer'
p823
I01
tp824
a(g44
I00
tp825
a(g434
I01
tp826
a(g341
I00
tp827
a(g343
I01
tp828
a(g400
I00
tp829
a(g37
I00
tp830
a(g62
I00
tp831
a(g82
I00
tp832
atp833
Rp834
s(g587
I00
tp835
g74
((lp836
(g51
I00
tp837
a(g451
I00
tp838
a(g39
I00
tp839
a(g45
I00
tp840
a(g100
I00
tp841
a(g91
I00
tp842
a(S'rational'
p843
I00
tp844
atp845
Rp846
s(S'positive'
p847
I00
tp848
g74
((lp849
(g39
I00
tp850
a(g451
I00
tp851
atp852
Rp853
s(g49
I01
tp854
g74
((lp855
(g46
I00
tp856
a(S'commutative'
p857
I01
tp858
atp859
Rp860
s(g188
I01
tp861
g74
((lp862
(g51
I00
tp863
a(g341
I00
tp864
a(g46
I00
tp865
a(g145
I01
tp866
a(g183
I01
tp867
a(g179
I00
tp868
a(g40
I01
tp869
a(g50
I01
tp870
a(g198
I00
tp871
a(g54
I00
tp872
atp873
Rp874
s(g250
I01
tp875
g74
((lp876
(g266
I01
tp877
a(g268
I00
tp878
a(g44
I00
tp879
a(g49
I01
tp880
a(g60
I00
tp881
a(g39
I00
tp882
a(g451
I00
tp883
a(g62
I01
tp884
a(g46
I00
tp885
a(g50
I01
tp886
a(g58
I01
tp887
a(g43
I01
tp888
a(g304
I01
tp889
atp890
Rp891
s(g643
I00
tp892
g74
((lp893
(g51
I00
tp894
a(g53
I00
tp895
a(g451
I00
tp896
a(g309
I00
tp897
a(g46
I00
tp898
a(g76
I00
tp899
a(g39
I00
tp900
a(g319
I00
tp901
a(g82
I00
tp902
a(g134
I00
tp903
a(g45
I00
tp904
a(g327
I00
tp905
a(g100
I00
tp906
a(g37
I00
tp907
a(g91
I00
tp908
a(g597
I00
tp909
a(g59
I00
tp910
a(g300
I00
tp911
atp912
Rp913
s(g358
I00
tp914
g74
((lp915
tp916
Rp917
s(g410
I01
tp918
g74
((lp919
(g50
I01
tp920
a(g406
I01
tp921
a(g404
I00
tp922
a(g46
I00
tp923
atp924
Rp925
s(g55
I01
tp926
g74
((lp927
(g51
I00
tp928
a(g449
I00
tp929
a(g145
I01
tp930
a(g50
I01
tp931
a(g46
I00
tp932
a(g39
I00
tp933
a(g319
I00
tp934
a(g173
I01
tp935
a(g451
I00
tp936
a(g175
I01
tp937
a(g60
I00
tp938
a(g208
I00
tp939
atp940
Rp941
s(g623
I00
tp942
g74
((lp943
(g51
I00
tp944
atp945
Rp946
s(g87
I01
tp947
g74
((lp948
(g427
I01
tp949
a(g44
I00
tp950
a(g46
I00
tp951
a(g49
I01
tp952
a(g42
I01
tp953
a(g400
I00
tp954
a(g434
I01
tp955
a(g37
I00
tp956
a(g50
I01
tp957
a(S'rational'
p958
I01
tp959
a(g58
I01
tp960
a(g82
I00
tp961
a(g43
I01
tp962
atp963
Rp964
s(g50
I00
tp965
g74
((lp966
(g51
I00
tp967
a(g35
I00
tp968
a(g46
I00
tp969
a(g319
I00
tp970
a(g54
I00
tp971
a(g451
I00
tp972
a(g60
I00
tp973
a(g76
I00
tp974
a(g52
I00
tp975
a(g179
I00
tp976
a(S'complex'
p977
I00
tp978
a(g449
I00
tp979
a(g39
I00
tp980
a(g456
I00
tp981
a(g315
I00
tp982
a(g100
I00
tp983
a(g341
I00
tp984
a(S'extended_real'
p985
I00
tp986
a(g59
I00
tp987
a(g400
I00
tp988
a(g45
I00
tp989
a(g37
I00
tp990
a(g91
I00
tp991
a(g62
I00
tp992
a(g82
I00
tp993
atp994
Rp995
s(g40
I00
tp996
g74
((lp997
(g337
I00
tp998
a(g449
I00
tp999
a(g451
I00
tp1000
a(g188
I00
tp1001
a(g39
I00
tp1002
a(g319
I00
tp1003
atp1004
Rp1005
s(g37
I01
tp1006
g74
((lp1007
(g386
I01
tp1008
a(g51
I00
tp1009
a(g49
I01
tp1010
a(g451
I00
tp1011
a(g44
I00
tp1012
a(g46
I00
tp1013
a(g39
I00
tp1014
a(g100
I00
tp1015
a(g410
I01
tp1016
a(g327
I01
tp1017
a(g45
I00
tp1018
a(g400
I01
tp1019
a(g91
I00
tp1020
a(g50
I01
tp1021
a(g58
I01
tp1022
a(g59
I00
tp1023
a(g43
I01
tp1024
a(g434
I01
tp1025
atp1026
Rp1027
s(g104
I00
tp1028
g74
((lp1029
tp1030
Rp1031
s(g36
I01
tp1032
g74
((lp1033
tp1034
Rp1035
s(g416
I01
tp1036
g74
((lp1037
(g44
I00
tp1038
atp1039
Rp1040
s(g341
I00
tp1041
g74
((lp1042
(g347
I00
tp1043
a(g54
I00
tp1044
atp1045
Rp1046
s(g82
I00
tp1047
g74
((lp1048
tp1049
Rp1050
s(g39
I01
tp1051
g74
((lp1052
(g327
I01
tp1053
a(g51
I00
tp1054
a(g46
I00
tp1055
a(g42
I01
tp1056
a(g331
I01
tp1057
a(g59
I01
tp1058
a(g58
I01
tp1059
a(g54
I00
tp1060
a(g427
I01
tp1061
a(g803
I00
tp1062
a(g847
I01
tp1063
a(g179
I00
tp1064
a(g50
I01
tp1065
a(g188
I01
tp1066
a(g43
I01
tp1067
a(g49
I01
tp1068
a(g410
I01
tp1069
a(g45
I01
tp1070
a(g44
I00
tp1071
a(g434
I01
tp1072
a(g341
I00
tp1073
a(g343
I01
tp1074
a(g400
I00
tp1075
a(g37
I00
tp1076
a(g62
I00
tp1077
a(g82
I00
tp1078
atp1079
Rp1080
s(g343
I01
tp1081
g74
((lp1082
(g276
I01
tp1083
a(g44
I00
tp1084
a(g46
I00
tp1085
a(g49
I01
tp1086
a(g278
I00
tp1087
a(g313
I01
tp1088
a(g179
I00
tp1089
a(g315
I01
tp1090
a(g50
I01
tp1091
a(g58
I01
tp1092
a(g43
I01
tp1093
atp1094
Rp1095
s(g400
I00
tp1096
g74
((lp1097
tp1098
Rp1099
s(g194
I00
tp1100
g74
((lp1101
(g138
I00
tp1102
a(g449
I00
tp1103
a(g451
I00
tp1104
a(g341
I00
tp1105
a(g134
I00
tp1106
a(g60
I00
tp1107
a(g410
I00
tp1108
a(g39
I00
tp1109
a(g319
I00
tp1110
a(g400
I00
tp1111
a(g45
I00
tp1112
a(g456
I00
tp1113
a(g100
I00
tp1114
a(g140
I00
tp1115
a(g37
I00
tp1116
a(g91
I00
tp1117
a(g208
I00
tp1118
a(g59
I00
tp1119
a(g54
I00
tp1120
a(g198
I00
tp1121
atp1122
Rp1123
s(g45
I00
tp1124
g74
((lp1125
(g51
I00
tp1126
a(g39
I00
tp1127
a(g451
I00
tp1128
a(g100
I00
tp1129
a(g91
I00
tp1130
atp1131
Rp1132
s(g400
I01
tp1133
g74
((lp1134
(g51
I00
tp1135
a(g396
I01
tp1136
a(g46
I00
tp1137
a(g39
I00
tp1138
a(g100
I00
tp1139
a(g410
I01
tp1140
a(g394
I00
tp1141
a(g451
I00
tp1142
a(g91
I00
tp1143
a(g50
I01
tp1144
atp1145
Rp1146
s(g37
I00
tp1147
g74
((lp1148
tp1149
Rp1150
s(g47
I00
tp1151
g74
((lp1152
tp1153
Rp1154
s(g44
I01
tp1155
g74
((lp1156
(g416
I00
tp1157
a(g51
I00
tp1158
a(g449
I00
tp1159
a(g451
I00
tp1160
a(g341
I00
tp1161
a(g46
I00
tp1162
a(g76
I00
tp1163
a(g39
I00
tp1164
a(g319
I00
tp1165
a(g59
I00
tp1166
a(g456
I00
tp1167
a(g45
I00
tp1168
a(g35
I00
tp1169
a(g100
I00
tp1170
a(g37
I00
tp1171
a(g91
I00
tp1172
a(g415
I00
tp1173
a(g82
I00
tp1174
a(g54
I00
tp1175
atp1176
Rp1177
s(g62
I00
tp1178
g74
((lp1179
(g337
I00
tp1180
a(g309
I00
tp1181
a(g179
I00
tp1182
a(g54
I00
tp1183
atp1184
Rp1185
s(g59
I00
tp1186
g74
((lp1187
(g51
I00
tp1188
a(g100
I00
tp1189
a(g39
I00
tp1190
a(S'integer'
p1191
I00
tp1192
a(g451
I00
tp1193
a(g91
I00
tp1194
atp1195
Rp1196
ssS'prereq'
p1197
g422
(g74
tp1198
Rp1199
g341
g74
((lp1200
g35
ag803
ag194
ag50
ag39
ag53
ag62
ag54
ag347
ag415
ag44
ag188
ag43
ag643
ag418
atp1201
Rp1202
sg51
g74
((lp1203
g35
ag623
ag82
ag341
ag39
ag62
ag587
ag43
ag44
ag45
ag418
ag91
ag37
ag327
ag194
ag50
ag410
ag53
ag400
ag54
ag55
ag56
ag803
ag415
ag59
ag188
ag643
ag40
atp1204
Rp1205
sg91
g74
((lp1206
g35
ag82
ag587
ag347
ag44
ag45
ag418
ag37
ag41
ag194
ag50
ag400
ag43
ag415
ag59
ag643
atp1207
Rp1208
sg37
g74
((lp1209
g41
ag35
ag194
ag50
ag39
ag803
ag43
ag347
ag415
ag59
ag44
ag87
ag418
ag643
ag91
atp1210
Rp1211
sg456
g74
((lp1212
g35
ag37
ag39
ag52
ag347
ag44
ag43
ag91
ag418
ag803
ag194
ag50
ag53
ag54
ag415
ag643
atp1213
Rp1214
sg36
g74
((lp1215
tp1216
Rp1217
sg50
g74
((lp1218
g417
ag327
ag37
ag250
ag39
ag62
ag410
ag347
ag87
ag418
ag343
ag91
ag41
ag49
ag42
ag53
ag400
ag54
ag55
ag59
ag803
ag597
ag82
ag188
ag331
atp1219
Rp1220
sg449
g74
((lp1221
g35
ag803
ag250
ag39
ag62
ag52
ag347
ag44
ag43
ag418
ag248
ag194
ag50
ag54
ag55
ag56
ag415
ag60
ag643
ag40
atp1222
Rp1223
sg400
g74
((lp1224
g41
ag803
ag194
ag50
ag39
ag347
ag87
ag418
ag91
ag37
atp1225
Rp1226
sg54
g74
((lp1227
g35
ag803
ag341
ag39
ag331
ag52
ag347
ag44
ag418
ag248
ag194
ag50
ag53
ag43
ag55
ag343
ag415
ag188
ag643
ag62
atp1228
Rp1229
sg204
g74
((lp1230
g803
ag194
ag50
ag39
ag53
ag331
ag54
ag343
ag52
ag347
ag188
ag418
ag62
atp1231
Rp1232
sg58
g74
((lp1233
g417
ag803
ag37
ag250
ag39
ag42
ag347
ag327
ag44
ag87
ag418
ag91
ag50
ag41
ag82
ag53
ag54
ag343
ag59
ag643
atp1234
Rp1235
sg59
g74
((lp1236
g35
ag803
ag37
ag39
ag587
ag347
ag44
ag87
ag418
ag91
ag41
ag194
ag50
ag43
ag415
ag82
ag643
atp1237
Rp1238
sg434
g74
((lp1239
g417
ag803
ag59
ag250
ag39
ag42
ag347
ag44
ag87
ag418
ag91
ag37
ag41
ag53
ag54
ag343
ag597
ag82
ag327
atp1240
Rp1241
sg62
g74
((lp1242
g803
ag194
ag50
ag250
ag39
ag53
ag54
ag55
ag347
ag418
ag188
atp1243
Rp1244
sg427
g74
((lp1245
g327
ag37
ag250
ag39
ag347
ag44
ag87
ag43
ag91
ag418
ag41
ag194
ag50
ag53
ag54
ag343
ag803
ag415
ag59
ag643
atp1246
Rp1247
sg100
g74
((lp1248
g35
ag82
ag587
ag347
ag44
ag45
ag418
ag91
ag37
ag194
ag50
ag400
ag43
ag415
ag59
ag643
atp1249
Rp1250
sg82
g74
((lp1251
g41
ag803
ag50
ag39
ag42
ag347
ag415
ag59
ag44
ag87
ag643
ag91
atp1252
Rp1253
sg38
g74
((lp1254
g418
atp1255
Rp1256
sg39
g74
((lp1257
g35
ag803
ag43
ag82
ag250
ag40
ag587
ag347
ag44
ag45
ag418
ag37
ag248
ag194
ag50
ag52
ag847
ag400
ag54
ag55
ag56
ag415
ag59
ag60
ag643
ag62
atp1258
Rp1259
sg315
g74
((lp1260
g803
ag194
ag50
ag39
ag53
ag54
ag55
ag343
ag347
ag418
ag188
atp1261
Rp1262
sg42
g74
((lp1263
g41
ag803
ag82
ag39
ag347
ag415
ag59
ag44
ag87
ag643
ag91
ag50
atp1264
Rp1265
sg44
g74
((lp1266
g417
ag803
ag59
ag250
ag39
ag42
ag347
ag327
ag87
ag418
ag91
ag37
ag41
ag53
ag54
ag343
ag597
ag82
ag416
atp1267
Rp1268
sg95
g74
((lp1269
g35
ag803
ag82
ag39
ag587
ag347
ag44
ag418
ag91
ag37
ag41
ag194
ag50
ag400
ag43
ag415
ag59
ag643
atp1270
Rp1271
sg46
g74
((lp1272
g417
ag327
ag37
ag38
ag250
ag39
ag62
ag410
ag347
ag44
ag87
ag91
ag41
ag49
ag50
ag53
ag400
ag54
ag55
ag343
ag803
ag415
ag59
ag188
ag643
ag331
atp1273
Rp1274
sg451
g74
((lp1275
g35
ag43
ag82
ag250
ag39
ag40
ag587
ag347
ag44
ag45
ag418
ag37
ag248
ag194
ag50
ag52
ag847
ag400
ag54
ag55
ag56
ag415
ag59
ag60
ag643
ag62
atp1276
Rp1277
sg49
g74
((lp1278
g417
ag327
ag37
ag250
ag39
ag62
ag410
ag347
ag87
ag418
ag91
ag41
ag50
ag53
ag400
ag54
ag55
ag343
ag803
ag59
ag188
ag331
atp1279
Rp1280
sg410
g74
((lp1281
g327
ag803
ag194
ag50
ag39
ag53
ag400
ag54
ag55
ag347
ag418
ag91
ag188
ag37
atp1282
Rp1283
sg43
g74
((lp1284
g41
ag417
ag37
ag250
ag39
ag53
ag54
ag343
ag803
ag347
ag59
ag87
ag327
ag91
atp1285
Rp1286
sg319
g74
((lp1287
g35
ag803
ag194
ag50
ag39
ag53
ag40
ag54
ag55
ag347
ag415
ag44
ag43
ag643
ag418
atp1288
Rp1289
sg60
g74
((lp1290
g803
ag194
ag50
ag250
ag39
ag53
ag62
ag54
ag55
ag52
ag347
ag418
ag40
atp1291
Rp1292
ssS'beta_triggers'
p1293
g422
(g74
tp1294
Rp1295
(g41
I01
tp1296
(lp1297
I8
aI9
aI10
aI13
aI14
aI16
aI17
aI18
aI21
aI22
aI23
aI24
aI25
aI26
aI27
aI30
aI31
aI33
aI36
as(g43
I00
tp1298
(lp1299
I3
aI4
aI7
aI8
aI10
aI35
aI36
as(g35
I00
tp1300
(lp1301
I3
aI4
aI7
aI8
aI10
aI35
aI36
as(g331
I01
tp1302
(lp1303
I4
aI5
aI6
aI9
aI10
aI12
aI13
aI15
aI17
aI18
aI22
aI26
aI28
aI35
aI36
as(g54
I01
tp1304
(lp1305
I0
aI34
aI35
as(g418
I00
tp1306
g74
((lp1307
tp1308
Rp1309
s(g56
I00
tp1310
(lp1311
I7
aI8
aI10
aI15
aI16
aI21
aI36
as(g42
I01
tp1312
(lp1313
I3
aI5
aI6
aI23
aI24
aI25
aI26
aI27
as(g248
I00
tp1314
(lp1315
I15
aI17
aI21
aI22
as(g91
I01
tp1316
(lp1317
I8
aI10
aI11
aI12
aI13
aI14
aI16
aI18
aI19
aI20
aI21
aI22
aI23
aI24
aI25
aI26
as(g62
I01
tp1318
(lp1319
I4
aI5
aI6
aI8
aI9
aI11
aI14
aI15
aI16
aI17
aI21
aI25
aI28
aI35
aI36
as(g59
I01
tp1320
(lp1321
I8
aI9
aI10
aI13
aI14
aI16
aI17
aI18
aI21
aI22
aI23
aI24
aI25
aI26
aI27
aI35
aI36
as(g597
I01
tp1322
(lp1323
I0
aI3
aI5
aI6
aI23
aI24
aI25
aI26
aI27
as(g82
I01
tp1324
(lp1325
I3
aI5
aI6
aI7
aI8
aI10
aI15
aI16
aI18
aI23
aI24
aI25
aI26
aI27
aI34
aI35
aI36
as(g347
I01
tp1326
(lp1327
s(g417
I01
tp1328
(lp1329
I0
aI8
aI9
aI10
aI13
aI14
aI16
aI17
aI18
aI21
aI22
aI23
aI24
aI25
aI26
aI27
aI34
aI35
aI36
as(g57
I00
tp1330
(lp1331
I30
aI32
aI33
as(g38
I00
tp1332
(lp1333
s(g53
I01
tp1334
(lp1335
I0
aI30
aI31
aI32
aI34
aI35
as(g418
I01
tp1336
(lp1337
I0
as(g60
I00
tp1338
(lp1339
I7
aI8
aI9
aI13
aI15
aI16
aI17
aI21
as(g52
I00
tp1340
(lp1341
I7
aI9
aI13
aI14
aI15
aI17
aI21
aI22
as(g43
I01
tp1342
g74
((lp1343
tp1344
Rp1345
s(g327
I01
tp1346
(lp1347
I0
aI8
aI10
aI11
aI12
aI13
aI14
aI16
aI18
aI19
aI20
aI21
aI22
aI23
aI24
aI25
aI26
aI34
aI35
as(g138
I00
tp1348
(lp1349
I7
aI8
aI10
aI15
aI16
aI18
aI36
as(g216
I00
tp1350
(lp1351
I15
aI17
aI18
aI22
as(g415
I00
tp1352
(lp1353
I3
aI4
aI7
aI8
aI10
aI35
aI36
as(g50
I01
tp1354
g74
((lp1355
tp1356
Rp1357
s(g55
I00
tp1358
(lp1359
I7
aI9
aI10
aI14
aI15
aI17
aI18
aI22
as(g803
I01
tp1360
(lp1361
I1
aI2
as(g587
I00
tp1362
(lp1363
I0
aI7
aI8
aI10
aI15
aI16
aI18
aI34
aI35
aI36
as(g847
I00
tp1364
(lp1365
I15
aI16
aI17
aI21
as(g49
I01
tp1366
(lp1367
I4
aI5
aI6
aI8
aI9
aI10
aI13
aI14
aI35
aI36
as(g188
I01
tp1368
(lp1369
I4
aI5
aI6
aI15
aI18
aI22
aI23
aI26
aI27
aI35
as(g250
I01
tp1370
(lp1371
I0
aI8
aI9
aI11
aI14
aI16
aI17
aI19
aI22
aI24
aI26
aI27
aI28
aI29
aI34
aI35
aI36
as(g643
I00
tp1372
(lp1373
I3
aI4
aI7
aI8
aI10
aI35
aI36
as(g358
I00
tp1374
(lp1375
I31
aI32
aI33
as(g410
I01
tp1376
(lp1377
I4
aI5
aI6
aI8
aI10
aI11
aI12
aI13
aI14
aI15
aI16
aI18
aI27
aI35
as(g55
I01
tp1378
(lp1379
I4
aI5
aI6
aI15
aI16
aI21
aI24
aI25
aI27
aI35
as(g623
I00
tp1380
(lp1381
I1
aI7
aI8
aI10
aI15
aI16
aI18
aI36
as(g87
I01
tp1382
(lp1383
I1
aI2
aI8
aI9
aI10
aI13
aI14
aI16
aI17
aI18
aI21
aI22
aI23
aI24
aI25
aI26
aI27
aI36
as(g50
I00
tp1384
(lp1385
s(g40
I00
tp1386
(lp1387
I7
aI8
aI13
aI15
aI16
aI21
aI36
as(g37
I01
tp1388
(lp1389
I0
aI8
aI10
aI11
aI12
aI13
aI14
aI16
aI18
aI19
aI20
aI21
aI22
aI23
aI24
aI25
aI26
as(g104
I00
tp1390
(lp1391
I3
aI5
as(g36
I01
tp1392
g74
((lp1393
tp1394
Rp1395
s(g416
I01
tp1396
(lp1397
I3
aI5
aI6
aI23
aI24
aI25
aI26
aI27
as(g341
I00
tp1398
(lp1399
I7
aI8
aI10
aI15
aI18
aI22
aI36
as(g82
I00
tp1400
g74
((lp1401
tp1402
Rp1403
s(g39
I01
tp1404
(lp1405
I1
aI2
as(g343
I01
tp1406
(lp1407
I0
aI9
aI10
aI12
aI13
aI17
aI18
aI20
aI21
aI23
aI25
aI27
aI28
aI29
aI34
aI35
aI36
as(g400
I00
tp1408
g74
((lp1409
tp1410
Rp1411
s(g194
I00
tp1412
(lp1413
s(g45
I00
tp1414
(lp1415
I7
aI8
aI10
aI15
aI16
aI18
aI35
aI36
as(g400
I01
tp1416
(lp1417
I4
aI5
aI6
aI8
aI10
aI11
aI12
aI13
aI14
aI15
aI16
aI18
aI27
as(g37
I00
tp1418
g74
((lp1419
tp1420
Rp1421
s(g47
I00
tp1422
(lp1423
I2
as(g44
I01
tp1424
(lp1425
I7
aI8
aI10
aI35
aI36
as(g62
I00
tp1426
(lp1427
I7
aI10
aI14
aI15
aI18
aI22
aI36
as(g59
I00
tp1428
(lp1429
I7
aI8
aI10
aI15
aI16
aI18
aI34
aI35
aI36
assbsS'_generator'
p1430
(dp1431
g48
I01
sS'finite'
p1432
I01
ssbsbcsympy.core.numbers
NegativeOne
p1433
(I-1
tp1434
Rp1435
(dp1436
btp1437
Rp1438
(dp1439
bg5
(csympy.core.add
Add
p1440
(g0
(g1
(I4
tp1441
Rp1442
(dp1443
bg5
(g28
g1
(I6
tp1444
Rp1445
(dp1446
btp1447
Rp1448
(dp1449
btp1450
Rp1451
(dp1452
bg0
(g1442
g5
(g25
(S'\\gamma'
p1453
tp1454
Rp1455
(dp1456
g30
g31
(g32
g33
(dp1457
g35
I01
sg36
Nsg37
Nsg38
Nsg39
Nsg40
Nsg41
Nsg42
Nsg43
I01
sg44
I00
sg45
Nsg46
I00
sg47
Nsg48
I01
sg49
I01
sg50
I01
sg51
I00
sg52
I01
sg53
Nsg54
Nsg55
Nsg56
Nsg57
Nsg58
I01
sg59
Nsg60
Nsg61
I01
sg62
Nstp1458
Rp1459
(dp1460
g66
g70
sg1430
(dp1461
g48
I01
sg1432
I01
ssbsbg1445
tp1462
Rp1463
(dp1464
btp1465
Rp1466
(dp1467
bg0
(g5
(g17
g1
(I2
tp1468
Rp1469
(dp1470
btp1471
Rp1472
(dp1473
bg5
(g28
g1
(I4
tp1474
Rp1475
(dp1476
btp1477
Rp1478
(dp1479
btp1480
Rp1481
(dp1482
bg0
(g1472
g5
(g1455
g1475
tp1483
Rp1484
(dp1485
btp1486
Rp1487
(dp1488
bg0
(g1
(I12
tp1489
Rp1490
(dp1491
bg5
(g28
g1469
tp1492
Rp1493
(dp1494
bg1484
tp1495
Rp1496
(dp1497
bg0
(g1490
g1478
g5
(g1455
g1469
tp1498
Rp1499
(dp1500
btp1501
Rp1502
(dp1503
bg0
(g1
(I2
tp1504
Rp1505
(dp1506
bg1472
g1493
g1499
tp1507
Rp1508
(dp1509
btp1510
Rp1511
(dp1512
bcsympy.core.numbers
Rational
p1513
(I-1
I2
tp1514
Rp1515
(dp1516
btp1517
Rp1518
(dp1519
bg1440
(g1493
g1499
tp1520
Rp1521
(dp1522
btp1523
Rp1524
(dp1525
b.