csympy.core.mul
Mul
p0
(csympy.core.numbers
Integer
p1
(I4
tp2
Rp3
(dp4
bcsympy.core.power
Pow
p5
(g1
(I6
tp6
Rp7
(dp8
bcsympy.core.numbers
Half
p9
(I1
I2
tp10
Rp11
(dp12
btp13
Rp14
(dp15
bg5
(csympy.core.numbers
Pi
p16
(tRp17
(dp18
bg1
(I3
tp19
Rp20
(dp21
btp22
Rp23
(dp24
bg5
(csympy.core.symbol
Symbol
p25
(S'\\alpha'
p26
tp27
Rp28
(dp29
S'_assumptions'
p30
ccopy_reg
_reconstructor
p31
(csympy.core.assumptions
StdFactKB
p32
c__builtin__
dict
p33
(dp34
S'real'
p35
I01
sS'polar'
p36
NsS'irrational'
p37
NsS'antihermitian'
p38
NsS'composite'
p39
NsS'extended_nonnegative'
p40
NsS'even'
p41
NsS'negative'
p42
NsS'algebraic'
p43
NsS'hermitian'
p44
I01
sS'infinite'
p45
I00
sS'integer'
p46
NsS'imaginary'
p47
I00
sS'odd'
p48
NsS'nonzero'
p49
I01
sS'extended_real'
p50
I01
sS'commutative'
p51
I01
sS'extended_nonzero'
p52
I01
sS'positive'
p53
NsS'zero'
p54
I00
sS'extended_negative'
p55
NsS'nonnegative'
p56
NsS'prime'
p57
NsS'complex'
p58
I01
sS'rational'
p59
NsS'extended_positive'
p60
NsS'finite'
p61
I01
sS'extended_nonpositive'
p62
Nstp63
Rp64
(dp65
S'rules'
p66
g31
(csympy.core.facts
FactRules
p67
c__builtin__
object
p68
Ntp69
Rp70
(dp71
S'beta_rules'
p72
(lp73
(c__builtin__
set
p74
((lp75
(S'algebraic'
p76
I00
tp77
a(S'complex'
p78
I01
tp79
atp80
Rp81
(S'transcendental'
p82
I01
tp83
tp84
a(g74
((lp85
(g41
I00
tp86
a(S'integer'
p87
I01
tp88
atp89
Rp90
(S'odd'
p91
I01
tp92
tp93
a(g74
((lp94
(S'integer'
p95
I01
tp96
a(g48
I00
tp97
atp98
Rp99
(S'even'
p100
I01
tp101
tp102
a(g74
((lp103
(S'infinite'
p104
I00
tp105
a(S'real'
p106
I00
tp107
atp108
Rp109
(S'extended_real'
p110
I00
tp111
tp112
a(g74
((lp113
(g110
I01
tp114
a(g106
I00
tp115
atp116
Rp117
(g104
I01
tp118
tp119
a(g74
((lp120
(g110
I01
tp121
a(g104
I00
tp122
atp123
Rp124
(g106
I01
tp125
tp126
a(g74
((lp127
(S'extended_real'
p128
I01
tp129
a(S'finite'
p130
I01
tp131
atp132
Rp133
(S'real'
p134
I01
tp135
tp136
a(g74
((lp137
(S'zero'
p138
I00
tp139
a(S'extended_negative'
p140
I00
tp141
a(g60
I00
tp142
atp143
Rp144
(S'extended_real'
p145
I00
tp146
tp147
a(g74
((lp148
(g138
I00
tp149
a(g145
I01
tp150
a(g60
I00
tp151
atp152
Rp153
(g140
I01
tp154
tp155
a(g74
((lp156
(g60
I00
tp157
a(g145
I01
tp158
a(g140
I00
tp159
atp160
Rp161
(g138
I01
tp162
tp163
a(g74
((lp164
(g138
I00
tp165
a(g145
I01
tp166
a(g140
I00
tp167
atp168
Rp169
(g60
I01
tp170
tp171
a(g74
((lp172
(S'extended_nonzero'
p173
I01
tp174
a(S'extended_nonpositive'
p175
I01
tp176
atp177
Rp178
(S'extended_negative'
p179
I01
tp180
tp181
a(g74
((lp182
(S'extended_nonzero'
p183
I01
tp184
a(g40
I01
tp185
atp186
Rp187
(S'extended_positive'
p188
I01
tp189
tp190
a(g74
((lp191
(S'extended_positive'
p192
I00
tp193
a(S'extended_real'
p194
I01
tp195
atp196
Rp197
(S'extended_nonpositive'
p198
I01
tp199
tp200
a(g74
((lp201
(S'extended_real'
p202
I01
tp203
a(S'extended_negative'
p204
I00
tp205
atp206
Rp207
(S'extended_nonnegative'
p208
I01
tp209
tp210
a(g74
((lp211
(S'zero'
p212
I00
tp213
a(S'positive'
p214
I00
tp215
a(S'negative'
p216
I00
tp217
atp218
Rp219
(S'real'
p220
I00
tp221
tp222
a(g74
((lp223
(g220
I01
tp224
a(g212
I00
tp225
a(g214
I00
tp226
atp227
Rp228
(g216
I01
tp229
tp230
a(g74
((lp231
(g220
I01
tp232
a(g214
I00
tp233
a(g216
I00
tp234
atp235
Rp236
(g212
I01
tp237
tp238
a(g74
((lp239
(g220
I01
tp240
a(g212
I00
tp241
a(g216
I00
tp242
atp243
Rp244
(g214
I01
tp245
tp246
a(g74
((lp247
(S'nonzero'
p248
I01
tp249
a(S'nonpositive'
p250
I01
tp251
atp252
Rp253
(g42
I01
tp254
tp255
a(g74
((lp256
(S'nonzero'
p257
I01
tp258
a(g56
I01
tp259
atp260
Rp261
(S'positive'
p262
I01
tp263
tp264
a(g74
((lp265
(S'real'
p266
I01
tp267
a(S'positive'
p268
I00
tp269
atp270
Rp271
(S'nonpositive'
p272
I01
tp273
tp274
a(g74
((lp275
(S'real'
p276
I01
tp277
a(S'negative'
p278
I00
tp279
atp280
Rp281
(S'nonnegative'
p282
I01
tp283
tp284
a(g74
((lp285
(S'finite'
p286
I01
tp287
a(S'extended_positive'
p288
I01
tp289
atp290
Rp291
(g53
I01
tp292
tp293
a(g74
((lp294
(g55
I01
tp295
a(S'finite'
p296
I01
tp297
atp298
Rp299
(S'negative'
p300
I01
tp301
tp302
a(g74
((lp303
(S'finite'
p304
I01
tp305
a(g62
I01
tp306
atp307
Rp308
(S'nonpositive'
p309
I01
tp310
tp311
a(g74
((lp312
(S'finite'
p313
I01
tp314
a(S'extended_nonnegative'
p315
I01
tp316
atp317
Rp318
(S'nonnegative'
p319
I01
tp320
tp321
a(g74
((lp322
(g61
I01
tp323
a(g52
I01
tp324
atp325
Rp326
(S'nonzero'
p327
I01
tp328
tp329
a(g74
((lp330
(S'extended_nonnegative'
p331
I01
tp332
a(S'extended_nonpositive'
p333
I01
tp334
atp335
Rp336
(S'zero'
p337
I01
tp338
tp339
a(g74
((lp340
(S'nonpositive'
p341
I01
tp342
a(S'nonnegative'
p343
I01
tp344
atp345
Rp346
(S'zero'
p347
I01
tp348
tp349
a(g74
((lp350
(S'even'
p351
I01
tp352
a(g57
I00
tp353
a(S'positive'
p354
I01
tp355
atp356
Rp357
(S'composite'
p358
I01
tp359
tp360
a(g74
((lp361
(g351
I01
tp362
a(g358
I00
tp363
a(g354
I01
tp364
atp365
Rp366
(g57
I01
tp367
tp368
a(g74
((lp369
(g358
I00
tp370
a(g57
I00
tp371
a(g354
I01
tp372
atp373
Rp374
(g351
I00
tp375
tp376
a(g74
((lp377
(g351
I01
tp378
a(g358
I00
tp379
a(g57
I00
tp380
atp381
Rp382
(g354
I00
tp383
tp384
a(g74
((lp385
(S'real'
p386
I01
tp387
a(g59
I00
tp388
atp389
Rp390
(g37
I01
tp391
tp392
a(g74
((lp393
(S'integer'
p394
I00
tp395
a(S'extended_real'
p396
I01
tp397
atp398
Rp399
(S'noninteger'
p400
I01
tp401
tp402
a(g74
((lp403
(S'zero'
p404
I00
tp405
a(S'extended_real'
p406
I01
tp407
atp408
Rp409
(S'extended_nonzero'
p410
I01
tp411
tp412
asS'defined_facts'
p413
g74
((lp414
g341
ag44
ag48
ag41
ag51
ag53
ag400
ag42
ag55
aS'complex'
p415
ag59
aS'finite'
p416
ag40
aS'real'
p417
ag327
ag37
ag38
ag39
ag62
ag52
ag104
ag46
aS'imaginary'
p418
ag57
ag50
ag43
ag347
ag56
ag60
ag82
atp419
Rp420
sS'full_implications'
p421
ccollections
defaultdict
p422
(g74
tp423
Rp424
(g41
I01
tp425
g74
((lp426
(S'real'
p427
I01
tp428
a(S'finite'
p429
I01
tp430
a(g47
I00
tp431
a(g50
I01
tp432
a(g43
I01
tp433
a(g400
I00
tp434
a(g45
I00
tp435
a(g95
I01
tp436
a(g37
I00
tp437
a(g91
I00
tp438
a(g51
I01
tp439
a(g59
I01
tp440
a(g58
I01
tp441
a(g82
I00
tp442
a(g44
I01
tp443
atp444
Rp445
s(g44
I00
tp446
g74
((lp447
(g54
I00
tp448
a(S'positive'
p449
I00
tp450
a(S'prime'
p451
I00
tp452
a(g341
I00
tp453
a(g39
I00
tp454
a(g319
I00
tp455
a(S'nonzero'
p456
I00
tp457
a(g46
I00
tp458
a(g427
I00
tp459
a(g100
I00
tp460
a(g37
I00
tp461
a(g91
I00
tp462
a(g59
I00
tp463
a(g42
I00
tp464
atp465
Rp466
s(g35
I00
tp467
g74
((lp468
(g212
I00
tp469
a(g214
I00
tp470
a(g456
I00
tp471
a(g272
I00
tp472
a(g39
I00
tp473
a(g282
I00
tp474
a(g46
I00
tp475
a(g451
I00
tp476
a(g100
I00
tp477
a(g37
I00
tp478
a(g91
I00
tp479
a(S'rational'
p480
I00
tp481
a(g216
I00
tp482
atp483
Rp484
s(g331
I01
tp485
g74
((lp486
(g47
I00
tp487
a(g202
I01
tp488
a(g204
I00
tp489
a(g42
I00
tp490
a(g51
I01
tp491
atp492
Rp493
s(g42
I01
tp494
g74
((lp495
(g220
I01
tp496
a(g248
I01
tp497
a(g449
I00
tp498
a(g451
I00
tp499
a(g250
I01
tp500
a(g39
I00
tp501
a(g60
I00
tp502
a(g50
I01
tp503
a(g282
I00
tp504
a(g410
I01
tp505
a(g58
I01
tp506
a(g55
I01
tp507
a(g296
I01
tp508
a(g54
I00
tp509
a(g62
I01
tp510
a(g47
I00
tp511
a(g51
I01
tp512
a(g45
I00
tp513
a(g44
I01
tp514
a(g315
I00
tp515
atp516
Rp517
s(g418
I00
tp518
g74
((lp519
tp520
Rp521
s(g56
I00
tp522
g74
((lp523
(g347
I00
tp524
a(g262
I00
tp525
a(g451
I00
tp526
a(g39
I00
tp527
atp528
Rp529
s(g43
I01
tp530
g74
((lp531
(g51
I01
tp532
a(g45
I00
tp533
a(g58
I01
tp534
a(g82
I00
tp535
a(g429
I01
tp536
atp537
Rp538
s(g248
I00
tp539
g74
((lp540
(g262
I00
tp541
a(g451
I00
tp542
a(g42
I00
tp543
a(g39
I00
tp544
atp545
Rp546
s(g91
I01
tp547
g74
((lp548
(g427
I01
tp549
a(g54
I00
tp550
a(g41
I00
tp551
a(g47
I00
tp552
a(g50
I01
tp553
a(g43
I01
tp554
a(g327
I01
tp555
a(g410
I01
tp556
a(g400
I00
tp557
a(g45
I00
tp558
a(g429
I01
tp559
a(g87
I01
tp560
a(g37
I00
tp561
a(g51
I01
tp562
a(g59
I01
tp563
a(g58
I01
tp564
a(g82
I00
tp565
a(g44
I01
tp566
atp567
Rp568
s(g62
I01
tp569
g74
((lp570
(g449
I00
tp571
a(g39
I00
tp572
a(g192
I00
tp573
a(g194
I01
tp574
a(g451
I00
tp575
a(g47
I00
tp576
a(g51
I01
tp577
atp578
Rp579
s(g82
I01
tp580
g74
((lp581
(g54
I00
tp582
a(g451
I00
tp583
a(g45
I00
tp584
a(g76
I00
tp585
a(g39
I00
tp586
a(g46
I00
tp587
a(g100
I00
tp588
a(g91
I00
tp589
a(g51
I01
tp590
a(g78
I01
tp591
a(g59
I00
tp592
a(g429
I01
tp593
atp594
Rp595
s(S'complex'
p596
I01
tp597
g74
((lp598
(g51
I01
tp599
a(g45
I00
tp600
a(g429
I01
tp601
atp602
Rp603
s(g59
I01
tp604
g74
((lp605
(S'real'
p606
I01
tp607
a(g429
I01
tp608
a(g47
I00
tp609
a(g50
I01
tp610
a(S'algebraic'
p611
I01
tp612
a(g45
I00
tp613
a(g37
I00
tp614
a(g51
I01
tp615
a(g58
I01
tp616
a(g82
I00
tp617
a(g44
I01
tp618
atp619
Rp620
s(g347
I01
tp621
g74
((lp622
(S'even'
p623
I01
tp624
a(g331
I01
tp625
a(g47
I00
tp626
a(g43
I01
tp627
a(g333
I01
tp628
a(g59
I01
tp629
a(g58
I01
tp630
a(g42
I00
tp631
a(g220
I01
tp632
a(g451
I00
tp633
a(g60
I00
tp634
a(g410
I00
tp635
a(g44
I01
tp636
a(g51
I01
tp637
a(g179
I00
tp638
a(g449
I00
tp639
a(g39
I00
tp640
a(g341
I01
tp641
a(g145
I01
tp642
a(S'finite'
p643
I01
tp644
a(g87
I01
tp645
a(g45
I00
tp646
a(g456
I00
tp647
a(g343
I01
tp648
a(g400
I00
tp649
a(g37
I00
tp650
a(g91
I00
tp651
a(g82
I00
tp652
atp653
Rp654
s(g417
I01
tp655
g74
((lp656
(S'complex'
p657
I01
tp658
a(g47
I00
tp659
a(g128
I01
tp660
a(g130
I01
tp661
a(g51
I01
tp662
a(g45
I00
tp663
a(g44
I01
tp664
atp665
Rp666
s(g57
I00
tp667
g74
((lp668
tp669
Rp670
s(g38
I00
tp671
g74
((lp672
(g418
I00
tp673
atp674
Rp675
s(g53
I01
tp676
g74
((lp677
(g220
I01
tp678
a(g54
I00
tp679
a(g286
I01
tp680
a(g272
I00
tp681
a(g288
I01
tp682
a(g47
I00
tp683
a(g50
I01
tp684
a(g410
I01
tp685
a(g257
I01
tp686
a(g56
I01
tp687
a(g45
I00
tp688
a(g42
I00
tp689
a(g331
I01
tp690
a(g51
I01
tp691
a(g62
I00
tp692
a(g58
I01
tp693
a(g44
I01
tp694
a(g179
I00
tp695
atp696
Rp697
s(g418
I01
tp698
g74
((lp699
(g54
I00
tp700
a(g35
I00
tp701
a(g319
I00
tp702
a(g415
I01
tp703
a(g42
I00
tp704
a(g451
I00
tp705
a(g60
I00
tp706
a(g38
I01
tp707
a(g179
I00
tp708
a(g51
I01
tp709
a(g429
I01
tp710
a(g449
I00
tp711
a(g39
I00
tp712
a(g100
I00
tp713
a(g62
I00
tp714
a(g45
I00
tp715
a(g456
I00
tp716
a(g341
I00
tp717
a(g50
I00
tp718
a(g59
I00
tp719
a(g400
I00
tp720
a(g46
I00
tp721
a(g37
I00
tp722
a(g91
I00
tp723
a(g315
I00
tp724
a(g52
I00
tp725
atp726
Rp727
s(g60
I00
tp728
g74
((lp729
(g53
I00
tp730
a(g451
I00
tp731
a(g39
I00
tp732
atp733
Rp734
s(g52
I00
tp735
g74
((lp736
(g449
I00
tp737
a(g327
I00
tp738
a(g188
I00
tp739
a(g39
I00
tp740
a(g451
I00
tp741
a(g179
I00
tp742
a(g42
I00
tp743
atp744
Rp745
s(g327
I01
tp746
g74
((lp747
(g35
I01
tp748
a(g54
I00
tp749
a(g61
I01
tp750
a(g47
I00
tp751
a(g50
I01
tp752
a(g52
I01
tp753
a(g45
I00
tp754
a(g51
I01
tp755
a(g58
I01
tp756
a(g44
I01
tp757
atp758
Rp759
s(g138
I00
tp760
g74
((lp761
tp762
Rp763
s(g216
I00
tp764
g74
((lp765
tp766
Rp767
s(g415
I00
tp768
g74
((lp769
(g54
I00
tp770
a(g449
I00
tp771
a(g451
I00
tp772
a(g341
I00
tp773
a(S'imaginary'
p774
I00
tp775
a(g43
I00
tp776
a(g39
I00
tp777
a(g319
I00
tp778
a(g59
I00
tp779
a(g456
I00
tp780
a(g46
I00
tp781
a(g417
I00
tp782
a(g100
I00
tp783
a(g37
I00
tp784
a(g91
I00
tp785
a(g82
I00
tp786
a(g42
I00
tp787
atp788
Rp789
s(g51
I01
tp790
g74
((lp791
tp792
Rp793
s(g55
I00
tp794
g74
((lp795
(g300
I00
tp796
atp797
Rp798
s(S'prime'
p799
I01
tp800
g74
((lp801
(g327
I01
tp802
a(g54
I00
tp803
a(g47
I00
tp804
a(g410
I01
tp805
a(g42
I00
tp806
a(g331
I01
tp807
a(g59
I01
tp808
a(g58
I01
tp809
a(g44
I01
tp810
a(g427
I01
tp811
a(g449
I01
tp812
a(g179
I00
tp813
a(g51
I01
tp814
a(g50
I01
tp815
a(g188
I01
tp816
a(g39
I00
tp817
a(g43
I01
tp818
a(S'integer'
p819
I01
tp820
a(g45
I00
tp821
a(g429
I01
tp822
a(g341
I00
tp823
a(g343
I01
tp824
a(g400
I00
tp825
a(g37
I00
tp826
a(g62
I00
tp827
a(g82
I00
tp828
atp829
Rp830
s(g611
I00
tp831
g74
((lp832
(g54
I00
tp833
a(g451
I00
tp834
a(g39
I00
tp835
a(g46
I00
tp836
a(g100
I00
tp837
a(g91
I00
tp838
a(S'rational'
p839
I00
tp840
atp841
Rp842
s(S'positive'
p843
I00
tp844
g74
((lp845
(g39
I00
tp846
a(g451
I00
tp847
atp848
Rp849
s(g50
I01
tp850
g74
((lp851
(g47
I00
tp852
a(S'commutative'
p853
I01
tp854
atp855
Rp856
s(g188
I01
tp857
g74
((lp858
(g54
I00
tp859
a(g341
I00
tp860
a(g47
I00
tp861
a(g145
I01
tp862
a(g183
I01
tp863
a(g179
I00
tp864
a(g40
I01
tp865
a(g51
I01
tp866
a(g198
I00
tp867
a(g42
I00
tp868
atp869
Rp870
s(g250
I01
tp871
g74
((lp872
(g266
I01
tp873
a(g268
I00
tp874
a(g451
I00
tp875
a(g50
I01
tp876
a(g60
I00
tp877
a(g39
I00
tp878
a(g45
I00
tp879
a(g304
I01
tp880
a(g62
I01
tp881
a(g47
I00
tp882
a(g51
I01
tp883
a(g58
I01
tp884
a(g44
I01
tp885
atp886
Rp887
s(g44
I01
tp888
g74
((lp889
tp890
Rp891
s(g358
I00
tp892
g74
((lp893
tp894
Rp895
s(g410
I01
tp896
g74
((lp897
(g47
I00
tp898
a(g406
I01
tp899
a(g404
I00
tp900
a(g51
I01
tp901
atp902
Rp903
s(g55
I01
tp904
g74
((lp905
(g54
I00
tp906
a(g449
I00
tp907
a(g39
I00
tp908
a(g47
I00
tp909
a(g145
I01
tp910
a(g319
I00
tp911
a(g173
I01
tp912
a(g451
I00
tp913
a(g175
I01
tp914
a(g60
I00
tp915
a(g51
I01
tp916
a(g208
I00
tp917
atp918
Rp919
s(g623
I00
tp920
g74
((lp921
(g54
I00
tp922
atp923
Rp924
s(g87
I01
tp925
g74
((lp926
(g427
I01
tp927
a(g429
I01
tp928
a(g47
I00
tp929
a(g50
I01
tp930
a(g43
I01
tp931
a(g400
I00
tp932
a(g45
I00
tp933
a(g37
I00
tp934
a(g51
I01
tp935
a(S'rational'
p936
I01
tp937
a(g58
I01
tp938
a(g82
I00
tp939
a(g44
I01
tp940
atp941
Rp942
s(g51
I00
tp943
g74
((lp944
(g54
I00
tp945
a(g35
I00
tp946
a(g47
I00
tp947
a(g319
I00
tp948
a(g42
I00
tp949
a(g451
I00
tp950
a(g60
I00
tp951
a(g76
I00
tp952
a(g52
I00
tp953
a(g179
I00
tp954
a(S'complex'
p955
I00
tp956
a(g449
I00
tp957
a(g39
I00
tp958
a(g100
I00
tp959
a(g315
I00
tp960
a(g456
I00
tp961
a(g341
I00
tp962
a(S'extended_real'
p963
I00
tp964
a(g59
I00
tp965
a(g400
I00
tp966
a(g46
I00
tp967
a(g37
I00
tp968
a(g91
I00
tp969
a(g62
I00
tp970
a(g82
I00
tp971
atp972
Rp973
s(g40
I00
tp974
g74
((lp975
(g337
I00
tp976
a(g449
I00
tp977
a(g451
I00
tp978
a(g188
I00
tp979
a(g39
I00
tp980
a(g319
I00
tp981
atp982
Rp983
s(g37
I01
tp984
g74
((lp985
(g386
I01
tp986
a(g54
I00
tp987
a(g39
I00
tp988
a(g45
I00
tp989
a(g47
I00
tp990
a(g50
I01
tp991
a(g100
I00
tp992
a(g410
I01
tp993
a(g327
I01
tp994
a(g46
I00
tp995
a(g451
I00
tp996
a(g91
I00
tp997
a(g51
I01
tp998
a(g400
I01
tp999
a(g58
I01
tp1000
a(g59
I00
tp1001
a(g44
I01
tp1002
a(g429
I01
tp1003
atp1004
Rp1005
s(g104
I00
tp1006
g74
((lp1007
tp1008
Rp1009
s(g36
I01
tp1010
g74
((lp1011
tp1012
Rp1013
s(g416
I01
tp1014
g74
((lp1015
(g45
I00
tp1016
atp1017
Rp1018
s(g341
I00
tp1019
g74
((lp1020
(g347
I00
tp1021
a(g42
I00
tp1022
atp1023
Rp1024
s(g82
I00
tp1025
g74
((lp1026
tp1027
Rp1028
s(g39
I01
tp1029
g74
((lp1030
(g327
I01
tp1031
a(g54
I00
tp1032
a(g47
I00
tp1033
a(g43
I01
tp1034
a(g42
I00
tp1035
a(g331
I01
tp1036
a(g59
I01
tp1037
a(g58
I01
tp1038
a(g44
I01
tp1039
a(g427
I01
tp1040
a(g799
I00
tp1041
a(g843
I01
tp1042
a(g179
I00
tp1043
a(g51
I01
tp1044
a(g188
I01
tp1045
a(g50
I01
tp1046
a(g410
I01
tp1047
a(g46
I01
tp1048
a(g45
I00
tp1049
a(g429
I01
tp1050
a(g341
I00
tp1051
a(g343
I01
tp1052
a(g400
I00
tp1053
a(g37
I00
tp1054
a(g62
I00
tp1055
a(g82
I00
tp1056
atp1057
Rp1058
s(g643
I00
tp1059
g74
((lp1060
(g54
I00
tp1061
a(g53
I00
tp1062
a(g451
I00
tp1063
a(g309
I00
tp1064
a(g47
I00
tp1065
a(g76
I00
tp1066
a(g39
I00
tp1067
a(g319
I00
tp1068
a(g82
I00
tp1069
a(g134
I00
tp1070
a(g46
I00
tp1071
a(g327
I00
tp1072
a(g100
I00
tp1073
a(g37
I00
tp1074
a(g91
I00
tp1075
a(g596
I00
tp1076
a(g59
I00
tp1077
a(g300
I00
tp1078
atp1079
Rp1080
s(g343
I01
tp1081
g74
((lp1082
(g276
I01
tp1083
a(g313
I01
tp1084
a(g47
I00
tp1085
a(g50
I01
tp1086
a(g278
I00
tp1087
a(g45
I00
tp1088
a(g179
I00
tp1089
a(g315
I01
tp1090
a(g51
I01
tp1091
a(g58
I01
tp1092
a(g44
I01
tp1093
atp1094
Rp1095
s(g400
I00
tp1096
g74
((lp1097
tp1098
Rp1099
s(g194
I00
tp1100
g74
((lp1101
(g138
I00
tp1102
a(g449
I00
tp1103
a(g134
I00
tp1104
a(g341
I00
tp1105
a(g60
I00
tp1106
a(g410
I00
tp1107
a(g39
I00
tp1108
a(g319
I00
tp1109
a(g451
I00
tp1110
a(g400
I00
tp1111
a(g46
I00
tp1112
a(g456
I00
tp1113
a(g100
I00
tp1114
a(g140
I00
tp1115
a(g37
I00
tp1116
a(g91
I00
tp1117
a(g208
I00
tp1118
a(g59
I00
tp1119
a(g42
I00
tp1120
a(g198
I00
tp1121
atp1122
Rp1123
s(g46
I00
tp1124
g74
((lp1125
(g54
I00
tp1126
a(g39
I00
tp1127
a(g100
I00
tp1128
a(g451
I00
tp1129
a(g91
I00
tp1130
atp1131
Rp1132
s(g400
I01
tp1133
g74
((lp1134
(g54
I00
tp1135
a(g396
I01
tp1136
a(g47
I00
tp1137
a(g39
I00
tp1138
a(g410
I01
tp1139
a(g394
I00
tp1140
a(g100
I00
tp1141
a(g91
I00
tp1142
a(g51
I01
tp1143
a(g451
I00
tp1144
atp1145
Rp1146
s(g48
I00
tp1147
g74
((lp1148
tp1149
Rp1150
s(g45
I01
tp1151
g74
((lp1152
(g416
I00
tp1153
a(g54
I00
tp1154
a(g449
I00
tp1155
a(g451
I00
tp1156
a(g341
I00
tp1157
a(g47
I00
tp1158
a(g76
I00
tp1159
a(g39
I00
tp1160
a(g319
I00
tp1161
a(g59
I00
tp1162
a(g456
I00
tp1163
a(g46
I00
tp1164
a(g35
I00
tp1165
a(g100
I00
tp1166
a(g37
I00
tp1167
a(g91
I00
tp1168
a(g415
I00
tp1169
a(g82
I00
tp1170
a(g42
I00
tp1171
atp1172
Rp1173
s(g62
I00
tp1174
g74
((lp1175
(g337
I00
tp1176
a(g309
I00
tp1177
a(g179
I00
tp1178
a(g42
I00
tp1179
atp1180
Rp1181
s(g59
I00
tp1182
g74
((lp1183
(g54
I00
tp1184
a(g100
I00
tp1185
a(g39
I00
tp1186
a(S'integer'
p1187
I00
tp1188
a(g451
I00
tp1189
a(g91
I00
tp1190
atp1191
Rp1192
ssS'prereq'
p1193
g422
(g74
tp1194
Rp1195
g341
g74
((lp1196
g35
ag799
ag194
ag51
ag347
ag39
ag53
ag62
ag42
ag44
ag415
ag45
ag188
ag643
ag418
atp1197
Rp1198
sg54
g74
((lp1199
g341
ag44
ag91
ag37
ag623
ag51
ag53
ag400
ag42
ag55
ag415
ag59
ag643
ag62
ag35
ag327
ag82
ag39
ag40
ag410
ag45
ag46
ag418
ag799
ag194
ag611
ag56
ag188
atp1200
Rp1201
sg91
g74
((lp1202
g35
ag41
ag194
ag37
ag400
ag347
ag611
ag44
ag415
ag59
ag45
ag46
ag418
ag82
ag643
ag51
atp1203
Rp1204
sg456
g74
((lp1205
g35
ag799
ag194
ag37
ag347
ag39
ag53
ag42
ag52
ag44
ag415
ag45
ag418
ag643
ag91
ag51
atp1206
Rp1207
sg51
g74
((lp1208
g250
ag347
ag91
ag327
ag53
ag400
ag42
ag55
ag596
ag59
ag62
ag417
ag41
ag37
ag39
ag331
ag43
ag87
ag418
ag799
ag50
ag410
ag343
ag188
ag82
atp1209
Rp1210
sg449
g74
((lp1211
g35
ag799
ag194
ag51
ag347
ag250
ag39
ag248
ag62
ag42
ag55
ag56
ag52
ag44
ag415
ag45
ag60
ag418
ag643
ag40
atp1212
Rp1213
sg400
g74
((lp1214
g41
ag799
ag194
ag51
ag39
ag347
ag87
ag418
ag91
ag37
atp1215
Rp1216
sg42
g74
((lp1217
g35
ag799
ag194
ag51
ag248
ag341
ag39
ag53
ag331
ag347
ag55
ag343
ag52
ag44
ag415
ag45
ag188
ag418
ag643
ag62
atp1218
Rp1219
sg204
g74
((lp1220
g799
ag194
ag51
ag39
ag53
ag331
ag42
ag343
ag418
ag52
ag347
ag188
ag62
atp1221
Rp1222
sg58
g74
((lp1223
g417
ag799
ag37
ag250
ag39
ag53
ag41
ag42
ag343
ag51
ag43
ag347
ag327
ag59
ag45
ag87
ag418
ag643
ag91
ag82
atp1224
Rp1225
sg59
g74
((lp1226
g35
ag799
ag194
ag37
ag39
ag41
ag347
ag611
ag44
ag415
ag82
ag45
ag87
ag418
ag643
ag91
ag51
atp1227
Rp1228
sg429
g74
((lp1229
g417
ag799
ag37
ag250
ag39
ag53
ag41
ag42
ag343
ag43
ag347
ag596
ag59
ag45
ag87
ag418
ag327
ag91
ag82
atp1230
Rp1231
sg62
g74
((lp1232
g799
ag194
ag51
ag250
ag39
ag53
ag42
ag55
ag347
ag418
ag188
atp1233
Rp1234
sg427
g74
((lp1235
g327
ag41
ag194
ag37
ag347
ag250
ag39
ag53
ag42
ag343
ag799
ag44
ag415
ag59
ag45
ag87
ag418
ag643
ag91
ag51
atp1236
Rp1237
sg36
g74
((lp1238
tp1239
Rp1240
sg37
g74
((lp1241
g41
ag35
ag194
ag51
ag39
ag799
ag44
ag347
ag415
ag59
ag45
ag87
ag418
ag643
ag91
atp1242
Rp1243
sg38
g74
((lp1244
g418
atp1245
Rp1246
sg39
g74
((lp1247
g250
ag347
ag37
ag248
ag51
ag843
ag400
ag42
ag55
ag415
ag59
ag643
ag40
ag35
ag82
ag62
ag52
ag45
ag46
ag418
ag799
ag194
ag611
ag44
ag56
ag60
atp1248
Rp1249
sg315
g74
((lp1250
g799
ag194
ag51
ag39
ag53
ag42
ag55
ag343
ag347
ag418
ag188
atp1251
Rp1252
sg100
g74
((lp1253
g35
ag194
ag37
ag400
ag347
ag611
ag44
ag415
ag59
ag45
ag46
ag418
ag82
ag91
ag643
ag51
atp1254
Rp1255
sg43
g74
((lp1256
g41
ag799
ag82
ag39
ag347
ag415
ag59
ag45
ag87
ag643
ag91
ag51
atp1257
Rp1258
sg45
g74
((lp1259
g417
ag799
ag37
ag327
ag250
ag39
ag53
ag41
ag42
ag343
ag43
ag347
ag596
ag59
ag87
ag418
ag416
ag91
ag82
atp1260
Rp1261
sg95
g74
((lp1262
g35
ag799
ag194
ag37
ag347
ag39
ag41
ag400
ag611
ag44
ag415
ag59
ag45
ag418
ag82
ag91
ag643
ag51
atp1263
Rp1264
sg47
g74
((lp1265
g250
ag347
ag91
ag327
ag51
ag53
ag400
ag42
ag55
ag415
ag59
ag643
ag62
ag417
ag41
ag37
ag38
ag39
ag331
ag410
ag45
ag87
ag799
ag50
ag343
ag188
atp1266
Rp1267
sg451
g74
((lp1268
g250
ag347
ag37
ag248
ag51
ag843
ag400
ag42
ag55
ag415
ag59
ag643
ag40
ag35
ag82
ag39
ag62
ag52
ag45
ag46
ag418
ag194
ag611
ag44
ag56
ag60
atp1269
Rp1270
sg50
g74
((lp1271
g250
ag347
ag91
ag327
ag51
ag53
ag400
ag42
ag55
ag59
ag62
ag417
ag41
ag37
ag39
ag331
ag410
ag87
ag418
ag799
ag343
ag188
atp1272
Rp1273
sg410
g74
((lp1274
g327
ag799
ag194
ag51
ag39
ag53
ag400
ag42
ag55
ag347
ag418
ag91
ag188
ag37
atp1275
Rp1276
sg44
g74
((lp1277
g41
ag417
ag37
ag250
ag39
ag53
ag42
ag343
ag799
ag347
ag59
ag87
ag327
ag91
atp1278
Rp1279
sg319
g74
((lp1280
g35
ag799
ag194
ag51
ag39
ag53
ag40
ag42
ag55
ag347
ag415
ag45
ag44
ag643
ag418
atp1281
Rp1282
sg60
g74
((lp1283
g799
ag194
ag51
ag250
ag39
ag53
ag62
ag42
ag55
ag52
ag347
ag418
ag40
atp1284
Rp1285
sg82
g74
((lp1286
g41
ag799
ag51
ag39
ag43
ag347
ag415
ag59
ag45
ag87
ag643
ag91
atp1287
Rp1288
ssS'beta_triggers'
p1289
g422
(g74
tp1290
Rp1291
(g41
I01
tp1292
(lp1293
I8
aI9
aI10
aI13
aI14
aI16
aI17
aI18
aI21
aI22
aI23
aI24
aI25
aI26
aI27
aI30
aI31
aI33
aI36
as(g44
I00
tp1294
(lp1295
I3
aI4
aI7
aI8
aI10
aI35
aI36
as(g35
I00
tp1296
(lp1297
I3
aI4
aI7
aI8
aI10
aI35
aI36
as(g331
I01
tp1298
(lp1299
I4
aI5
aI6
aI9
aI10
aI12
aI13
aI15
aI17
aI18
aI22
aI26
aI28
aI35
aI36
as(g42
I01
tp1300
(lp1301
I0
aI34
aI35
as(g418
I00
tp1302
g74
((lp1303
tp1304
Rp1305
s(g56
I00
tp1306
(lp1307
I7
aI8
aI10
aI15
aI16
aI21
aI36
as(g43
I01
tp1308
(lp1309
I3
aI5
aI6
aI23
aI24
aI25
aI26
aI27
as(g248
I00
tp1310
(lp1311
I15
aI17
aI21
aI22
as(g91
I01
tp1312
(lp1313
I8
aI10
aI11
aI12
aI13
aI14
aI16
aI18
aI19
aI20
aI21
aI22
aI23
aI24
aI25
aI26
as(g62
I01
tp1314
(lp1315
I4
aI5
aI6
aI8
aI9
aI11
aI14
aI15
aI16
aI17
aI21
aI25
aI28
aI35
aI36
as(g82
I01
tp1316
(lp1317
I3
aI5
aI6
aI7
aI8
aI10
aI15
aI16
aI18
aI23
aI24
aI25
aI26
aI27
aI34
aI35
aI36
as(g596
I01
tp1318
(lp1319
I0
aI3
aI5
aI6
aI23
aI24
aI25
aI26
aI27
as(g59
I01
tp1320
(lp1321
I8
aI9
aI10
aI13
aI14
aI16
aI17
aI18
aI21
aI22
aI23
aI24
aI25
aI26
aI27
aI35
aI36
as(g347
I01
tp1322
(lp1323
s(g417
I01
tp1324
(lp1325
I0
aI8
aI9
aI10
aI13
aI14
aI16
aI17
aI18
aI21
aI22
aI23
aI24
aI25
aI26
aI27
aI34
aI35
aI36
as(g57
I00
tp1326
(lp1327
I30
aI32
aI33
as(g38
I00
tp1328
(lp1329
s(g53
I01
tp1330
(lp1331
I0
aI30
aI31
aI32
aI34
aI35
as(g418
I01
tp1332
(lp1333
I0
as(g60
I00
tp1334
(lp1335
I7
aI8
aI9
aI13
aI15
aI16
aI17
aI21
as(g52
I00
tp1336
(lp1337
I7
aI9
aI13
aI14
aI15
aI17
aI21
aI22
as(g327
I01
tp1338
(lp1339
I0
aI8
aI10
aI11
aI12
aI13
aI14
aI16
aI18
aI19
aI20
aI21
aI22
aI23
aI24
aI25
aI26
aI34
aI35
as(g138
I00
tp1340
(lp1341
I7
aI8
aI10
aI15
aI16
aI18
aI36
as(g216
I00
tp1342
(lp1343
I15
aI17
aI18
aI22
as(g415
I00
tp1344
(lp1345
I3
aI4
aI7
aI8
aI10
aI35
aI36
as(g51
I01
tp1346
g74
((lp1347
tp1348
Rp1349
s(g55
I00
tp1350
(lp1351
I7
aI9
aI10
aI14
aI15
aI17
aI18
aI22
as(g799
I01
tp1352
(lp1353
I1
aI2
as(g611
I00
tp1354
(lp1355
I0
aI7
aI8
aI10
aI15
aI16
aI18
aI34
aI35
aI36
as(g843
I00
tp1356
(lp1357
I15
aI16
aI17
aI21
as(g50
I01
tp1358
(lp1359
I4
aI5
aI6
aI8
aI9
aI10
aI13
aI14
aI35
aI36
as(g188
I01
tp1360
(lp1361
I4
aI5
aI6
aI15
aI18
aI22
aI23
aI26
aI27
aI35
as(g250
I01
tp1362
(lp1363
I0
aI8
aI9
aI11
aI14
aI16
aI17
aI19
aI22
aI24
aI26
aI27
aI28
aI29
aI34
aI35
aI36
as(g44
I01
tp1364
g74
((lp1365
tp1366
Rp1367
s(g358
I00
tp1368
(lp1369
I31
aI32
aI33
as(g410
I01
tp1370
(lp1371
I4
aI5
aI6
aI8
aI10
aI11
aI12
aI13
aI14
aI15
aI16
aI18
aI27
aI35
as(g55
I01
tp1372
(lp1373
I4
aI5
aI6
aI15
aI16
aI21
aI24
aI25
aI27
aI35
as(g623
I00
tp1374
(lp1375
I1
aI7
aI8
aI10
aI15
aI16
aI18
aI36
as(g87
I01
tp1376
(lp1377
I1
aI2
aI8
aI9
aI10
aI13
aI14
aI16
aI17
aI18
aI21
aI22
aI23
aI24
aI25
aI26
aI27
aI36
as(g51
I00
tp1378
(lp1379
s(g40
I00
tp1380
(lp1381
I7
aI8
aI13
aI15
aI16
aI21
aI36
as(g37
I01
tp1382
(lp1383
I0
aI8
aI10
aI11
aI12
aI13
aI14
aI16
aI18
aI19
aI20
aI21
aI22
aI23
aI24
aI25
aI26
as(g104
I00
tp1384
(lp1385
I3
aI5
as(g36
I01
tp1386
g74
((lp1387
tp1388
Rp1389
s(g416
I01
tp1390
(lp1391
I3
aI5
aI6
aI23
aI24
aI25
aI26
aI27
as(g341
I00
tp1392
(lp1393
I7
aI8
aI10
aI15
aI18
aI22
aI36
as(g82
I00
tp1394
g74
((lp1395
tp1396
Rp1397
s(g39
I01
tp1398
(lp1399
I1
aI2
as(g643
I00
tp1400
(lp1401
I3
aI4
aI7
aI8
aI10
aI35
aI36
as(g343
I01
tp1402
(lp1403
I0
aI9
aI10
aI12
aI13
aI17
aI18
aI20
aI21
aI23
aI25
aI27
aI28
aI29
aI34
aI35
aI36
as(g400
I00
tp1404
g74
((lp1405
tp1406
Rp1407
s(g194
I00
tp1408
(lp1409
s(g46
I00
tp1410
(lp1411
I7
aI8
aI10
aI15
aI16
aI18
aI35
aI36
as(g400
I01
tp1412
(lp1413
I4
aI5
aI6
aI8
aI10
aI11
aI12
aI13
aI14
aI15
aI16
aI18
aI27
as(g48
I00
tp1414
(lp1415
I2
as(g45
I01
tp1416
(lp1417
I7
aI8
aI10
aI35
aI36
as(g62
I00
tp1418
(lp1419
I7
aI10
aI14
aI15
aI18
aI22
aI36
as(g59
I00
tp1420
(lp1421
I7
aI8
aI10
aI15
aI16
aI18
aI34
aI35
aI36
assbsS'_generator'
p1422
(dp1423
g49
I01
sS'finite'
p1424
I01
ssbsbcsympy.core.numbers
NegativeOne
p1425
(I-1
tp1426
Rp1427
(dp1428
btp1429
Rp1430
(dp1431
bg5
(csympy.core.add
Add
p1432
(g0
(g3
g5
(g25
(S'\\alpha'
p1433
tp1434
Rp1435
(dp1436
g30
g31
(g32
g33
(dp1437
S'real'
p1438
I01
sS'polar'
p1439
NsS'irrational'
p1440
NsS'antihermitian'
p1441
NsS'composite'
p1442
NsS'extended_nonnegative'
p1443
NsS'even'
p1444
NsS'algebraic'
p1445
NsS'hermitian'
p1446
I01
sS'infinite'
p1447
I00
sS'integer'
p1448
NsS'imaginary'
p1449
I00
sS'odd'
p1450
NsS'nonzero'
p1451
I01
sS'extended_real'
p1452
I01
sS'commutative'
p1453
I01
sS'zero'
p1454
I00
sS'extended_nonzero'
p1455
I01
sS'positive'
p1456
NsS'negative'
p1457
NsS'extended_negative'
p1458
NsS'nonnegative'
p1459
NsS'prime'
p1460
NsS'complex'
p1461
I01
sS'rational'
p1462
NsS'extended_positive'
p1463
NsS'finite'
p1464
I01
sS'extended_nonpositive'
p1465
Nstp1466
Rp1467
(dp1468
g66
g31
(g67
g68
Ntp1469
Rp1470
(dp1471
g72
(lp1472
(g74
((lp1473
(S'algebraic'
p1474
I00
tp1475
a(S'complex'
p1476
I01
tp1477
atp1478
Rp1479
(S'transcendental'
p1480
I01
tp1481
tp1482
a(g74
((lp1483
(g1444
I00
tp1484
a(S'integer'
p1485
I01
tp1486
atp1487
Rp1488
(S'odd'
p1489
I01
tp1490
tp1491
a(g74
((lp1492
(S'integer'
p1493
I01
tp1494
a(g1450
I00
tp1495
atp1496
Rp1497
(S'even'
p1498
I01
tp1499
tp1500
a(g74
((lp1501
(S'infinite'
p1502
I00
tp1503
a(S'real'
p1504
I00
tp1505
atp1506
Rp1507
(S'extended_real'
p1508
I00
tp1509
tp1510
a(g74
((lp1511
(g1508
I01
tp1512
a(g1504
I00
tp1513
atp1514
Rp1515
(g1502
I01
tp1516
tp1517
a(g74
((lp1518
(g1508
I01
tp1519
a(g1502
I00
tp1520
atp1521
Rp1522
(g1504
I01
tp1523
tp1524
a(g74
((lp1525
(S'extended_real'
p1526
I01
tp1527
a(S'finite'
p1528
I01
tp1529
atp1530
Rp1531
(S'real'
p1532
I01
tp1533
tp1534
a(g74
((lp1535
(S'zero'
p1536
I00
tp1537
a(S'extended_negative'
p1538
I00
tp1539
a(g1463
I00
tp1540
atp1541
Rp1542
(S'extended_real'
p1543
I00
tp1544
tp1545
a(g74
((lp1546
(g1536
I00
tp1547
a(g1543
I01
tp1548
a(g1463
I00
tp1549
atp1550
Rp1551
(g1538
I01
tp1552
tp1553
a(g74
((lp1554
(g1463
I00
tp1555
a(g1543
I01
tp1556
a(g1538
I00
tp1557
atp1558
Rp1559
(g1536
I01
tp1560
tp1561
a(g74
((lp1562
(g1536
I00
tp1563
a(g1543
I01
tp1564
a(g1538
I00
tp1565
atp1566
Rp1567
(g1463
I01
tp1568
tp1569
a(g74
((lp1570
(S'extended_nonzero'
p1571
I01
tp1572
a(S'extended_nonpositive'
p1573
I01
tp1574
atp1575
Rp1576
(S'extended_negative'
p1577
I01
tp1578
tp1579
a(g74
((lp1580
(S'extended_nonzero'
p1581
I01
tp1582
a(g1443
I01
tp1583
atp1584
Rp1585
(S'extended_positive'
p1586
I01
tp1587
tp1588
a(g74
((lp1589
(S'extended_positive'
p1590
I00
tp1591
a(S'extended_real'
p1592
I01
tp1593
atp1594
Rp1595
(S'extended_nonpositive'
p1596
I01
tp1597
tp1598
a(g74
((lp1599
(S'extended_real'
p1600
I01
tp1601
a(S'extended_negative'
p1602
I00
tp1603
atp1604
Rp1605
(S'extended_nonnegative'
p1606
I01
tp1607
tp1608
a(g74
((lp1609
(S'zero'
p1610
I00
tp1611
a(S'positive'
p1612
I00
tp1613
a(S'negative'
p1614
I00
tp1615
atp1616
Rp1617
(S'real'
p1618
I00
tp1619
tp1620
a(g74
((lp1621
(g1618
I01
tp1622
a(g1610
I00
tp1623
a(g1612
I00
tp1624
atp1625
Rp1626
(g1614
I01
tp1627
tp1628
a(g74
((lp1629
(g1618
I01
tp1630
a(g1612
I00
tp1631
a(g1614
I00
tp1632
atp1633
Rp1634
(g1610
I01
tp1635
tp1636
a(g74
((lp1637
(g1618
I01
tp1638
a(g1610
I00
tp1639
a(g1614
I00
tp1640
atp1641
Rp1642
(g1612
I01
tp1643
tp1644
a(g74
((lp1645
(S'nonzero'
p1646
I01
tp1647
a(S'nonpositive'
p1648
I01
tp1649
atp1650
Rp1651
(g1457
I01
tp1652
tp1653
a(g74
((lp1654
(S'nonzero'
p1655
I01
tp1656
a(g1459
I01
tp1657
atp1658
Rp1659
(S'positive'
p1660
I01
tp1661
tp1662
a(g74
((lp1663
(S'real'
p1664
I01
tp1665
a(S'positive'
p1666
I00
tp1667
atp1668
Rp1669
(S'nonpositive'
p1670
I01
tp1671
tp1672
a(g74
((lp1673
(S'real'
p1674
I01
tp1675
a(S'negative'
p1676
I00
tp1677
atp1678
Rp1679
(S'nonnegative'
p1680
I01
tp1681
tp1682
a(g74
((lp1683
(S'finite'
p1684
I01
tp1685
a(S'extended_positive'
p1686
I01
tp1687
atp1688
Rp1689
(g1456
I01
tp1690
tp1691
a(g74
((lp1692
(g1458
I01
tp1693
a(S'finite'
p1694
I01
tp1695
atp1696
Rp1697
(S'negative'
p1698
I01
tp1699
tp1700
a(g74
((lp1701
(S'finite'
p1702
I01
tp1703
a(g1465
I01
tp1704
atp1705
Rp1706
(S'nonpositive'
p1707
I01
tp1708
tp1709
a(g74
((lp1710
(S'finite'
p1711
I01
tp1712
a(S'extended_nonnegative'
p1713
I01
tp1714
atp1715
Rp1716
(S'nonnegative'
p1717
I01
tp1718
tp1719
a(g74
((lp1720
(g1464
I01
tp1721
a(g1455
I01
tp1722
atp1723
Rp1724
(S'nonzero'
p1725
I01
tp1726
tp1727
a(g74
((lp1728
(S'extended_nonnegative'
p1729
I01
tp1730
a(S'extended_nonpositive'
p1731
I01
tp1732
atp1733
Rp1734
(S'zero'
p1735
I01
tp1736
tp1737
a(g74
((lp1738
(S'nonpositive'
p1739
I01
tp1740
a(S'nonnegative'
p1741
I01
tp1742
atp1743
Rp1744
(S'zero'
p1745
I01
tp1746
tp1747
a(g74
((lp1748
(S'even'
p1749
I01
tp1750
a(g1460
I00
tp1751
a(S'positive'
p1752
I01
tp1753
atp1754
Rp1755
(S'composite'
p1756
I01
tp1757
tp1758
a(g74
((lp1759
(g1749
I01
tp1760
a(g1756
I00
tp1761
a(g1752
I01
tp1762
atp1763
Rp1764
(g1460
I01
tp1765
tp1766
a(g74
((lp1767
(g1756
I00
tp1768
a(g1460
I00
tp1769
a(g1752
I01
tp1770
atp1771
Rp1772
(g1749
I00
tp1773
tp1774
a(g74
((lp1775
(g1749
I01
tp1776
a(g1756
I00
tp1777
a(g1460
I00
tp1778
atp1779
Rp1780
(g1752
I00
tp1781
tp1782
a(g74
((lp1783
(S'real'
p1784
I01
tp1785
a(g1462
I00
tp1786
atp1787
Rp1788
(g1440
I01
tp1789
tp1790
a(g74
((lp1791
(S'integer'
p1792
I00
tp1793
a(S'extended_real'
p1794
I01
tp1795
atp1796
Rp1797
(S'noninteger'
p1798
I01
tp1799
tp1800
a(g74
((lp1801
(S'zero'
p1802
I00
tp1803
a(S'extended_real'
p1804
I01
tp1805
atp1806
Rp1807
(S'extended_nonzero'
p1808
I01
tp1809
tp1810
asg413
g74
((lp1811
g1739
ag1446
ag1450
ag1444
ag1453
ag1456
ag1798
ag1457
ag1458
aS'complex'
p1812
ag1462
aS'finite'
p1813
ag1443
aS'real'
p1814
ag1725
ag1440
ag1441
ag1442
ag1465
ag1455
ag1502
ag1448
aS'imaginary'
p1815
ag1460
ag1452
ag1445
ag1745
ag1459
ag1463
ag1480
atp1816
Rp1817
sg421
g422
(g74
tp1818
Rp1819
(g1444
I01
tp1820
g74
((lp1821
(S'real'
p1822
I01
tp1823
a(g1447
I00
tp1824
a(g1449
I00
tp1825
a(g1452
I01
tp1826
a(g1445
I01
tp1827
a(g1798
I00
tp1828
a(S'finite'
p1829
I01
tp1830
a(g1493
I01
tp1831
a(g1440
I00
tp1832
a(g1489
I00
tp1833
a(g1453
I01
tp1834
a(g1462
I01
tp1835
a(g1461
I01
tp1836
a(g1480
I00
tp1837
a(g1446
I01
tp1838
atp1839
Rp1840
s(g1446
I00
tp1841
g74
((lp1842
(g1454
I00
tp1843
a(S'positive'
p1844
I00
tp1845
a(S'prime'
p1846
I00
tp1847
a(g1739
I00
tp1848
a(g1442
I00
tp1849
a(g1717
I00
tp1850
a(S'nonzero'
p1851
I00
tp1852
a(g1448
I00
tp1853
a(g1822
I00
tp1854
a(g1498
I00
tp1855
a(g1440
I00
tp1856
a(g1489
I00
tp1857
a(g1462
I00
tp1858
a(g1457
I00
tp1859
atp1860
Rp1861
s(g1438
I00
tp1862
g74
((lp1863
(g1610
I00
tp1864
a(g1612
I00
tp1865
a(g1851
I00
tp1866
a(g1670
I00
tp1867
a(g1442
I00
tp1868
a(g1680
I00
tp1869
a(g1448
I00
tp1870
a(g1846
I00
tp1871
a(g1498
I00
tp1872
a(g1440
I00
tp1873
a(g1489
I00
tp1874
a(S'rational'
p1875
I00
tp1876
a(g1614
I00
tp1877
atp1878
Rp1879
s(g1729
I01
tp1880
g74
((lp1881
(g1449
I00
tp1882
a(g1600
I01
tp1883
a(g1602
I00
tp1884
a(g1457
I00
tp1885
a(g1453
I01
tp1886
atp1887
Rp1888
s(g1457
I01
tp1889
g74
((lp1890
(g1618
I01
tp1891
a(g1646
I01
tp1892
a(g1844
I00
tp1893
a(g1846
I00
tp1894
a(g1447
I00
tp1895
a(g1648
I01
tp1896
a(g1452
I01
tp1897
a(g1463
I00
tp1898
a(g1442
I00
tp1899
a(g1680
I00
tp1900
a(g1808
I01
tp1901
a(g1449
I00
tp1902
a(g1458
I01
tp1903
a(g1694
I01
tp1904
a(g1454
I00
tp1905
a(g1465
I01
tp1906
a(g1453
I01
tp1907
a(g1713
I00
tp1908
a(g1461
I01
tp1909
a(g1446
I01
tp1910
atp1911
Rp1912
s(g1815
I00
tp1913
g74
((lp1914
tp1915
Rp1916
s(g1459
I00
tp1917
g74
((lp1918
(g1846
I00
tp1919
a(g1660
I00
tp1920
a(g1442
I00
tp1921
a(g1745
I00
tp1922
atp1923
Rp1924
s(g1445
I01
tp1925
g74
((lp1926
(g1453
I01
tp1927
a(g1447
I00
tp1928
a(g1461
I01
tp1929
a(g1480
I00
tp1930
a(g1829
I01
tp1931
atp1932
Rp1933
s(g1646
I00
tp1934
g74
((lp1935
(g1660
I00
tp1936
a(g1846
I00
tp1937
a(g1457
I00
tp1938
a(g1442
I00
tp1939
atp1940
Rp1941
s(g1489
I01
tp1942
g74
((lp1943
(g1822
I01
tp1944
a(g1454
I00
tp1945
a(g1447
I00
tp1946
a(g1449
I00
tp1947
a(g1452
I01
tp1948
a(g1444
I00
tp1949
a(g1445
I01
tp1950
a(g1725
I01
tp1951
a(g1808
I01
tp1952
a(g1798
I00
tp1953
a(g1829
I01
tp1954
a(g1485
I01
tp1955
a(g1440
I00
tp1956
a(g1453
I01
tp1957
a(g1462
I01
tp1958
a(g1461
I01
tp1959
a(g1480
I00
tp1960
a(g1446
I01
tp1961
atp1962
Rp1963
s(g1465
I01
tp1964
g74
((lp1965
(g1844
I00
tp1966
a(g1442
I00
tp1967
a(g1590
I00
tp1968
a(g1592
I01
tp1969
a(g1846
I00
tp1970
a(g1449
I00
tp1971
a(g1453
I01
tp1972
atp1973
Rp1974
s(g1462
I01
tp1975
g74
((lp1976
(S'real'
p1977
I01
tp1978
a(g1447
I00
tp1979
a(g1449
I00
tp1980
a(g1452
I01
tp1981
a(S'algebraic'
p1982
I01
tp1983
a(g1829
I01
tp1984
a(g1440
I00
tp1985
a(g1453
I01
tp1986
a(g1461
I01
tp1987
a(g1480
I00
tp1988
a(g1446
I01
tp1989
atp1990
Rp1991
s(S'complex'
p1992
I01
tp1993
g74
((lp1994
(g1453
I01
tp1995
a(g1447
I00
tp1996
a(g1829
I01
tp1997
atp1998
Rp1999
s(g1480
I01
tp2000
g74
((lp2001
(g1454
I00
tp2002
a(g1447
I00
tp2003
a(g1474
I00
tp2004
a(g1442
I00
tp2005
a(g1498
I00
tp2006
a(g1448
I00
tp2007
a(g1846
I00
tp2008
a(g1489
I00
tp2009
a(g1453
I01
tp2010
a(g1476
I01
tp2011
a(g1462
I00
tp2012
a(g1829
I01
tp2013
atp2014
Rp2015
s(g1745
I01
tp2016
g74
((lp2017
(S'even'
p2018
I01
tp2019
a(g1729
I01
tp2020
a(g1449
I00
tp2021
a(g1445
I01
tp2022
a(g1731
I01
tp2023
a(g1462
I01
tp2024
a(g1461
I01
tp2025
a(g1457
I00
tp2026
a(g1618
I01
tp2027
a(g1846
I00
tp2028
a(g1463
I00
tp2029
a(g1808
I00
tp2030
a(g1446
I01
tp2031
a(g1453
I01
tp2032
a(g1577
I00
tp2033
a(g1844
I00
tp2034
a(g1442
I00
tp2035
a(g1739
I01
tp2036
a(g1543
I01
tp2037
a(S'finite'
p2038
I01
tp2039
a(g1485
I01
tp2040
a(g1447
I00
tp2041
a(g1851
I00
tp2042
a(g1741
I01
tp2043
a(g1798
I00
tp2044
a(g1440
I00
tp2045
a(g1489
I00
tp2046
a(g1480
I00
tp2047
atp2048
Rp2049
s(g1814
I01
tp2050
g74
((lp2051
(S'complex'
p2052
I01
tp2053
a(g1449
I00
tp2054
a(g1526
I01
tp2055
a(g1528
I01
tp2056
a(g1453
I01
tp2057
a(g1447
I00
tp2058
a(g1446
I01
tp2059
atp2060
Rp2061
s(g1460
I00
tp2062
g74
((lp2063
tp2064
Rp2065
s(g1441
I00
tp2066
g74
((lp2067
(g1815
I00
tp2068
atp2069
Rp2070
s(g1456
I01
tp2071
g74
((lp2072
(g1618
I01
tp2073
a(g1454
I00
tp2074
a(g1447
I00
tp2075
a(g1670
I00
tp2076
a(g1686
I01
tp2077
a(g1449
I00
tp2078
a(g1452
I01
tp2079
a(g1808
I01
tp2080
a(g1655
I01
tp2081
a(g1459
I01
tp2082
a(g1684
I01
tp2083
a(g1457
I00
tp2084
a(g1729
I01
tp2085
a(g1453
I01
tp2086
a(g1465
I00
tp2087
a(g1461
I01
tp2088
a(g1446
I01
tp2089
a(g1577
I00
tp2090
atp2091
Rp2092
s(g1815
I01
tp2093
g74
((lp2094
(g1454
I00
tp2095
a(g1438
I00
tp2096
a(g1717
I00
tp2097
a(g1851
I00
tp2098
a(g1812
I01
tp2099
a(g1457
I00
tp2100
a(g1846
I00
tp2101
a(g1463
I00
tp2102
a(g1441
I01
tp2103
a(g1577
I00
tp2104
a(g1453
I01
tp2105
a(g1844
I00
tp2106
a(g1442
I00
tp2107
a(g1829
I01
tp2108
a(g1465
I00
tp2109
a(g1447
I00
tp2110
a(g1498
I00
tp2111
a(g1739
I00
tp2112
a(g1452
I00
tp2113
a(g1462
I00
tp2114
a(g1798
I00
tp2115
a(g1448
I00
tp2116
a(g1440
I00
tp2117
a(g1489
I00
tp2118
a(g1713
I00
tp2119
a(g1455
I00
tp2120
atp2121
Rp2122
s(g1463
I00
tp2123
g74
((lp2124
(g1846
I00
tp2125
a(g1456
I00
tp2126
a(g1442
I00
tp2127
atp2128
Rp2129
s(g1455
I00
tp2130
g74
((lp2131
(g1844
I00
tp2132
a(g1725
I00
tp2133
a(g1586
I00
tp2134
a(g1442
I00
tp2135
a(g1846
I00
tp2136
a(g1577
I00
tp2137
a(g1457
I00
tp2138
atp2139
Rp2140
s(g1446
I01
tp2141
g74
((lp2142
tp2143
Rp2144
s(g1725
I01
tp2145
g74
((lp2146
(g1438
I01
tp2147
a(g1454
I00
tp2148
a(g1447
I00
tp2149
a(g1449
I00
tp2150
a(g1452
I01
tp2151
a(g1455
I01
tp2152
a(g1464
I01
tp2153
a(g1453
I01
tp2154
a(g1461
I01
tp2155
a(g1446
I01
tp2156
atp2157
Rp2158
s(g1536
I00
tp2159
g74
((lp2160
tp2161
Rp2162
s(g1614
I00
tp2163
g74
((lp2164
tp2165
Rp2166
s(g1812
I00
tp2167
g74
((lp2168
(g1454
I00
tp2169
a(g1844
I00
tp2170
a(g1846
I00
tp2171
a(g1739
I00
tp2172
a(S'imaginary'
p2173
I00
tp2174
a(g1445
I00
tp2175
a(g1442
I00
tp2176
a(g1717
I00
tp2177
a(g1462
I00
tp2178
a(g1851
I00
tp2179
a(g1448
I00
tp2180
a(g1814
I00
tp2181
a(g1498
I00
tp2182
a(g1440
I00
tp2183
a(g1489
I00
tp2184
a(g1480
I00
tp2185
a(g1457
I00
tp2186
atp2187
Rp2188
s(g1453
I01
tp2189
g74
((lp2190
tp2191
Rp2192
s(g1458
I00
tp2193
g74
((lp2194
(g1698
I00
tp2195
atp2196
Rp2197
s(S'prime'
p2198
I01
tp2199
g74
((lp2200
(g1725
I01
tp2201
a(g1454
I00
tp2202
a(g1449
I00
tp2203
a(g1808
I01
tp2204
a(g1729
I01
tp2205
a(g1462
I01
tp2206
a(g1461
I01
tp2207
a(g1457
I00
tp2208
a(g1822
I01
tp2209
a(g1844
I01
tp2210
a(g1577
I00
tp2211
a(g1453
I01
tp2212
a(g1452
I01
tp2213
a(g1586
I01
tp2214
a(g1446
I01
tp2215
a(g1442
I00
tp2216
a(g1445
I01
tp2217
a(S'integer'
p2218
I01
tp2219
a(g1447
I00
tp2220
a(g1829
I01
tp2221
a(g1739
I00
tp2222
a(g1741
I01
tp2223
a(g1798
I00
tp2224
a(g1440
I00
tp2225
a(g1465
I00
tp2226
a(g1480
I00
tp2227
atp2228
Rp2229
s(g1982
I00
tp2230
g74
((lp2231
(g1454
I00
tp2232
a(g1846
I00
tp2233
a(g1442
I00
tp2234
a(g1448
I00
tp2235
a(g1498
I00
tp2236
a(g1489
I00
tp2237
a(S'rational'
p2238
I00
tp2239
atp2240
Rp2241
s(S'positive'
p2242
I00
tp2243
g74
((lp2244
(g1442
I00
tp2245
a(g1846
I00
tp2246
atp2247
Rp2248
s(g1452
I01
tp2249
g74
((lp2250
(g1449
I00
tp2251
a(S'commutative'
p2252
I01
tp2253
atp2254
Rp2255
s(g1586
I01
tp2256
g74
((lp2257
(g1454
I00
tp2258
a(g1739
I00
tp2259
a(g1449
I00
tp2260
a(g1543
I01
tp2261
a(g1581
I01
tp2262
a(g1577
I00
tp2263
a(g1443
I01
tp2264
a(g1453
I01
tp2265
a(g1596
I00
tp2266
a(g1457
I00
tp2267
atp2268
Rp2269
s(g1648
I01
tp2270
g74
((lp2271
(g1664
I01
tp2272
a(g1666
I00
tp2273
a(g1447
I00
tp2274
a(g1452
I01
tp2275
a(g1463
I00
tp2276
a(g1442
I00
tp2277
a(g1846
I00
tp2278
a(g1465
I01
tp2279
a(g1449
I00
tp2280
a(g1453
I01
tp2281
a(g1461
I01
tp2282
a(g1446
I01
tp2283
a(g1702
I01
tp2284
atp2285
Rp2286
s(g2038
I00
tp2287
g74
((lp2288
(g1454
I00
tp2289
a(g1456
I00
tp2290
a(g1846
I00
tp2291
a(g1707
I00
tp2292
a(g1449
I00
tp2293
a(g1474
I00
tp2294
a(g1442
I00
tp2295
a(g1717
I00
tp2296
a(g1480
I00
tp2297
a(g1532
I00
tp2298
a(g1448
I00
tp2299
a(g1725
I00
tp2300
a(g1498
I00
tp2301
a(g1440
I00
tp2302
a(g1489
I00
tp2303
a(g1992
I00
tp2304
a(g1462
I00
tp2305
a(g1698
I00
tp2306
atp2307
Rp2308
s(g1756
I00
tp2309
g74
((lp2310
tp2311
Rp2312
s(g1808
I01
tp2313
g74
((lp2314
(g1453
I01
tp2315
a(g1804
I01
tp2316
a(g1802
I00
tp2317
a(g1449
I00
tp2318
atp2319
Rp2320
s(g1458
I01
tp2321
g74
((lp2322
(g1454
I00
tp2323
a(g1844
I00
tp2324
a(g1543
I01
tp2325
a(g1453
I01
tp2326
a(g1449
I00
tp2327
a(g1442
I00
tp2328
a(g1717
I00
tp2329
a(g1571
I01
tp2330
a(g1846
I00
tp2331
a(g1573
I01
tp2332
a(g1463
I00
tp2333
a(g1606
I00
tp2334
atp2335
Rp2336
s(g2018
I00
tp2337
g74
((lp2338
(g1454
I00
tp2339
atp2340
Rp2341
s(g1485
I01
tp2342
g74
((lp2343
(g1822
I01
tp2344
a(g1447
I00
tp2345
a(g1449
I00
tp2346
a(g1452
I01
tp2347
a(g1445
I01
tp2348
a(g1798
I00
tp2349
a(g1829
I01
tp2350
a(g1440
I00
tp2351
a(g1453
I01
tp2352
a(S'rational'
p2353
I01
tp2354
a(g1461
I01
tp2355
a(g1480
I00
tp2356
a(g1446
I01
tp2357
atp2358
Rp2359
s(g1453
I00
tp2360
g74
((lp2361
(g1454
I00
tp2362
a(g1438
I00
tp2363
a(g1449
I00
tp2364
a(g1717
I00
tp2365
a(g1457
I00
tp2366
a(g1846
I00
tp2367
a(g1463
I00
tp2368
a(g1474
I00
tp2369
a(g1455
I00
tp2370
a(g1577
I00
tp2371
a(S'complex'
p2372
I00
tp2373
a(g1844
I00
tp2374
a(g1442
I00
tp2375
a(g1851
I00
tp2376
a(g1713
I00
tp2377
a(g1498
I00
tp2378
a(g1739
I00
tp2379
a(S'extended_real'
p2380
I00
tp2381
a(g1462
I00
tp2382
a(g1798
I00
tp2383
a(g1448
I00
tp2384
a(g1440
I00
tp2385
a(g1489
I00
tp2386
a(g1465
I00
tp2387
a(g1480
I00
tp2388
atp2389
Rp2390
s(g1443
I00
tp2391
g74
((lp2392
(g1735
I00
tp2393
a(g1844
I00
tp2394
a(g1846
I00
tp2395
a(g1586
I00
tp2396
a(g1442
I00
tp2397
a(g1717
I00
tp2398
atp2399
Rp2400
s(g1440
I01
tp2401
g74
((lp2402
(g1784
I01
tp2403
a(g1454
I00
tp2404
a(g1452
I01
tp2405
a(g1846
I00
tp2406
a(g1447
I00
tp2407
a(g1449
I00
tp2408
a(g1442
I00
tp2409
a(g1498
I00
tp2410
a(g1808
I01
tp2411
a(g1725
I01
tp2412
a(g1448
I00
tp2413
a(g1798
I01
tp2414
a(g1489
I00
tp2415
a(g1453
I01
tp2416
a(g1461
I01
tp2417
a(g1462
I00
tp2418
a(g1446
I01
tp2419
a(g1829
I01
tp2420
atp2421
Rp2422
s(g1502
I00
tp2423
g74
((lp2424
tp2425
Rp2426
s(g1439
I01
tp2427
g74
((lp2428
tp2429
Rp2430
s(g1813
I01
tp2431
g74
((lp2432
(g1447
I00
tp2433
atp2434
Rp2435
s(g1739
I00
tp2436
g74
((lp2437
(g1745
I00
tp2438
a(g1457
I00
tp2439
atp2440
Rp2441
s(g1480
I00
tp2442
g74
((lp2443
tp2444
Rp2445
s(g1442
I01
tp2446
g74
((lp2447
(g1725
I01
tp2448
a(g1454
I00
tp2449
a(g1449
I00
tp2450
a(g1445
I01
tp2451
a(g1729
I01
tp2452
a(g1462
I01
tp2453
a(g1461
I01
tp2454
a(g1457
I00
tp2455
a(g1822
I01
tp2456
a(g2198
I00
tp2457
a(g2242
I01
tp2458
a(g1577
I00
tp2459
a(g1453
I01
tp2460
a(g1586
I01
tp2461
a(g1446
I01
tp2462
a(g1452
I01
tp2463
a(g1808
I01
tp2464
a(g1448
I01
tp2465
a(g1447
I00
tp2466
a(g1829
I01
tp2467
a(g1739
I00
tp2468
a(g1741
I01
tp2469
a(g1798
I00
tp2470
a(g1440
I00
tp2471
a(g1465
I00
tp2472
a(g1480
I00
tp2473
atp2474
Rp2475
s(g1741
I01
tp2476
g74
((lp2477
(g1674
I01
tp2478
a(g1447
I00
tp2479
a(g1449
I00
tp2480
a(g1452
I01
tp2481
a(g1676
I00
tp2482
a(g1711
I01
tp2483
a(g1577
I00
tp2484
a(g1713
I01
tp2485
a(g1453
I01
tp2486
a(g1461
I01
tp2487
a(g1446
I01
tp2488
atp2489
Rp2490
s(g1798
I00
tp2491
g74
((lp2492
tp2493
Rp2494
s(g1592
I00
tp2495
g74
((lp2496
(g1536
I00
tp2497
a(g1844
I00
tp2498
a(g1846
I00
tp2499
a(g1739
I00
tp2500
a(g1532
I00
tp2501
a(g1463
I00
tp2502
a(g1808
I00
tp2503
a(g1442
I00
tp2504
a(g1717
I00
tp2505
a(g1798
I00
tp2506
a(g1448
I00
tp2507
a(g1851
I00
tp2508
a(g1498
I00
tp2509
a(g1538
I00
tp2510
a(g1440
I00
tp2511
a(g1489
I00
tp2512
a(g1606
I00
tp2513
a(g1462
I00
tp2514
a(g1457
I00
tp2515
a(g1596
I00
tp2516
atp2517
Rp2518
s(g1448
I00
tp2519
g74
((lp2520
(g1454
I00
tp2521
a(g1442
I00
tp2522
a(g1846
I00
tp2523
a(g1498
I00
tp2524
a(g1489
I00
tp2525
atp2526
Rp2527
s(g1798
I01
tp2528
g74
((lp2529
(g1454
I00
tp2530
a(g1794
I01
tp2531
a(g1449
I00
tp2532
a(g1442
I00
tp2533
a(g1498
I00
tp2534
a(g1808
I01
tp2535
a(g1792
I00
tp2536
a(g1846
I00
tp2537
a(g1489
I00
tp2538
a(g1453
I01
tp2539
atp2540
Rp2541
s(g1450
I00
tp2542
g74
((lp2543
tp2544
Rp2545
s(g1447
I01
tp2546
g74
((lp2547
(g1813
I00
tp2548
a(g1454
I00
tp2549
a(g1844
I00
tp2550
a(g1846
I00
tp2551
a(g1739
I00
tp2552
a(g1449
I00
tp2553
a(g1474
I00
tp2554
a(g1442
I00
tp2555
a(g1717
I00
tp2556
a(g1462
I00
tp2557
a(g1851
I00
tp2558
a(g1448
I00
tp2559
a(g1438
I00
tp2560
a(g1498
I00
tp2561
a(g1440
I00
tp2562
a(g1489
I00
tp2563
a(g1812
I00
tp2564
a(g1480
I00
tp2565
a(g1457
I00
tp2566
atp2567
Rp2568
s(g1465
I00
tp2569
g74
((lp2570
(g1735
I00
tp2571
a(g1707
I00
tp2572
a(g1577
I00
tp2573
a(g1457
I00
tp2574
atp2575
Rp2576
s(g1462
I00
tp2577
g74
((lp2578
(g1454
I00
tp2579
a(g1498
I00
tp2580
a(g1442
I00
tp2581
a(S'integer'
p2582
I00
tp2583
a(g1846
I00
tp2584
a(g1489
I00
tp2585
atp2586
Rp2587
ssg1193
g422
(g74
tp2588
Rp2589
g1739
g74
((lp2590
g1438
ag2198
ag1592
ag1453
ag1442
ag1456
ag1465
ag1457
ag1745
ag1812
ag1447
ag1586
ag1446
ag2038
ag1815
atp2591
Rp2592
sg1454
g74
((lp2593
g1438
ag2018
ag1480
ag1739
ag1442
ag1465
ag1982
ag1446
ag1447
ag1448
ag1815
ag1489
ag1440
ag1725
ag1592
ag1453
ag1808
ag1456
ag1798
ag1457
ag1458
ag1459
ag2198
ag1812
ag1462
ag1586
ag2038
ag1443
atp2594
Rp2595
sg1489
g74
((lp2596
g1438
ag1480
ag1982
ag1745
ag1447
ag1448
ag1815
ag1440
ag1444
ag1592
ag1453
ag1798
ag1446
ag1812
ag1462
ag2038
atp2597
Rp2598
sg1440
g74
((lp2599
g1444
ag1438
ag1592
ag1453
ag1442
ag2198
ag1446
ag1745
ag1812
ag1462
ag1447
ag1485
ag1815
ag2038
ag1489
atp2600
Rp2601
sg1851
g74
((lp2602
g1438
ag1440
ag1442
ag1455
ag1745
ag1447
ag1446
ag1489
ag1815
ag2198
ag1592
ag1453
ag1456
ag1457
ag1812
ag2038
atp2603
Rp2604
sg1439
g74
((lp2605
tp2606
Rp2607
sg1453
g74
((lp2608
g1814
ag1725
ag1440
ag1648
ag1442
ag1465
ag1808
ag1745
ag1485
ag1815
ag1741
ag1489
ag1444
ag1452
ag1445
ag1456
ag1798
ag1457
ag1458
ag1462
ag2198
ag1992
ag1480
ag1586
ag1729
atp2609
Rp2610
sg1844
g74
((lp2611
g1438
ag2198
ag1648
ag1442
ag1465
ag1455
ag1745
ag1447
ag1446
ag1815
ag1646
ag1592
ag1453
ag1457
ag1458
ag1459
ag1812
ag1463
ag2038
ag1443
atp2612
Rp2613
sg1798
g74
((lp2614
g1444
ag2198
ag1592
ag1453
ag1442
ag1745
ag1485
ag1815
ag1489
ag1440
atp2615
Rp2616
sg1457
g74
((lp2617
g1438
ag2198
ag1739
ag1442
ag1729
ag1455
ag1745
ag1447
ag1815
ag1646
ag1592
ag1453
ag1456
ag1446
ag1458
ag1741
ag1812
ag1586
ag2038
ag1465
atp2618
Rp2619
sg1602
g74
((lp2620
g2198
ag1592
ag1453
ag1442
ag1456
ag1729
ag1457
ag1741
ag1455
ag1745
ag1586
ag1815
ag1465
atp2621
Rp2622
sg1461
g74
((lp2623
g1814
ag2198
ag1440
ag1648
ag1442
ag1445
ag1745
ag1725
ag1447
ag1485
ag1815
ag1489
ag1453
ag1444
ag1480
ag1456
ag1457
ag1741
ag1462
ag2038
atp2624
Rp2625
sg1462
g74
((lp2626
g1438
ag2198
ag1440
ag1442
ag1982
ag1745
ag1447
ag1485
ag1815
ag1489
ag1444
ag1592
ag1453
ag1446
ag1812
ag1480
ag2038
atp2627
Rp2628
sg1829
g74
((lp2629
g1814
ag2198
ag1462
ag1648
ag1442
ag1445
ag1745
ag1447
ag1485
ag1815
ag1489
ag1440
ag1444
ag1456
ag1457
ag1741
ag1992
ag1480
ag1725
atp2630
Rp2631
sg1465
g74
((lp2632
g2198
ag1592
ag1453
ag1648
ag1442
ag1456
ag1457
ag1458
ag1745
ag1815
ag1586
atp2633
Rp2634
sg1822
g74
((lp2635
g1725
ag1440
ag1648
ag1442
ag1745
ag1447
ag1485
ag1446
ag1489
ag1815
ag1444
ag1592
ag1453
ag1456
ag1457
ag1741
ag2198
ag1812
ag1462
ag2038
atp2636
Rp2637
sg1498
g74
((lp2638
g1438
ag1480
ag1982
ag1745
ag1447
ag1448
ag1815
ag1489
ag1440
ag1592
ag1453
ag1798
ag1446
ag1812
ag1462
ag2038
atp2639
Rp2640
sg1480
g74
((lp2641
g1444
ag2198
ag1453
ag1442
ag1445
ag1745
ag1812
ag1462
ag1447
ag1485
ag2038
ag1489
atp2642
Rp2643
sg1441
g74
((lp2644
g1815
atp2645
Rp2646
sg1442
g74
((lp2647
g1438
ag2198
ag1446
ag1480
ag1648
ag1443
ag1982
ag1745
ag1447
ag1448
ag1815
ag1440
ag1646
ag1592
ag1453
ag1455
ag2242
ag1798
ag1457
ag1458
ag1459
ag1812
ag1462
ag1463
ag2038
ag1465
atp2648
Rp2649
sg1713
g74
((lp2650
g2198
ag1592
ag1453
ag1442
ag1456
ag1457
ag1458
ag1741
ag1745
ag1815
ag1586
atp2651
Rp2652
sg1445
g74
((lp2653
g1444
ag2198
ag1480
ag1442
ag1745
ag1812
ag1462
ag1447
ag1485
ag2038
ag1489
ag1453
atp2654
Rp2655
sg1447
g74
((lp2656
g1814
ag2198
ag1462
ag1648
ag1442
ag1445
ag1745
ag1725
ag1485
ag1815
ag1489
ag1440
ag1444
ag1456
ag1457
ag1741
ag1992
ag1480
ag1813
atp2657
Rp2658
sg1493
g74
((lp2659
g1438
ag2198
ag1480
ag1442
ag1982
ag1745
ag1447
ag1815
ag1489
ag1440
ag1444
ag1592
ag1453
ag1798
ag1446
ag1812
ag1462
ag2038
atp2660
Rp2661
sg1449
g74
((lp2662
g1814
ag1725
ag1440
ag1441
ag1648
ag1442
ag1465
ag1808
ag1745
ag1447
ag1485
ag1489
ag1444
ag1452
ag1453
ag1456
ag1798
ag1457
ag1458
ag1741
ag2198
ag1812
ag1462
ag1586
ag2038
ag1729
atp2663
Rp2664
sg1846
g74
((lp2665
g1438
ag1446
ag1480
ag1648
ag1442
ag1443
ag1982
ag1745
ag1447
ag1448
ag1815
ag1440
ag1646
ag1592
ag1453
ag1455
ag2242
ag1798
ag1457
ag1458
ag1459
ag1812
ag1462
ag1463
ag2038
ag1465
atp2666
Rp2667
sg1452
g74
((lp2668
g1814
ag1725
ag1440
ag1648
ag1442
ag1465
ag1808
ag1745
ag1485
ag1815
ag1489
ag1444
ag1453
ag1456
ag1798
ag1457
ag1458
ag1741
ag2198
ag1462
ag1586
ag1729
atp2669
Rp2670
sg1808
g74
((lp2671
g1725
ag2198
ag1592
ag1453
ag1442
ag1456
ag1798
ag1457
ag1458
ag1745
ag1815
ag1489
ag1586
ag1440
atp2672
Rp2673
sg1446
g74
((lp2674
g1444
ag1814
ag1440
ag1648
ag1442
ag1456
ag1457
ag1741
ag2198
ag1745
ag1462
ag1485
ag1725
ag1489
atp2675
Rp2676
sg1717
g74
((lp2677
g1438
ag2198
ag1592
ag1453
ag1442
ag1456
ag1443
ag1457
ag1458
ag1745
ag1812
ag1447
ag1446
ag2038
ag1815
atp2678
Rp2679
sg1463
g74
((lp2680
g2198
ag1592
ag1453
ag1648
ag1442
ag1456
ag1465
ag1457
ag1458
ag1455
ag1745
ag1815
ag1443
atp2681
Rp2682
ssg1289
g422
(g74
tp2683
Rp2684
(g1444
I01
tp2685
(lp2686
I8
aI9
aI10
aI13
aI14
aI16
aI17
aI18
aI21
aI22
aI23
aI24
aI25
aI26
aI27
aI30
aI31
aI33
aI36
as(g1446
I00
tp2687
(lp2688
I3
aI4
aI7
aI8
aI10
aI35
aI36
as(g1438
I00
tp2689
(lp2690
I3
aI4
aI7
aI8
aI10
aI35
aI36
as(g1729
I01
tp2691
(lp2692
I4
aI5
aI6
aI9
aI10
aI12
aI13
aI15
aI17
aI18
aI22
aI26
aI28
aI35
aI36
as(g1457
I01
tp2693
(lp2694
I0
aI34
aI35
as(g1815
I00
tp2695
g74
((lp2696
tp2697
Rp2698
s(g1459
I00
tp2699
(lp2700
I7
aI8
aI10
aI15
aI16
aI21
aI36
as(g1445
I01
tp2701
(lp2702
I3
aI5
aI6
aI23
aI24
aI25
aI26
aI27
as(g1646
I00
tp2703
(lp2704
I15
aI17
aI21
aI22
as(g1489
I01
tp2705
(lp2706
I8
aI10
aI11
aI12
aI13
aI14
aI16
aI18
aI19
aI20
aI21
aI22
aI23
aI24
aI25
aI26
as(g1465
I01
tp2707
(lp2708
I4
aI5
aI6
aI8
aI9
aI11
aI14
aI15
aI16
aI17
aI21
aI25
aI28
aI35
aI36
as(g1462
I01
tp2709
(lp2710
I8
aI9
aI10
aI13
aI14
aI16
aI17
aI18
aI21
aI22
aI23
aI24
aI25
aI26
aI27
aI35
aI36
as(g1992
I01
tp2711
(lp2712
I0
aI3
aI5
aI6
aI23
aI24
aI25
aI26
aI27
as(g1480
I01
tp2713
(lp2714
I3
aI5
aI6
aI7
aI8
aI10
aI15
aI16
aI18
aI23
aI24
aI25
aI26
aI27
aI34
aI35
aI36
as(g1745
I01
tp2715
(lp2716
s(g1814
I01
tp2717
(lp2718
I0
aI8
aI9
aI10
aI13
aI14
aI16
aI17
aI18
aI21
aI22
aI23
aI24
aI25
aI26
aI27
aI34
aI35
aI36
as(g1460
I00
tp2719
(lp2720
I30
aI32
aI33
as(g1441
I00
tp2721
(lp2722
s(g1456
I01
tp2723
(lp2724
I0
aI30
aI31
aI32
aI34
aI35
as(g1815
I01
tp2725
(lp2726
I0
as(g1463
I00
tp2727
(lp2728
I7
aI8
aI9
aI13
aI15
aI16
aI17
aI21
as(g1455
I00
tp2729
(lp2730
I7
aI9
aI13
aI14
aI15
aI17
aI21
aI22
as(g1446
I01
tp2731
g74
((lp2732
tp2733
Rp2734
s(g1725
I01
tp2735
(lp2736
I0
aI8
aI10
aI11
aI12
aI13
aI14
aI16
aI18
aI19
aI20
aI21
aI22
aI23
aI24
aI25
aI26
aI34
aI35
as(g1536
I00
tp2737
(lp2738
I7
aI8
aI10
aI15
aI16
aI18
aI36
as(g1614
I00
tp2739
(lp2740
I15
aI17
aI18
aI22
as(g1812
I00
tp2741
(lp2742
I3
aI4
aI7
aI8
aI10
aI35
aI36
as(g1453
I01
tp2743
g74
((lp2744
tp2745
Rp2746
s(g1458
I00
tp2747
(lp2748
I7
aI9
aI10
aI14
aI15
aI17
aI18
aI22
as(g2198
I01
tp2749
(lp2750
I1
aI2
as(g1982
I00
tp2751
(lp2752
I0
aI7
aI8
aI10
aI15
aI16
aI18
aI34
aI35
aI36
as(g2242
I00
tp2753
(lp2754
I15
aI16
aI17
aI21
as(g1452
I01
tp2755
(lp2756
I4
aI5
aI6
aI8
aI9
aI10
aI13
aI14
aI35
aI36
as(g1586
I01
tp2757
(lp2758
I4
aI5
aI6
aI15
aI18
aI22
aI23
aI26
aI27
aI35
as(g1648
I01
tp2759
(lp2760
I0
aI8
aI9
aI11
aI14
aI16
aI17
aI19
aI22
aI24
aI26
aI27
aI28
aI29
aI34
aI35
aI36
as(g2038
I00
tp2761
(lp2762
I3
aI4
aI7
aI8
aI10
aI35
aI36
as(g1756
I00
tp2763
(lp2764
I31
aI32
aI33
as(g1808
I01
tp2765
(lp2766
I4
aI5
aI6
aI8
aI10
aI11
aI12
aI13
aI14
aI15
aI16
aI18
aI27
aI35
as(g1458
I01
tp2767
(lp2768
I4
aI5
aI6
aI15
aI16
aI21
aI24
aI25
aI27
aI35
as(g2018
I00
tp2769
(lp2770
I1
aI7
aI8
aI10
aI15
aI16
aI18
aI36
as(g1485
I01
tp2771
(lp2772
I1
aI2
aI8
aI9
aI10
aI13
aI14
aI16
aI17
aI18
aI21
aI22
aI23
aI24
aI25
aI26
aI27
aI36
as(g1453
I00
tp2773
(lp2774
s(g1443
I00
tp2775
(lp2776
I7
aI8
aI13
aI15
aI16
aI21
aI36
as(g1440
I01
tp2777
(lp2778
I0
aI8
aI10
aI11
aI12
aI13
aI14
aI16
aI18
aI19
aI20
aI21
aI22
aI23
aI24
aI25
aI26
as(g1502
I00
tp2779
(lp2780
I3
aI5
as(g1439
I01
tp2781
g74
((lp2782
tp2783
Rp2784
s(g1813
I01
tp2785
(lp2786
I3
aI5
aI6
aI23
aI24
aI25
aI26
aI27
as(g1739
I00
tp2787
(lp2788
I7
aI8
aI10
aI15
aI18
aI22
aI36
as(g1480
I00
tp2789
g74
((lp2790
tp2791
Rp2792
s(g1442
I01
tp2793
(lp2794
I1
aI2
as(g1741
I01
tp2795
(lp2796
I0
aI9
aI10
aI12
aI13
aI17
aI18
aI20
aI21
aI23
aI25
aI27
aI28
aI29
aI34
aI35
aI36
as(g1798
I00
tp2797
g74
((lp2798
tp2799
Rp2800
s(g1592
I00
tp2801
(lp2802
s(g1448
I00
tp2803
(lp2804
I7
aI8
aI10
aI15
aI16
aI18
aI35
aI36
as(g1798
I01
tp2805
(lp2806
I4
aI5
aI6
aI8
aI10
aI11
aI12
aI13
aI14
aI15
aI16
aI18
aI27
as(g1450
I00
tp2807
(lp2808
I2
as(g1447
I01
tp2809
(lp2810
I7
aI8
aI10
aI35
aI36
as(g1465
I00
tp2811
(lp2812
I7
aI10
aI14
aI15
aI18
aI22
aI36
as(g1462
I00
tp2813
(lp2814
I7
aI8
aI10
aI15
aI16
aI18
aI34
aI35
aI36
assbsg1422
(dp2815
g1451
I01
sS'finite'
p2816
I01
ssbsbg7
tp2817
Rp2818
(dp2819
btp2820
Rp2821
(dp2822
bg0
(g3
g5
(g25
(S'\\gamma'
p2823
tp2824
Rp2825
(dp2826
g30
g31
(g32
g33
(dp2827
g1438
I01
sg1439
Nsg1440
Nsg1441
Nsg1442
Nsg1443
Nsg1444
Nsg1445
Nsg1446
I01
sg1447
I00
sg1448
Nsg1449
I00
sg1450
Nsg1451
I01
sg1452
I01
sg1453
I01
sg1454
I00
sg1455
I01
sg1456
Nsg1457
Nsg1458
Nsg1459
Nsg1460
Nsg1461
I01
sg1462
Nsg1463
Nsg1464
I01
sg1465
Nstp2828
Rp2829
(dp2830
g66
g1470
sg1422
(dp2831
g1451
I01
sg2816
I01
ssbsbg7
tp2832
Rp2833
(dp2834
btp2835
Rp2836
(dp2837
bg0
(g5
(g17
g1
(I2
tp2838
Rp2839
(dp2840
btp2841
Rp2842
(dp2843
bg5
(g1435
g3
tp2844
Rp2845
(dp2846
btp2847
Rp2848
(dp2849
bg0
(g2842
g5
(g2825
g3
tp2850
Rp2851
(dp2852
btp2853
Rp2854
(dp2855
bg0
(g1
(I12
tp2856
Rp2857
(dp2858
bg5
(g1435
g2839
tp2859
Rp2860
(dp2861
bg2851
tp2862
Rp2863
(dp2864
bg0
(g2857
g2845
g5
(g2825
g2839
tp2865
Rp2866
(dp2867
btp2868
Rp2869
(dp2870
bg0
(g2839
g2842
g2860
g2866
tp2871
Rp2872
(dp2873
btp2874
Rp2875
(dp2876
bcsympy.core.numbers
Rational
p2877
(I-1
I2
tp2878
Rp2879
(dp2880
btp2881
Rp2882
(dp2883
bg1432
(g5
(g1435
g2839
tp2884
Rp2885
(dp2886
bg2866
tp2887
Rp2888
(dp2889
btp2890
Rp2891
(dp2892
b.