csympy.core.mul
Mul
p0
(csympy.core.numbers
Rational
p1
(I-8
I3
tp2
Rp3
(dp4
bcsympy.core.symbol
Symbol
p5
(S'\\gamma'
p6
tp7
Rp8
(dp9
S'_assumptions'
p10
ccopy_reg
_reconstructor
p11
(csympy.core.assumptions
StdFactKB
p12
c__builtin__
dict
p13
(dp14
S'real'
p15
I01
sS'polar'
p16
NsS'irrational'
p17
NsS'antihermitian'
p18
NsS'composite'
p19
NsS'extended_nonnegative'
p20
NsS'even'
p21
NsS'algebraic'
p22
NsS'hermitian'
p23
I01
sS'infinite'
p24
I00
sS'integer'
p25
NsS'imaginary'
p26
I00
sS'odd'
p27
NsS'nonzero'
p28
I01
sS'extended_real'
p29
I01
sS'commutative'
p30
I01
sS'zero'
p31
I00
sS'extended_nonzero'
p32
I01
sS'positive'
p33
NsS'negative'
p34
NsS'extended_negative'
p35
NsS'nonnegative'
p36
NsS'prime'
p37
NsS'complex'
p38
I01
sS'rational'
p39
NsS'extended_positive'
p40
NsS'finite'
p41
I01
sS'extended_nonpositive'
p42
Nstp43
Rp44
(dp45
S'rules'
p46
g11
(csympy.core.facts
FactRules
p47
c__builtin__
object
p48
Ntp49
Rp50
(dp51
S'beta_rules'
p52
(lp53
(c__builtin__
set
p54
((lp55
(S'algebraic'
p56
I00
tp57
a(S'complex'
p58
I01
tp59
atp60
Rp61
(S'transcendental'
p62
I01
tp63
tp64
a(g54
((lp65
(g21
I00
tp66
a(S'integer'
p67
I01
tp68
atp69
Rp70
(S'odd'
p71
I01
tp72
tp73
a(g54
((lp74
(S'integer'
p75
I01
tp76
a(g27
I00
tp77
atp78
Rp79
(S'even'
p80
I01
tp81
tp82
a(g54
((lp83
(S'infinite'
p84
I00
tp85
a(S'real'
p86
I00
tp87
atp88
Rp89
(S'extended_real'
p90
I00
tp91
tp92
a(g54
((lp93
(g90
I01
tp94
a(g86
I00
tp95
atp96
Rp97
(g84
I01
tp98
tp99
a(g54
((lp100
(g90
I01
tp101
a(g84
I00
tp102
atp103
Rp104
(g86
I01
tp105
tp106
a(g54
((lp107
(S'extended_real'
p108
I01
tp109
a(S'finite'
p110
I01
tp111
atp112
Rp113
(S'real'
p114
I01
tp115
tp116
a(g54
((lp117
(S'zero'
p118
I00
tp119
a(S'extended_negative'
p120
I00
tp121
a(g40
I00
tp122
atp123
Rp124
(S'extended_real'
p125
I00
tp126
tp127
a(g54
((lp128
(g118
I00
tp129
a(g125
I01
tp130
a(g40
I00
tp131
atp132
Rp133
(g120
I01
tp134
tp135
a(g54
((lp136
(g40
I00
tp137
a(g125
I01
tp138
a(g120
I00
tp139
atp140
Rp141
(g118
I01
tp142
tp143
a(g54
((lp144
(g118
I00
tp145
a(g125
I01
tp146
a(g120
I00
tp147
atp148
Rp149
(g40
I01
tp150
tp151
a(g54
((lp152
(S'extended_nonzero'
p153
I01
tp154
a(S'extended_nonpositive'
p155
I01
tp156
atp157
Rp158
(S'extended_negative'
p159
I01
tp160
tp161
a(g54
((lp162
(S'extended_nonzero'
p163
I01
tp164
a(g20
I01
tp165
atp166
Rp167
(S'extended_positive'
p168
I01
tp169
tp170
a(g54
((lp171
(S'extended_positive'
p172
I00
tp173
a(S'extended_real'
p174
I01
tp175
atp176
Rp177
(S'extended_nonpositive'
p178
I01
tp179
tp180
a(g54
((lp181
(S'extended_real'
p182
I01
tp183
a(S'extended_negative'
p184
I00
tp185
atp186
Rp187
(S'extended_nonnegative'
p188
I01
tp189
tp190
a(g54
((lp191
(S'zero'
p192
I00
tp193
a(S'positive'
p194
I00
tp195
a(S'negative'
p196
I00
tp197
atp198
Rp199
(S'real'
p200
I00
tp201
tp202
a(g54
((lp203
(g200
I01
tp204
a(g192
I00
tp205
a(g194
I00
tp206
atp207
Rp208
(g196
I01
tp209
tp210
a(g54
((lp211
(g200
I01
tp212
a(g194
I00
tp213
a(g196
I00
tp214
atp215
Rp216
(g192
I01
tp217
tp218
a(g54
((lp219
(g200
I01
tp220
a(g192
I00
tp221
a(g196
I00
tp222
atp223
Rp224
(g194
I01
tp225
tp226
a(g54
((lp227
(S'nonzero'
p228
I01
tp229
a(S'nonpositive'
p230
I01
tp231
atp232
Rp233
(g34
I01
tp234
tp235
a(g54
((lp236
(S'nonzero'
p237
I01
tp238
a(g36
I01
tp239
atp240
Rp241
(S'positive'
p242
I01
tp243
tp244
a(g54
((lp245
(S'real'
p246
I01
tp247
a(S'positive'
p248
I00
tp249
atp250
Rp251
(S'nonpositive'
p252
I01
tp253
tp254
a(g54
((lp255
(S'real'
p256
I01
tp257
a(S'negative'
p258
I00
tp259
atp260
Rp261
(S'nonnegative'
p262
I01
tp263
tp264
a(g54
((lp265
(S'finite'
p266
I01
tp267
a(S'extended_positive'
p268
I01
tp269
atp270
Rp271
(g33
I01
tp272
tp273
a(g54
((lp274
(g35
I01
tp275
a(S'finite'
p276
I01
tp277
atp278
Rp279
(S'negative'
p280
I01
tp281
tp282
a(g54
((lp283
(S'finite'
p284
I01
tp285
a(g42
I01
tp286
atp287
Rp288
(S'nonpositive'
p289
I01
tp290
tp291
a(g54
((lp292
(S'finite'
p293
I01
tp294
a(S'extended_nonnegative'
p295
I01
tp296
atp297
Rp298
(S'nonnegative'
p299
I01
tp300
tp301
a(g54
((lp302
(g41
I01
tp303
a(g32
I01
tp304
atp305
Rp306
(S'nonzero'
p307
I01
tp308
tp309
a(g54
((lp310
(S'extended_nonnegative'
p311
I01
tp312
a(S'extended_nonpositive'
p313
I01
tp314
atp315
Rp316
(S'zero'
p317
I01
tp318
tp319
a(g54
((lp320
(S'nonpositive'
p321
I01
tp322
a(S'nonnegative'
p323
I01
tp324
atp325
Rp326
(S'zero'
p327
I01
tp328
tp329
a(g54
((lp330
(S'even'
p331
I01
tp332
a(g37
I00
tp333
a(S'positive'
p334
I01
tp335
atp336
Rp337
(S'composite'
p338
I01
tp339
tp340
a(g54
((lp341
(g331
I01
tp342
a(g338
I00
tp343
a(g334
I01
tp344
atp345
Rp346
(g37
I01
tp347
tp348
a(g54
((lp349
(g338
I00
tp350
a(g37
I00
tp351
a(g334
I01
tp352
atp353
Rp354
(g331
I00
tp355
tp356
a(g54
((lp357
(g331
I01
tp358
a(g338
I00
tp359
a(g37
I00
tp360
atp361
Rp362
(g334
I00
tp363
tp364
a(g54
((lp365
(S'real'
p366
I01
tp367
a(g39
I00
tp368
atp369
Rp370
(g17
I01
tp371
tp372
a(g54
((lp373
(S'integer'
p374
I00
tp375
a(S'extended_real'
p376
I01
tp377
atp378
Rp379
(S'noninteger'
p380
I01
tp381
tp382
a(g54
((lp383
(S'zero'
p384
I00
tp385
a(S'extended_real'
p386
I01
tp387
atp388
Rp389
(S'extended_nonzero'
p390
I01
tp391
tp392
asS'defined_facts'
p393
g54
((lp394
g321
ag23
ag27
ag21
ag30
ag33
ag380
ag34
ag35
aS'complex'
p395
ag39
aS'finite'
p396
ag20
aS'real'
p397
ag307
ag17
ag18
ag19
ag42
ag32
ag84
ag25
aS'imaginary'
p398
ag37
ag29
ag22
ag327
ag36
ag40
ag62
atp399
Rp400
sS'full_implications'
p401
ccollections
defaultdict
p402
(g54
tp403
Rp404
(g21
I01
tp405
g54
((lp406
(S'real'
p407
I01
tp408
a(g24
I00
tp409
a(g26
I00
tp410
a(g29
I01
tp411
a(g22
I01
tp412
a(g380
I00
tp413
a(S'finite'
p414
I01
tp415
a(g75
I01
tp416
a(g17
I00
tp417
a(g71
I00
tp418
a(g30
I01
tp419
a(g39
I01
tp420
a(g38
I01
tp421
a(g62
I00
tp422
a(g23
I01
tp423
atp424
Rp425
s(g23
I00
tp426
g54
((lp427
(g31
I00
tp428
a(S'positive'
p429
I00
tp430
a(S'prime'
p431
I00
tp432
a(g321
I00
tp433
a(g19
I00
tp434
a(g299
I00
tp435
a(S'nonzero'
p436
I00
tp437
a(g25
I00
tp438
a(g407
I00
tp439
a(g80
I00
tp440
a(g17
I00
tp441
a(g71
I00
tp442
a(g39
I00
tp443
a(g34
I00
tp444
atp445
Rp446
s(g15
I00
tp447
g54
((lp448
(g192
I00
tp449
a(g194
I00
tp450
a(g436
I00
tp451
a(g252
I00
tp452
a(g19
I00
tp453
a(g262
I00
tp454
a(g25
I00
tp455
a(g431
I00
tp456
a(g80
I00
tp457
a(g17
I00
tp458
a(g71
I00
tp459
a(S'rational'
p460
I00
tp461
a(g196
I00
tp462
atp463
Rp464
s(g311
I01
tp465
g54
((lp466
(g26
I00
tp467
a(g182
I01
tp468
a(g184
I00
tp469
a(g34
I00
tp470
a(g30
I01
tp471
atp472
Rp473
s(g34
I01
tp474
g54
((lp475
(g200
I01
tp476
a(g228
I01
tp477
a(g429
I00
tp478
a(g431
I00
tp479
a(g24
I00
tp480
a(g230
I01
tp481
a(g29
I01
tp482
a(g40
I00
tp483
a(g19
I00
tp484
a(g262
I00
tp485
a(g390
I01
tp486
a(g26
I00
tp487
a(g35
I01
tp488
a(g276
I01
tp489
a(g31
I00
tp490
a(g42
I01
tp491
a(g30
I01
tp492
a(g295
I00
tp493
a(g38
I01
tp494
a(g23
I01
tp495
atp496
Rp497
s(g398
I00
tp498
g54
((lp499
tp500
Rp501
s(g36
I00
tp502
g54
((lp503
(g431
I00
tp504
a(g242
I00
tp505
a(g19
I00
tp506
a(g327
I00
tp507
atp508
Rp509
s(g22
I01
tp510
g54
((lp511
(g30
I01
tp512
a(g24
I00
tp513
a(g38
I01
tp514
a(g62
I00
tp515
a(g414
I01
tp516
atp517
Rp518
s(g228
I00
tp519
g54
((lp520
(g242
I00
tp521
a(g431
I00
tp522
a(g34
I00
tp523
a(g19
I00
tp524
atp525
Rp526
s(g71
I01
tp527
g54
((lp528
(g407
I01
tp529
a(g31
I00
tp530
a(g24
I00
tp531
a(g26
I00
tp532
a(g29
I01
tp533
a(g21
I00
tp534
a(g22
I01
tp535
a(g307
I01
tp536
a(g390
I01
tp537
a(g380
I00
tp538
a(g414
I01
tp539
a(g67
I01
tp540
a(g17
I00
tp541
a(g30
I01
tp542
a(g39
I01
tp543
a(g38
I01
tp544
a(g62
I00
tp545
a(g23
I01
tp546
atp547
Rp548
s(g42
I01
tp549
g54
((lp550
(g429
I00
tp551
a(g19
I00
tp552
a(g172
I00
tp553
a(g174
I01
tp554
a(g431
I00
tp555
a(g26
I00
tp556
a(g30
I01
tp557
atp558
Rp559
s(g39
I01
tp560
g54
((lp561
(S'real'
p562
I01
tp563
a(g24
I00
tp564
a(g26
I00
tp565
a(g29
I01
tp566
a(S'algebraic'
p567
I01
tp568
a(g414
I01
tp569
a(g17
I00
tp570
a(g30
I01
tp571
a(g38
I01
tp572
a(g62
I00
tp573
a(g23
I01
tp574
atp575
Rp576
s(S'complex'
p577
I01
tp578
g54
((lp579
(g30
I01
tp580
a(g24
I00
tp581
a(g414
I01
tp582
atp583
Rp584
s(g62
I01
tp585
g54
((lp586
(g31
I00
tp587
a(g24
I00
tp588
a(g56
I00
tp589
a(g19
I00
tp590
a(g80
I00
tp591
a(g25
I00
tp592
a(g431
I00
tp593
a(g71
I00
tp594
a(g30
I01
tp595
a(g58
I01
tp596
a(g39
I00
tp597
a(g414
I01
tp598
atp599
Rp600
s(g327
I01
tp601
g54
((lp602
(S'even'
p603
I01
tp604
a(g311
I01
tp605
a(g26
I00
tp606
a(g22
I01
tp607
a(g313
I01
tp608
a(g39
I01
tp609
a(g38
I01
tp610
a(g34
I00
tp611
a(g200
I01
tp612
a(g431
I00
tp613
a(g40
I00
tp614
a(g390
I00
tp615
a(g23
I01
tp616
a(g30
I01
tp617
a(g159
I00
tp618
a(g429
I00
tp619
a(g19
I00
tp620
a(g321
I01
tp621
a(g125
I01
tp622
a(S'finite'
p623
I01
tp624
a(g67
I01
tp625
a(g24
I00
tp626
a(g436
I00
tp627
a(g323
I01
tp628
a(g380
I00
tp629
a(g17
I00
tp630
a(g71
I00
tp631
a(g62
I00
tp632
atp633
Rp634
s(g397
I01
tp635
g54
((lp636
(S'complex'
p637
I01
tp638
a(g26
I00
tp639
a(g108
I01
tp640
a(g110
I01
tp641
a(g30
I01
tp642
a(g24
I00
tp643
a(g23
I01
tp644
atp645
Rp646
s(g37
I00
tp647
g54
((lp648
tp649
Rp650
s(g18
I00
tp651
g54
((lp652
(g398
I00
tp653
atp654
Rp655
s(g33
I01
tp656
g54
((lp657
(g200
I01
tp658
a(g31
I00
tp659
a(g24
I00
tp660
a(g252
I00
tp661
a(g268
I01
tp662
a(g26
I00
tp663
a(g29
I01
tp664
a(g390
I01
tp665
a(g237
I01
tp666
a(g36
I01
tp667
a(g266
I01
tp668
a(g34
I00
tp669
a(g311
I01
tp670
a(g30
I01
tp671
a(g42
I00
tp672
a(g38
I01
tp673
a(g23
I01
tp674
a(g159
I00
tp675
atp676
Rp677
s(g398
I01
tp678
g54
((lp679
(g31
I00
tp680
a(g15
I00
tp681
a(g299
I00
tp682
a(g436
I00
tp683
a(g395
I01
tp684
a(g34
I00
tp685
a(g431
I00
tp686
a(g40
I00
tp687
a(g18
I01
tp688
a(g159
I00
tp689
a(g30
I01
tp690
a(g429
I00
tp691
a(g19
I00
tp692
a(g414
I01
tp693
a(g42
I00
tp694
a(g24
I00
tp695
a(g80
I00
tp696
a(g321
I00
tp697
a(g29
I00
tp698
a(g39
I00
tp699
a(g380
I00
tp700
a(g25
I00
tp701
a(g17
I00
tp702
a(g71
I00
tp703
a(g295
I00
tp704
a(g32
I00
tp705
atp706
Rp707
s(g40
I00
tp708
g54
((lp709
(g431
I00
tp710
a(g33
I00
tp711
a(g19
I00
tp712
atp713
Rp714
s(g32
I00
tp715
g54
((lp716
(g429
I00
tp717
a(g307
I00
tp718
a(g168
I00
tp719
a(g19
I00
tp720
a(g431
I00
tp721
a(g159
I00
tp722
a(g34
I00
tp723
atp724
Rp725
s(g23
I01
tp726
g54
((lp727
tp728
Rp729
s(g307
I01
tp730
g54
((lp731
(g15
I01
tp732
a(g31
I00
tp733
a(g24
I00
tp734
a(g26
I00
tp735
a(g29
I01
tp736
a(g32
I01
tp737
a(g41
I01
tp738
a(g30
I01
tp739
a(g38
I01
tp740
a(g23
I01
tp741
atp742
Rp743
s(g118
I00
tp744
g54
((lp745
tp746
Rp747
s(g196
I00
tp748
g54
((lp749
tp750
Rp751
s(g395
I00
tp752
g54
((lp753
(g31
I00
tp754
a(g429
I00
tp755
a(g431
I00
tp756
a(g321
I00
tp757
a(S'imaginary'
p758
I00
tp759
a(g22
I00
tp760
a(g19
I00
tp761
a(g299
I00
tp762
a(g39
I00
tp763
a(g436
I00
tp764
a(g25
I00
tp765
a(g397
I00
tp766
a(g80
I00
tp767
a(g17
I00
tp768
a(g71
I00
tp769
a(g62
I00
tp770
a(g34
I00
tp771
atp772
Rp773
s(g30
I01
tp774
g54
((lp775
tp776
Rp777
s(g35
I00
tp778
g54
((lp779
(g280
I00
tp780
atp781
Rp782
s(S'prime'
p783
I01
tp784
g54
((lp785
(g307
I01
tp786
a(g31
I00
tp787
a(g26
I00
tp788
a(g390
I01
tp789
a(g311
I01
tp790
a(g39
I01
tp791
a(g38
I01
tp792
a(g34
I00
tp793
a(g407
I01
tp794
a(g429
I01
tp795
a(g159
I00
tp796
a(g30
I01
tp797
a(g29
I01
tp798
a(g168
I01
tp799
a(g23
I01
tp800
a(g19
I00
tp801
a(g22
I01
tp802
a(S'integer'
p803
I01
tp804
a(g24
I00
tp805
a(g414
I01
tp806
a(g321
I00
tp807
a(g323
I01
tp808
a(g380
I00
tp809
a(g17
I00
tp810
a(g42
I00
tp811
a(g62
I00
tp812
atp813
Rp814
s(g567
I00
tp815
g54
((lp816
(g31
I00
tp817
a(g431
I00
tp818
a(g19
I00
tp819
a(g25
I00
tp820
a(g80
I00
tp821
a(g71
I00
tp822
a(S'rational'
p823
I00
tp824
atp825
Rp826
s(S'positive'
p827
I00
tp828
g54
((lp829
(g19
I00
tp830
a(g431
I00
tp831
atp832
Rp833
s(g29
I01
tp834
g54
((lp835
(g26
I00
tp836
a(S'commutative'
p837
I01
tp838
atp839
Rp840
s(g168
I01
tp841
g54
((lp842
(g31
I00
tp843
a(g321
I00
tp844
a(g26
I00
tp845
a(g125
I01
tp846
a(g163
I01
tp847
a(g159
I00
tp848
a(g20
I01
tp849
a(g30
I01
tp850
a(g178
I00
tp851
a(g34
I00
tp852
atp853
Rp854
s(g230
I01
tp855
g54
((lp856
(g246
I01
tp857
a(g248
I00
tp858
a(g24
I00
tp859
a(g29
I01
tp860
a(g40
I00
tp861
a(g19
I00
tp862
a(g431
I00
tp863
a(g42
I01
tp864
a(g26
I00
tp865
a(g30
I01
tp866
a(g38
I01
tp867
a(g23
I01
tp868
a(g284
I01
tp869
atp870
Rp871
s(g623
I00
tp872
g54
((lp873
(g31
I00
tp874
a(g33
I00
tp875
a(g431
I00
tp876
a(g289
I00
tp877
a(g26
I00
tp878
a(g56
I00
tp879
a(g19
I00
tp880
a(g299
I00
tp881
a(g62
I00
tp882
a(g114
I00
tp883
a(g25
I00
tp884
a(g307
I00
tp885
a(g80
I00
tp886
a(g17
I00
tp887
a(g71
I00
tp888
a(g577
I00
tp889
a(g39
I00
tp890
a(g280
I00
tp891
atp892
Rp893
s(g338
I00
tp894
g54
((lp895
tp896
Rp897
s(g390
I01
tp898
g54
((lp899
(g30
I01
tp900
a(g386
I01
tp901
a(g384
I00
tp902
a(g26
I00
tp903
atp904
Rp905
s(g35
I01
tp906
g54
((lp907
(g31
I00
tp908
a(g429
I00
tp909
a(g125
I01
tp910
a(g30
I01
tp911
a(g26
I00
tp912
a(g19
I00
tp913
a(g299
I00
tp914
a(g153
I01
tp915
a(g431
I00
tp916
a(g155
I01
tp917
a(g40
I00
tp918
a(g188
I00
tp919
atp920
Rp921
s(g603
I00
tp922
g54
((lp923
(g31
I00
tp924
atp925
Rp926
s(g67
I01
tp927
g54
((lp928
(g407
I01
tp929
a(g24
I00
tp930
a(g26
I00
tp931
a(g29
I01
tp932
a(g22
I01
tp933
a(g380
I00
tp934
a(g414
I01
tp935
a(g17
I00
tp936
a(g30
I01
tp937
a(S'rational'
p938
I01
tp939
a(g38
I01
tp940
a(g62
I00
tp941
a(g23
I01
tp942
atp943
Rp944
s(g30
I00
tp945
g54
((lp946
(g31
I00
tp947
a(g15
I00
tp948
a(g26
I00
tp949
a(g299
I00
tp950
a(g34
I00
tp951
a(g431
I00
tp952
a(g40
I00
tp953
a(g56
I00
tp954
a(g32
I00
tp955
a(g159
I00
tp956
a(S'complex'
p957
I00
tp958
a(g429
I00
tp959
a(g19
I00
tp960
a(g436
I00
tp961
a(g295
I00
tp962
a(g80
I00
tp963
a(g321
I00
tp964
a(S'extended_real'
p965
I00
tp966
a(g39
I00
tp967
a(g380
I00
tp968
a(g25
I00
tp969
a(g17
I00
tp970
a(g71
I00
tp971
a(g42
I00
tp972
a(g62
I00
tp973
atp974
Rp975
s(g20
I00
tp976
g54
((lp977
(g317
I00
tp978
a(g429
I00
tp979
a(g431
I00
tp980
a(g168
I00
tp981
a(g19
I00
tp982
a(g299
I00
tp983
atp984
Rp985
s(g17
I01
tp986
g54
((lp987
(g366
I01
tp988
a(g31
I00
tp989
a(g29
I01
tp990
a(g431
I00
tp991
a(g24
I00
tp992
a(g26
I00
tp993
a(g19
I00
tp994
a(g80
I00
tp995
a(g390
I01
tp996
a(g307
I01
tp997
a(g25
I00
tp998
a(g380
I01
tp999
a(g71
I00
tp1000
a(g30
I01
tp1001
a(g38
I01
tp1002
a(g39
I00
tp1003
a(g23
I01
tp1004
a(g414
I01
tp1005
atp1006
Rp1007
s(g84
I00
tp1008
g54
((lp1009
tp1010
Rp1011
s(g16
I01
tp1012
g54
((lp1013
tp1014
Rp1015
s(g396
I01
tp1016
g54
((lp1017
(g24
I00
tp1018
atp1019
Rp1020
s(g321
I00
tp1021
g54
((lp1022
(g327
I00
tp1023
a(g34
I00
tp1024
atp1025
Rp1026
s(g62
I00
tp1027
g54
((lp1028
tp1029
Rp1030
s(g19
I01
tp1031
g54
((lp1032
(g307
I01
tp1033
a(g31
I00
tp1034
a(g26
I00
tp1035
a(g22
I01
tp1036
a(g311
I01
tp1037
a(g39
I01
tp1038
a(g38
I01
tp1039
a(g34
I00
tp1040
a(g407
I01
tp1041
a(g783
I00
tp1042
a(g827
I01
tp1043
a(g159
I00
tp1044
a(g30
I01
tp1045
a(g168
I01
tp1046
a(g23
I01
tp1047
a(g29
I01
tp1048
a(g390
I01
tp1049
a(g25
I01
tp1050
a(g24
I00
tp1051
a(g414
I01
tp1052
a(g321
I00
tp1053
a(g323
I01
tp1054
a(g380
I00
tp1055
a(g17
I00
tp1056
a(g42
I00
tp1057
a(g62
I00
tp1058
atp1059
Rp1060
s(g323
I01
tp1061
g54
((lp1062
(g256
I01
tp1063
a(g24
I00
tp1064
a(g26
I00
tp1065
a(g29
I01
tp1066
a(g258
I00
tp1067
a(g293
I01
tp1068
a(g159
I00
tp1069
a(g295
I01
tp1070
a(g30
I01
tp1071
a(g38
I01
tp1072
a(g23
I01
tp1073
atp1074
Rp1075
s(g380
I00
tp1076
g54
((lp1077
tp1078
Rp1079
s(g174
I00
tp1080
g54
((lp1081
(g118
I00
tp1082
a(g429
I00
tp1083
a(g431
I00
tp1084
a(g321
I00
tp1085
a(g114
I00
tp1086
a(g40
I00
tp1087
a(g390
I00
tp1088
a(g19
I00
tp1089
a(g299
I00
tp1090
a(g380
I00
tp1091
a(g25
I00
tp1092
a(g436
I00
tp1093
a(g80
I00
tp1094
a(g120
I00
tp1095
a(g17
I00
tp1096
a(g71
I00
tp1097
a(g188
I00
tp1098
a(g39
I00
tp1099
a(g34
I00
tp1100
a(g178
I00
tp1101
atp1102
Rp1103
s(g25
I00
tp1104
g54
((lp1105
(g31
I00
tp1106
a(g19
I00
tp1107
a(g431
I00
tp1108
a(g80
I00
tp1109
a(g71
I00
tp1110
atp1111
Rp1112
s(g380
I01
tp1113
g54
((lp1114
(g31
I00
tp1115
a(g376
I01
tp1116
a(g26
I00
tp1117
a(g19
I00
tp1118
a(g80
I00
tp1119
a(g390
I01
tp1120
a(g374
I00
tp1121
a(g431
I00
tp1122
a(g71
I00
tp1123
a(g30
I01
tp1124
atp1125
Rp1126
s(g17
I00
tp1127
g54
((lp1128
tp1129
Rp1130
s(g27
I00
tp1131
g54
((lp1132
tp1133
Rp1134
s(g24
I01
tp1135
g54
((lp1136
(g396
I00
tp1137
a(g31
I00
tp1138
a(g429
I00
tp1139
a(g431
I00
tp1140
a(g321
I00
tp1141
a(g26
I00
tp1142
a(g56
I00
tp1143
a(g19
I00
tp1144
a(g299
I00
tp1145
a(g39
I00
tp1146
a(g436
I00
tp1147
a(g25
I00
tp1148
a(g15
I00
tp1149
a(g80
I00
tp1150
a(g17
I00
tp1151
a(g71
I00
tp1152
a(g395
I00
tp1153
a(g62
I00
tp1154
a(g34
I00
tp1155
atp1156
Rp1157
s(g42
I00
tp1158
g54
((lp1159
(g317
I00
tp1160
a(g289
I00
tp1161
a(g159
I00
tp1162
a(g34
I00
tp1163
atp1164
Rp1165
s(g39
I00
tp1166
g54
((lp1167
(g31
I00
tp1168
a(g80
I00
tp1169
a(g19
I00
tp1170
a(S'integer'
p1171
I00
tp1172
a(g431
I00
tp1173
a(g71
I00
tp1174
atp1175
Rp1176
ssS'prereq'
p1177
g402
(g54
tp1178
Rp1179
g321
g54
((lp1180
g15
ag783
ag174
ag30
ag19
ag33
ag42
ag34
ag327
ag395
ag24
ag168
ag23
ag623
ag398
atp1181
Rp1182
sg31
g54
((lp1183
g15
ag603
ag62
ag321
ag19
ag42
ag567
ag23
ag24
ag25
ag398
ag71
ag17
ag307
ag174
ag30
ag390
ag33
ag380
ag34
ag35
ag36
ag783
ag395
ag39
ag168
ag623
ag20
atp1184
Rp1185
sg71
g54
((lp1186
g15
ag62
ag567
ag327
ag24
ag25
ag398
ag17
ag21
ag174
ag30
ag380
ag23
ag395
ag39
ag623
atp1187
Rp1188
sg17
g54
((lp1189
g21
ag15
ag174
ag30
ag19
ag783
ag23
ag327
ag395
ag39
ag24
ag67
ag398
ag623
ag71
atp1190
Rp1191
sg436
g54
((lp1192
g15
ag17
ag19
ag32
ag327
ag24
ag23
ag71
ag398
ag783
ag174
ag30
ag33
ag34
ag395
ag623
atp1193
Rp1194
sg16
g54
((lp1195
tp1196
Rp1197
sg30
g54
((lp1198
g397
ag307
ag17
ag230
ag19
ag42
ag390
ag327
ag67
ag398
ag323
ag71
ag21
ag29
ag22
ag33
ag380
ag34
ag35
ag39
ag783
ag577
ag62
ag168
ag311
atp1199
Rp1200
sg429
g54
((lp1201
g15
ag783
ag230
ag19
ag42
ag32
ag327
ag24
ag23
ag398
ag228
ag174
ag30
ag34
ag35
ag36
ag395
ag40
ag623
ag20
atp1202
Rp1203
sg380
g54
((lp1204
g21
ag783
ag174
ag30
ag19
ag327
ag67
ag398
ag71
ag17
atp1205
Rp1206
sg34
g54
((lp1207
g15
ag783
ag321
ag19
ag311
ag32
ag327
ag24
ag398
ag228
ag174
ag30
ag33
ag23
ag35
ag323
ag395
ag168
ag623
ag42
atp1208
Rp1209
sg184
g54
((lp1210
g783
ag174
ag30
ag19
ag33
ag311
ag34
ag323
ag32
ag327
ag168
ag398
ag42
atp1211
Rp1212
sg38
g54
((lp1213
g397
ag783
ag17
ag230
ag19
ag22
ag327
ag307
ag24
ag67
ag398
ag71
ag30
ag21
ag62
ag33
ag34
ag323
ag39
ag623
atp1214
Rp1215
sg39
g54
((lp1216
g15
ag783
ag17
ag19
ag567
ag327
ag24
ag67
ag398
ag71
ag21
ag174
ag30
ag23
ag395
ag62
ag623
atp1217
Rp1218
sg414
g54
((lp1219
g397
ag783
ag39
ag230
ag19
ag22
ag327
ag24
ag67
ag398
ag71
ag17
ag21
ag33
ag34
ag323
ag577
ag62
ag307
atp1220
Rp1221
sg42
g54
((lp1222
g783
ag174
ag30
ag230
ag19
ag33
ag34
ag35
ag327
ag398
ag168
atp1223
Rp1224
sg407
g54
((lp1225
g307
ag17
ag230
ag19
ag327
ag24
ag67
ag23
ag71
ag398
ag21
ag174
ag30
ag33
ag34
ag323
ag783
ag395
ag39
ag623
atp1226
Rp1227
sg80
g54
((lp1228
g15
ag62
ag567
ag327
ag24
ag25
ag398
ag71
ag17
ag174
ag30
ag380
ag23
ag395
ag39
ag623
atp1229
Rp1230
sg62
g54
((lp1231
g21
ag783
ag30
ag19
ag22
ag327
ag395
ag39
ag24
ag67
ag623
ag71
atp1232
Rp1233
sg18
g54
((lp1234
g398
atp1235
Rp1236
sg19
g54
((lp1237
g15
ag783
ag23
ag62
ag230
ag20
ag567
ag327
ag24
ag25
ag398
ag17
ag228
ag174
ag30
ag32
ag827
ag380
ag34
ag35
ag36
ag395
ag39
ag40
ag623
ag42
atp1238
Rp1239
sg295
g54
((lp1240
g783
ag174
ag30
ag19
ag33
ag34
ag35
ag323
ag327
ag398
ag168
atp1241
Rp1242
sg22
g54
((lp1243
g21
ag783
ag62
ag19
ag327
ag395
ag39
ag24
ag67
ag623
ag71
ag30
atp1244
Rp1245
sg24
g54
((lp1246
g397
ag783
ag39
ag230
ag19
ag22
ag327
ag307
ag67
ag398
ag71
ag17
ag21
ag33
ag34
ag323
ag577
ag62
ag396
atp1247
Rp1248
sg75
g54
((lp1249
g15
ag783
ag62
ag19
ag567
ag327
ag24
ag398
ag71
ag17
ag21
ag174
ag30
ag380
ag23
ag395
ag39
ag623
atp1250
Rp1251
sg26
g54
((lp1252
g397
ag307
ag17
ag18
ag230
ag19
ag42
ag390
ag327
ag24
ag67
ag71
ag21
ag29
ag30
ag33
ag380
ag34
ag35
ag323
ag783
ag395
ag39
ag168
ag623
ag311
atp1253
Rp1254
sg431
g54
((lp1255
g15
ag23
ag62
ag230
ag19
ag20
ag567
ag327
ag24
ag25
ag398
ag17
ag228
ag174
ag30
ag32
ag827
ag380
ag34
ag35
ag36
ag395
ag39
ag40
ag623
ag42
atp1256
Rp1257
sg29
g54
((lp1258
g397
ag307
ag17
ag230
ag19
ag42
ag390
ag327
ag67
ag398
ag71
ag21
ag30
ag33
ag380
ag34
ag35
ag323
ag783
ag39
ag168
ag311
atp1259
Rp1260
sg390
g54
((lp1261
g307
ag783
ag174
ag30
ag19
ag33
ag380
ag34
ag35
ag327
ag398
ag71
ag168
ag17
atp1262
Rp1263
sg23
g54
((lp1264
g21
ag397
ag17
ag230
ag19
ag33
ag34
ag323
ag783
ag327
ag39
ag67
ag307
ag71
atp1265
Rp1266
sg299
g54
((lp1267
g15
ag783
ag174
ag30
ag19
ag33
ag20
ag34
ag35
ag327
ag395
ag24
ag23
ag623
ag398
atp1268
Rp1269
sg40
g54
((lp1270
g783
ag174
ag30
ag230
ag19
ag33
ag42
ag34
ag35
ag32
ag327
ag398
ag20
atp1271
Rp1272
ssS'beta_triggers'
p1273
g402
(g54
tp1274
Rp1275
(g21
I01
tp1276
(lp1277
I8
aI9
aI10
aI13
aI14
aI16
aI17
aI18
aI21
aI22
aI23
aI24
aI25
aI26
aI27
aI30
aI31
aI33
aI36
as(g23
I00
tp1278
(lp1279
I3
aI4
aI7
aI8
aI10
aI35
aI36
as(g15
I00
tp1280
(lp1281
I3
aI4
aI7
aI8
aI10
aI35
aI36
as(g311
I01
tp1282
(lp1283
I4
aI5
aI6
aI9
aI10
aI12
aI13
aI15
aI17
aI18
aI22
aI26
aI28
aI35
aI36
as(g34
I01
tp1284
(lp1285
I0
aI34
aI35
as(g398
I00
tp1286
g54
((lp1287
tp1288
Rp1289
s(g36
I00
tp1290
(lp1291
I7
aI8
aI10
aI15
aI16
aI21
aI36
as(g22
I01
tp1292
(lp1293
I3
aI5
aI6
aI23
aI24
aI25
aI26
aI27
as(g228
I00
tp1294
(lp1295
I15
aI17
aI21
aI22
as(g71
I01
tp1296
(lp1297
I8
aI10
aI11
aI12
aI13
aI14
aI16
aI18
aI19
aI20
aI21
aI22
aI23
aI24
aI25
aI26
as(g42
I01
tp1298
(lp1299
I4
aI5
aI6
aI8
aI9
aI11
aI14
aI15
aI16
aI17
aI21
aI25
aI28
aI35
aI36
as(g39
I01
tp1300
(lp1301
I8
aI9
aI10
aI13
aI14
aI16
aI17
aI18
aI21
aI22
aI23
aI24
aI25
aI26
aI27
aI35
aI36
as(g577
I01
tp1302
(lp1303
I0
aI3
aI5
aI6
aI23
aI24
aI25
aI26
aI27
as(g62
I01
tp1304
(lp1305
I3
aI5
aI6
aI7
aI8
aI10
aI15
aI16
aI18
aI23
aI24
aI25
aI26
aI27
aI34
aI35
aI36
as(g327
I01
tp1306
(lp1307
s(g397
I01
tp1308
(lp1309
I0
aI8
aI9
aI10
aI13
aI14
aI16
aI17
aI18
aI21
aI22
aI23
aI24
aI25
aI26
aI27
aI34
aI35
aI36
as(g37
I00
tp1310
(lp1311
I30
aI32
aI33
as(g18
I00
tp1312
(lp1313
s(g33
I01
tp1314
(lp1315
I0
aI30
aI31
aI32
aI34
aI35
as(g398
I01
tp1316
(lp1317
I0
as(g40
I00
tp1318
(lp1319
I7
aI8
aI9
aI13
aI15
aI16
aI17
aI21
as(g32
I00
tp1320
(lp1321
I7
aI9
aI13
aI14
aI15
aI17
aI21
aI22
as(g23
I01
tp1322
g54
((lp1323
tp1324
Rp1325
s(g307
I01
tp1326
(lp1327
I0
aI8
aI10
aI11
aI12
aI13
aI14
aI16
aI18
aI19
aI20
aI21
aI22
aI23
aI24
aI25
aI26
aI34
aI35
as(g118
I00
tp1328
(lp1329
I7
aI8
aI10
aI15
aI16
aI18
aI36
as(g196
I00
tp1330
(lp1331
I15
aI17
aI18
aI22
as(g395
I00
tp1332
(lp1333
I3
aI4
aI7
aI8
aI10
aI35
aI36
as(g30
I01
tp1334
g54
((lp1335
tp1336
Rp1337
s(g35
I00
tp1338
(lp1339
I7
aI9
aI10
aI14
aI15
aI17
aI18
aI22
as(g783
I01
tp1340
(lp1341
I1
aI2
as(g567
I00
tp1342
(lp1343
I0
aI7
aI8
aI10
aI15
aI16
aI18
aI34
aI35
aI36
as(g827
I00
tp1344
(lp1345
I15
aI16
aI17
aI21
as(g29
I01
tp1346
(lp1347
I4
aI5
aI6
aI8
aI9
aI10
aI13
aI14
aI35
aI36
as(g168
I01
tp1348
(lp1349
I4
aI5
aI6
aI15
aI18
aI22
aI23
aI26
aI27
aI35
as(g230
I01
tp1350
(lp1351
I0
aI8
aI9
aI11
aI14
aI16
aI17
aI19
aI22
aI24
aI26
aI27
aI28
aI29
aI34
aI35
aI36
as(g623
I00
tp1352
(lp1353
I3
aI4
aI7
aI8
aI10
aI35
aI36
as(g338
I00
tp1354
(lp1355
I31
aI32
aI33
as(g390
I01
tp1356
(lp1357
I4
aI5
aI6
aI8
aI10
aI11
aI12
aI13
aI14
aI15
aI16
aI18
aI27
aI35
as(g35
I01
tp1358
(lp1359
I4
aI5
aI6
aI15
aI16
aI21
aI24
aI25
aI27
aI35
as(g603
I00
tp1360
(lp1361
I1
aI7
aI8
aI10
aI15
aI16
aI18
aI36
as(g67
I01
tp1362
(lp1363
I1
aI2
aI8
aI9
aI10
aI13
aI14
aI16
aI17
aI18
aI21
aI22
aI23
aI24
aI25
aI26
aI27
aI36
as(g30
I00
tp1364
(lp1365
s(g20
I00
tp1366
(lp1367
I7
aI8
aI13
aI15
aI16
aI21
aI36
as(g17
I01
tp1368
(lp1369
I0
aI8
aI10
aI11
aI12
aI13
aI14
aI16
aI18
aI19
aI20
aI21
aI22
aI23
aI24
aI25
aI26
as(g84
I00
tp1370
(lp1371
I3
aI5
as(g16
I01
tp1372
g54
((lp1373
tp1374
Rp1375
s(g396
I01
tp1376
(lp1377
I3
aI5
aI6
aI23
aI24
aI25
aI26
aI27
as(g321
I00
tp1378
(lp1379
I7
aI8
aI10
aI15
aI18
aI22
aI36
as(g62
I00
tp1380
g54
((lp1381
tp1382
Rp1383
s(g19
I01
tp1384
(lp1385
I1
aI2
as(g323
I01
tp1386
(lp1387
I0
aI9
aI10
aI12
aI13
aI17
aI18
aI20
aI21
aI23
aI25
aI27
aI28
aI29
aI34
aI35
aI36
as(g380
I00
tp1388
g54
((lp1389
tp1390
Rp1391
s(g174
I00
tp1392
(lp1393
s(g25
I00
tp1394
(lp1395
I7
aI8
aI10
aI15
aI16
aI18
aI35
aI36
as(g380
I01
tp1396
(lp1397
I4
aI5
aI6
aI8
aI10
aI11
aI12
aI13
aI14
aI15
aI16
aI18
aI27
as(g17
I00
tp1398
g54
((lp1399
tp1400
Rp1401
s(g27
I00
tp1402
(lp1403
I2
as(g24
I01
tp1404
(lp1405
I7
aI8
aI10
aI35
aI36
as(g42
I00
tp1406
(lp1407
I7
aI10
aI14
aI15
aI18
aI22
aI36
as(g39
I00
tp1408
(lp1409
I7
aI8
aI10
aI15
aI16
aI18
aI34
aI35
aI36
assbsS'_generator'
p1410
(dp1411
g28
I01
sS'finite'
p1412
I01
ssbsbcsympy.core.power
Pow
p1413
(csympy.core.numbers
Integer
p1414
(I6
tp1415
Rp1416
(dp1417
bcsympy.core.numbers
Half
p1418
(I1
I2
tp1419
Rp1420
(dp1421
btp1422
Rp1423
(dp1424
bg1413
(csympy.core.numbers
Pi
p1425
(tRp1426
(dp1427
bg1414
(I4
tp1428
Rp1429
(dp1430
btp1431
Rp1432
(dp1433
bg1413
(g5
(S'\\alpha'
p1434
tp1435
Rp1436
(dp1437
g10
g11
(g12
g13
(dp1438
g15
I01
sg16
Nsg17
Nsg18
Nsg19
Nsg20
Nsg21
Nsg22
Nsg23
I01
sg24
I00
sg25
Nsg26
I00
sg27
Nsg28
I01
sg29
I01
sg30
I01
sg31
I00
sg32
I01
sg33
Nsg34
Nsg35
Nsg36
Nsg37
Nsg38
I01
sg39
Nsg40
Nsg41
I01
sg42
Nstp1439
Rp1440
(dp1441
g46
g50
sg1410
(dp1442
g28
I01
sg1412
I01
ssbsbcsympy.core.numbers
NegativeOne
p1443
(I-1
tp1444
Rp1445
(dp1446
btp1447
Rp1448
(dp1449
bg1413
(csympy.core.add
Add
p1450
(g0
(g1414
(I16
tp1451
Rp1452
(dp1453
bg1413
(g8
g1416
tp1454
Rp1455
(dp1456
btp1457
Rp1458
(dp1459
bg0
(g1432
g1413
(g1436
g1414
(I2
tp1460
Rp1461
(dp1462
btp1463
Rp1464
(dp1465
btp1466
Rp1467
(dp1468
bg0
(g1432
g1413
(g8
g1461
tp1469
Rp1470
(dp1471
btp1472
Rp1473
(dp1474
bg0
(g1429
g1413
(g1426
g1461
tp1475
Rp1476
(dp1477
bg1413
(g1436
g1429
tp1478
Rp1479
(dp1480
btp1481
Rp1482
(dp1483
bg0
(g1414
(I8
tp1484
Rp1485
(dp1486
bg1476
g1413
(g8
g1429
tp1487
Rp1488
(dp1489
btp1490
Rp1491
(dp1492
bg0
(g1452
g1479
g1470
tp1493
Rp1494
(dp1495
bg0
(g1414
(I32
tp1496
Rp1497
(dp1498
bg1464
g1488
tp1499
Rp1500
(dp1501
bg0
(g1414
(I12
tp1502
Rp1503
(dp1504
bg1476
g1464
g1470
tp1505
Rp1506
(dp1507
btp1508
Rp1509
(dp1510
bg1
(I-1
I2
tp1511
Rp1512
(dp1513
btp1514
Rp1515
(dp1516
btp1517
Rp1518
(dp1519
b.