csympy.core.mul
Mul
p0
(csympy.core.numbers
Integer
p1
(I-2
tp2
Rp3
(dp4
bcsympy.core.power
Pow
p5
(g1
(I6
tp6
Rp7
(dp8
bcsympy.core.numbers
Half
p9
(I1
I2
tp10
Rp11
(dp12
btp13
Rp14
(dp15
bg5
(csympy.core.numbers
Pi
p16
(tRp17
(dp18
bg1
(I3
tp19
Rp20
(dp21
btp22
Rp23
(dp24
bg5
(csympy.core.add
Add
p25
(g5
(g17
g1
(I2
tp26
Rp27
(dp28
btp29
Rp30
(dp31
bg0
(g1
(I4
tp32
Rp33
(dp34
bg5
(csympy.core.symbol
Symbol
p35
(S'\\gamma'
p36
tp37
Rp38
(dp39
S'_assumptions'
p40
ccopy_reg
_reconstructor
p41
(csympy.core.assumptions
StdFactKB
p42
c__builtin__
dict
p43
(dp44
S'real'
p45
I01
sS'polar'
p46
NsS'irrational'
p47
NsS'antihermitian'
p48
NsS'composite'
p49
NsS'extended_nonnegative'
p50
NsS'even'
p51
NsS'algebraic'
p52
NsS'hermitian'
p53
I01
sS'infinite'
p54
I00
sS'integer'
p55
NsS'imaginary'
p56
I00
sS'odd'
p57
NsS'nonzero'
p58
I01
sS'extended_real'
p59
I01
sS'commutative'
p60
I01
sS'zero'
p61
I00
sS'extended_nonzero'
p62
I01
sS'positive'
p63
NsS'negative'
p64
NsS'extended_negative'
p65
NsS'nonnegative'
p66
NsS'prime'
p67
NsS'complex'
p68
I01
sS'rational'
p69
NsS'extended_positive'
p70
NsS'finite'
p71
I01
sS'extended_nonpositive'
p72
Nstp73
Rp74
(dp75
S'rules'
p76
g41
(csympy.core.facts
FactRules
p77
c__builtin__
object
p78
Ntp79
Rp80
(dp81
S'beta_rules'
p82
(lp83
(c__builtin__
set
p84
((lp85
(S'algebraic'
p86
I00
tp87
a(S'complex'
p88
I01
tp89
atp90
Rp91
(S'transcendental'
p92
I01
tp93
tp94
a(g84
((lp95
(g51
I00
tp96
a(S'integer'
p97
I01
tp98
atp99
Rp100
(S'odd'
p101
I01
tp102
tp103
a(g84
((lp104
(S'integer'
p105
I01
tp106
a(g57
I00
tp107
atp108
Rp109
(S'even'
p110
I01
tp111
tp112
a(g84
((lp113
(S'infinite'
p114
I00
tp115
a(S'real'
p116
I00
tp117
atp118
Rp119
(S'extended_real'
p120
I00
tp121
tp122
a(g84
((lp123
(g120
I01
tp124
a(g116
I00
tp125
atp126
Rp127
(g114
I01
tp128
tp129
a(g84
((lp130
(g120
I01
tp131
a(g114
I00
tp132
atp133
Rp134
(g116
I01
tp135
tp136
a(g84
((lp137
(S'extended_real'
p138
I01
tp139
a(S'finite'
p140
I01
tp141
atp142
Rp143
(S'real'
p144
I01
tp145
tp146
a(g84
((lp147
(S'zero'
p148
I00
tp149
a(S'extended_negative'
p150
I00
tp151
a(g70
I00
tp152
atp153
Rp154
(S'extended_real'
p155
I00
tp156
tp157
a(g84
((lp158
(g148
I00
tp159
a(g155
I01
tp160
a(g70
I00
tp161
atp162
Rp163
(g150
I01
tp164
tp165
a(g84
((lp166
(g70
I00
tp167
a(g155
I01
tp168
a(g150
I00
tp169
atp170
Rp171
(g148
I01
tp172
tp173
a(g84
((lp174
(g148
I00
tp175
a(g155
I01
tp176
a(g150
I00
tp177
atp178
Rp179
(g70
I01
tp180
tp181
a(g84
((lp182
(S'extended_nonzero'
p183
I01
tp184
a(S'extended_nonpositive'
p185
I01
tp186
atp187
Rp188
(S'extended_negative'
p189
I01
tp190
tp191
a(g84
((lp192
(S'extended_nonzero'
p193
I01
tp194
a(g50
I01
tp195
atp196
Rp197
(S'extended_positive'
p198
I01
tp199
tp200
a(g84
((lp201
(S'extended_positive'
p202
I00
tp203
a(S'extended_real'
p204
I01
tp205
atp206
Rp207
(S'extended_nonpositive'
p208
I01
tp209
tp210
a(g84
((lp211
(S'extended_real'
p212
I01
tp213
a(S'extended_negative'
p214
I00
tp215
atp216
Rp217
(S'extended_nonnegative'
p218
I01
tp219
tp220
a(g84
((lp221
(S'zero'
p222
I00
tp223
a(S'positive'
p224
I00
tp225
a(S'negative'
p226
I00
tp227
atp228
Rp229
(S'real'
p230
I00
tp231
tp232
a(g84
((lp233
(g230
I01
tp234
a(g222
I00
tp235
a(g224
I00
tp236
atp237
Rp238
(g226
I01
tp239
tp240
a(g84
((lp241
(g230
I01
tp242
a(g224
I00
tp243
a(g226
I00
tp244
atp245
Rp246
(g222
I01
tp247
tp248
a(g84
((lp249
(g230
I01
tp250
a(g222
I00
tp251
a(g226
I00
tp252
atp253
Rp254
(g224
I01
tp255
tp256
a(g84
((lp257
(S'nonzero'
p258
I01
tp259
a(S'nonpositive'
p260
I01
tp261
atp262
Rp263
(g64
I01
tp264
tp265
a(g84
((lp266
(S'nonzero'
p267
I01
tp268
a(g66
I01
tp269
atp270
Rp271
(S'positive'
p272
I01
tp273
tp274
a(g84
((lp275
(S'real'
p276
I01
tp277
a(S'positive'
p278
I00
tp279
atp280
Rp281
(S'nonpositive'
p282
I01
tp283
tp284
a(g84
((lp285
(S'real'
p286
I01
tp287
a(S'negative'
p288
I00
tp289
atp290
Rp291
(S'nonnegative'
p292
I01
tp293
tp294
a(g84
((lp295
(S'finite'
p296
I01
tp297
a(S'extended_positive'
p298
I01
tp299
atp300
Rp301
(g63
I01
tp302
tp303
a(g84
((lp304
(g65
I01
tp305
a(S'finite'
p306
I01
tp307
atp308
Rp309
(S'negative'
p310
I01
tp311
tp312
a(g84
((lp313
(S'finite'
p314
I01
tp315
a(g72
I01
tp316
atp317
Rp318
(S'nonpositive'
p319
I01
tp320
tp321
a(g84
((lp322
(S'finite'
p323
I01
tp324
a(S'extended_nonnegative'
p325
I01
tp326
atp327
Rp328
(S'nonnegative'
p329
I01
tp330
tp331
a(g84
((lp332
(g71
I01
tp333
a(g62
I01
tp334
atp335
Rp336
(S'nonzero'
p337
I01
tp338
tp339
a(g84
((lp340
(S'extended_nonnegative'
p341
I01
tp342
a(S'extended_nonpositive'
p343
I01
tp344
atp345
Rp346
(S'zero'
p347
I01
tp348
tp349
a(g84
((lp350
(S'nonpositive'
p351
I01
tp352
a(S'nonnegative'
p353
I01
tp354
atp355
Rp356
(S'zero'
p357
I01
tp358
tp359
a(g84
((lp360
(S'even'
p361
I01
tp362
a(g67
I00
tp363
a(S'positive'
p364
I01
tp365
atp366
Rp367
(S'composite'
p368
I01
tp369
tp370
a(g84
((lp371
(g361
I01
tp372
a(g368
I00
tp373
a(g364
I01
tp374
atp375
Rp376
(g67
I01
tp377
tp378
a(g84
((lp379
(g368
I00
tp380
a(g67
I00
tp381
a(g364
I01
tp382
atp383
Rp384
(g361
I00
tp385
tp386
a(g84
((lp387
(g361
I01
tp388
a(g368
I00
tp389
a(g67
I00
tp390
atp391
Rp392
(g364
I00
tp393
tp394
a(g84
((lp395
(S'real'
p396
I01
tp397
a(g69
I00
tp398
atp399
Rp400
(g47
I01
tp401
tp402
a(g84
((lp403
(S'integer'
p404
I00
tp405
a(S'extended_real'
p406
I01
tp407
atp408
Rp409
(S'noninteger'
p410
I01
tp411
tp412
a(g84
((lp413
(S'zero'
p414
I00
tp415
a(S'extended_real'
p416
I01
tp417
atp418
Rp419
(S'extended_nonzero'
p420
I01
tp421
tp422
asS'defined_facts'
p423
g84
((lp424
g351
ag53
ag57
ag51
ag60
ag63
ag410
ag64
ag65
aS'complex'
p425
ag69
aS'finite'
p426
ag50
aS'real'
p427
ag337
ag47
ag48
ag49
ag72
ag62
ag114
ag55
aS'imaginary'
p428
ag67
ag59
ag52
ag357
ag66
ag70
ag92
atp429
Rp430
sS'full_implications'
p431
ccollections
defaultdict
p432
(g84
tp433
Rp434
(g51
I01
tp435
g84
((lp436
(S'real'
p437
I01
tp438
a(g54
I00
tp439
a(g56
I00
tp440
a(g59
I01
tp441
a(g52
I01
tp442
a(g410
I00
tp443
a(S'finite'
p444
I01
tp445
a(g105
I01
tp446
a(g47
I00
tp447
a(g101
I00
tp448
a(g60
I01
tp449
a(g69
I01
tp450
a(g68
I01
tp451
a(g92
I00
tp452
a(g53
I01
tp453
atp454
Rp455
s(g53
I00
tp456
g84
((lp457
(g61
I00
tp458
a(S'positive'
p459
I00
tp460
a(S'prime'
p461
I00
tp462
a(g351
I00
tp463
a(g49
I00
tp464
a(g329
I00
tp465
a(S'nonzero'
p466
I00
tp467
a(g55
I00
tp468
a(g437
I00
tp469
a(g110
I00
tp470
a(g47
I00
tp471
a(g101
I00
tp472
a(g69
I00
tp473
a(g64
I00
tp474
atp475
Rp476
s(g45
I00
tp477
g84
((lp478
(g222
I00
tp479
a(g224
I00
tp480
a(g466
I00
tp481
a(g282
I00
tp482
a(g49
I00
tp483
a(g292
I00
tp484
a(g55
I00
tp485
a(g461
I00
tp486
a(g110
I00
tp487
a(g47
I00
tp488
a(g101
I00
tp489
a(S'rational'
p490
I00
tp491
a(g226
I00
tp492
atp493
Rp494
s(g341
I01
tp495
g84
((lp496
(g56
I00
tp497
a(g212
I01
tp498
a(g214
I00
tp499
a(g64
I00
tp500
a(g60
I01
tp501
atp502
Rp503
s(g64
I01
tp504
g84
((lp505
(g230
I01
tp506
a(g258
I01
tp507
a(g459
I00
tp508
a(g461
I00
tp509
a(g54
I00
tp510
a(g260
I01
tp511
a(g59
I01
tp512
a(g70
I00
tp513
a(g49
I00
tp514
a(g292
I00
tp515
a(g420
I01
tp516
a(g56
I00
tp517
a(g65
I01
tp518
a(g306
I01
tp519
a(g61
I00
tp520
a(g72
I01
tp521
a(g60
I01
tp522
a(g325
I00
tp523
a(g68
I01
tp524
a(g53
I01
tp525
atp526
Rp527
s(g428
I00
tp528
g84
((lp529
tp530
Rp531
s(g66
I00
tp532
g84
((lp533
(g461
I00
tp534
a(g272
I00
tp535
a(g49
I00
tp536
a(g357
I00
tp537
atp538
Rp539
s(g52
I01
tp540
g84
((lp541
(g60
I01
tp542
a(g54
I00
tp543
a(g68
I01
tp544
a(g92
I00
tp545
a(g444
I01
tp546
atp547
Rp548
s(g258
I00
tp549
g84
((lp550
(g272
I00
tp551
a(g461
I00
tp552
a(g64
I00
tp553
a(g49
I00
tp554
atp555
Rp556
s(g101
I01
tp557
g84
((lp558
(g437
I01
tp559
a(g61
I00
tp560
a(g54
I00
tp561
a(g56
I00
tp562
a(g59
I01
tp563
a(g51
I00
tp564
a(g52
I01
tp565
a(g337
I01
tp566
a(g420
I01
tp567
a(g410
I00
tp568
a(g444
I01
tp569
a(g97
I01
tp570
a(g47
I00
tp571
a(g60
I01
tp572
a(g69
I01
tp573
a(g68
I01
tp574
a(g92
I00
tp575
a(g53
I01
tp576
atp577
Rp578
s(g72
I01
tp579
g84
((lp580
(g459
I00
tp581
a(g49
I00
tp582
a(g202
I00
tp583
a(g204
I01
tp584
a(g461
I00
tp585
a(g56
I00
tp586
a(g60
I01
tp587
atp588
Rp589
s(g69
I01
tp590
g84
((lp591
(S'real'
p592
I01
tp593
a(g54
I00
tp594
a(g56
I00
tp595
a(g59
I01
tp596
a(S'algebraic'
p597
I01
tp598
a(g444
I01
tp599
a(g47
I00
tp600
a(g60
I01
tp601
a(g68
I01
tp602
a(g92
I00
tp603
a(g53
I01
tp604
atp605
Rp606
s(S'complex'
p607
I01
tp608
g84
((lp609
(g60
I01
tp610
a(g54
I00
tp611
a(g444
I01
tp612
atp613
Rp614
s(g92
I01
tp615
g84
((lp616
(g61
I00
tp617
a(g54
I00
tp618
a(g86
I00
tp619
a(g49
I00
tp620
a(g110
I00
tp621
a(g55
I00
tp622
a(g461
I00
tp623
a(g101
I00
tp624
a(g60
I01
tp625
a(g88
I01
tp626
a(g69
I00
tp627
a(g444
I01
tp628
atp629
Rp630
s(g357
I01
tp631
g84
((lp632
(S'even'
p633
I01
tp634
a(g341
I01
tp635
a(g56
I00
tp636
a(g52
I01
tp637
a(g343
I01
tp638
a(g69
I01
tp639
a(g68
I01
tp640
a(g64
I00
tp641
a(g230
I01
tp642
a(g461
I00
tp643
a(g70
I00
tp644
a(g420
I00
tp645
a(g53
I01
tp646
a(g60
I01
tp647
a(g189
I00
tp648
a(g459
I00
tp649
a(g49
I00
tp650
a(g351
I01
tp651
a(g155
I01
tp652
a(S'finite'
p653
I01
tp654
a(g97
I01
tp655
a(g54
I00
tp656
a(g466
I00
tp657
a(g353
I01
tp658
a(g410
I00
tp659
a(g47
I00
tp660
a(g101
I00
tp661
a(g92
I00
tp662
atp663
Rp664
s(g427
I01
tp665
g84
((lp666
(S'complex'
p667
I01
tp668
a(g56
I00
tp669
a(g138
I01
tp670
a(g140
I01
tp671
a(g60
I01
tp672
a(g54
I00
tp673
a(g53
I01
tp674
atp675
Rp676
s(g67
I00
tp677
g84
((lp678
tp679
Rp680
s(g48
I00
tp681
g84
((lp682
(g428
I00
tp683
atp684
Rp685
s(g63
I01
tp686
g84
((lp687
(g230
I01
tp688
a(g61
I00
tp689
a(g54
I00
tp690
a(g282
I00
tp691
a(g298
I01
tp692
a(g56
I00
tp693
a(g59
I01
tp694
a(g420
I01
tp695
a(g267
I01
tp696
a(g66
I01
tp697
a(g296
I01
tp698
a(g64
I00
tp699
a(g341
I01
tp700
a(g60
I01
tp701
a(g72
I00
tp702
a(g68
I01
tp703
a(g53
I01
tp704
a(g189
I00
tp705
atp706
Rp707
s(g428
I01
tp708
g84
((lp709
(g61
I00
tp710
a(g45
I00
tp711
a(g329
I00
tp712
a(g466
I00
tp713
a(g425
I01
tp714
a(g64
I00
tp715
a(g461
I00
tp716
a(g70
I00
tp717
a(g48
I01
tp718
a(g189
I00
tp719
a(g60
I01
tp720
a(g459
I00
tp721
a(g49
I00
tp722
a(g444
I01
tp723
a(g72
I00
tp724
a(g54
I00
tp725
a(g110
I00
tp726
a(g351
I00
tp727
a(g59
I00
tp728
a(g69
I00
tp729
a(g410
I00
tp730
a(g55
I00
tp731
a(g47
I00
tp732
a(g101
I00
tp733
a(g325
I00
tp734
a(g62
I00
tp735
atp736
Rp737
s(g70
I00
tp738
g84
((lp739
(g461
I00
tp740
a(g63
I00
tp741
a(g49
I00
tp742
atp743
Rp744
s(g62
I00
tp745
g84
((lp746
(g459
I00
tp747
a(g337
I00
tp748
a(g198
I00
tp749
a(g49
I00
tp750
a(g461
I00
tp751
a(g189
I00
tp752
a(g64
I00
tp753
atp754
Rp755
s(g53
I01
tp756
g84
((lp757
tp758
Rp759
s(g337
I01
tp760
g84
((lp761
(g45
I01
tp762
a(g61
I00
tp763
a(g54
I00
tp764
a(g56
I00
tp765
a(g59
I01
tp766
a(g62
I01
tp767
a(g71
I01
tp768
a(g60
I01
tp769
a(g68
I01
tp770
a(g53
I01
tp771
atp772
Rp773
s(g148
I00
tp774
g84
((lp775
tp776
Rp777
s(g226
I00
tp778
g84
((lp779
tp780
Rp781
s(g425
I00
tp782
g84
((lp783
(g61
I00
tp784
a(g459
I00
tp785
a(g461
I00
tp786
a(g351
I00
tp787
a(S'imaginary'
p788
I00
tp789
a(g52
I00
tp790
a(g49
I00
tp791
a(g329
I00
tp792
a(g69
I00
tp793
a(g466
I00
tp794
a(g55
I00
tp795
a(g427
I00
tp796
a(g110
I00
tp797
a(g47
I00
tp798
a(g101
I00
tp799
a(g92
I00
tp800
a(g64
I00
tp801
atp802
Rp803
s(g60
I01
tp804
g84
((lp805
tp806
Rp807
s(g65
I00
tp808
g84
((lp809
(g310
I00
tp810
atp811
Rp812
s(S'prime'
p813
I01
tp814
g84
((lp815
(g337
I01
tp816
a(g61
I00
tp817
a(g56
I00
tp818
a(g420
I01
tp819
a(g341
I01
tp820
a(g69
I01
tp821
a(g68
I01
tp822
a(g64
I00
tp823
a(g437
I01
tp824
a(g459
I01
tp825
a(g189
I00
tp826
a(g60
I01
tp827
a(g59
I01
tp828
a(g198
I01
tp829
a(g53
I01
tp830
a(g49
I00
tp831
a(g52
I01
tp832
a(S'integer'
p833
I01
tp834
a(g54
I00
tp835
a(g444
I01
tp836
a(g351
I00
tp837
a(g353
I01
tp838
a(g410
I00
tp839
a(g47
I00
tp840
a(g72
I00
tp841
a(g92
I00
tp842
atp843
Rp844
s(g597
I00
tp845
g84
((lp846
(g61
I00
tp847
a(g461
I00
tp848
a(g49
I00
tp849
a(g55
I00
tp850
a(g110
I00
tp851
a(g101
I00
tp852
a(S'rational'
p853
I00
tp854
atp855
Rp856
s(S'positive'
p857
I00
tp858
g84
((lp859
(g49
I00
tp860
a(g461
I00
tp861
atp862
Rp863
s(g59
I01
tp864
g84
((lp865
(g56
I00
tp866
a(S'commutative'
p867
I01
tp868
atp869
Rp870
s(g198
I01
tp871
g84
((lp872
(g61
I00
tp873
a(g351
I00
tp874
a(g56
I00
tp875
a(g155
I01
tp876
a(g193
I01
tp877
a(g189
I00
tp878
a(g50
I01
tp879
a(g60
I01
tp880
a(g208
I00
tp881
a(g64
I00
tp882
atp883
Rp884
s(g260
I01
tp885
g84
((lp886
(g276
I01
tp887
a(g278
I00
tp888
a(g54
I00
tp889
a(g59
I01
tp890
a(g70
I00
tp891
a(g49
I00
tp892
a(g461
I00
tp893
a(g72
I01
tp894
a(g56
I00
tp895
a(g60
I01
tp896
a(g68
I01
tp897
a(g53
I01
tp898
a(g314
I01
tp899
atp900
Rp901
s(g653
I00
tp902
g84
((lp903
(g61
I00
tp904
a(g63
I00
tp905
a(g461
I00
tp906
a(g319
I00
tp907
a(g56
I00
tp908
a(g86
I00
tp909
a(g49
I00
tp910
a(g329
I00
tp911
a(g92
I00
tp912
a(g144
I00
tp913
a(g55
I00
tp914
a(g337
I00
tp915
a(g110
I00
tp916
a(g47
I00
tp917
a(g101
I00
tp918
a(g607
I00
tp919
a(g69
I00
tp920
a(g310
I00
tp921
atp922
Rp923
s(g368
I00
tp924
g84
((lp925
tp926
Rp927
s(g420
I01
tp928
g84
((lp929
(g60
I01
tp930
a(g416
I01
tp931
a(g414
I00
tp932
a(g56
I00
tp933
atp934
Rp935
s(g65
I01
tp936
g84
((lp937
(g61
I00
tp938
a(g459
I00
tp939
a(g155
I01
tp940
a(g60
I01
tp941
a(g56
I00
tp942
a(g49
I00
tp943
a(g329
I00
tp944
a(g183
I01
tp945
a(g461
I00
tp946
a(g185
I01
tp947
a(g70
I00
tp948
a(g218
I00
tp949
atp950
Rp951
s(g633
I00
tp952
g84
((lp953
(g61
I00
tp954
atp955
Rp956
s(g97
I01
tp957
g84
((lp958
(g437
I01
tp959
a(g54
I00
tp960
a(g56
I00
tp961
a(g59
I01
tp962
a(g52
I01
tp963
a(g410
I00
tp964
a(g444
I01
tp965
a(g47
I00
tp966
a(g60
I01
tp967
a(S'rational'
p968
I01
tp969
a(g68
I01
tp970
a(g92
I00
tp971
a(g53
I01
tp972
atp973
Rp974
s(g60
I00
tp975
g84
((lp976
(g61
I00
tp977
a(g45
I00
tp978
a(g56
I00
tp979
a(g329
I00
tp980
a(g64
I00
tp981
a(g461
I00
tp982
a(g70
I00
tp983
a(g86
I00
tp984
a(g62
I00
tp985
a(g189
I00
tp986
a(S'complex'
p987
I00
tp988
a(g459
I00
tp989
a(g49
I00
tp990
a(g466
I00
tp991
a(g325
I00
tp992
a(g110
I00
tp993
a(g351
I00
tp994
a(S'extended_real'
p995
I00
tp996
a(g69
I00
tp997
a(g410
I00
tp998
a(g55
I00
tp999
a(g47
I00
tp1000
a(g101
I00
tp1001
a(g72
I00
tp1002
a(g92
I00
tp1003
atp1004
Rp1005
s(g50
I00
tp1006
g84
((lp1007
(g347
I00
tp1008
a(g459
I00
tp1009
a(g461
I00
tp1010
a(g198
I00
tp1011
a(g49
I00
tp1012
a(g329
I00
tp1013
atp1014
Rp1015
s(g47
I01
tp1016
g84
((lp1017
(g396
I01
tp1018
a(g61
I00
tp1019
a(g59
I01
tp1020
a(g461
I00
tp1021
a(g54
I00
tp1022
a(g56
I00
tp1023
a(g49
I00
tp1024
a(g110
I00
tp1025
a(g420
I01
tp1026
a(g337
I01
tp1027
a(g55
I00
tp1028
a(g410
I01
tp1029
a(g101
I00
tp1030
a(g60
I01
tp1031
a(g68
I01
tp1032
a(g69
I00
tp1033
a(g53
I01
tp1034
a(g444
I01
tp1035
atp1036
Rp1037
s(g114
I00
tp1038
g84
((lp1039
tp1040
Rp1041
s(g46
I01
tp1042
g84
((lp1043
tp1044
Rp1045
s(g426
I01
tp1046
g84
((lp1047
(g54
I00
tp1048
atp1049
Rp1050
s(g351
I00
tp1051
g84
((lp1052
(g357
I00
tp1053
a(g64
I00
tp1054
atp1055
Rp1056
s(g92
I00
tp1057
g84
((lp1058
tp1059
Rp1060
s(g49
I01
tp1061
g84
((lp1062
(g337
I01
tp1063
a(g61
I00
tp1064
a(g56
I00
tp1065
a(g52
I01
tp1066
a(g341
I01
tp1067
a(g69
I01
tp1068
a(g68
I01
tp1069
a(g64
I00
tp1070
a(g437
I01
tp1071
a(g813
I00
tp1072
a(g857
I01
tp1073
a(g189
I00
tp1074
a(g60
I01
tp1075
a(g198
I01
tp1076
a(g53
I01
tp1077
a(g59
I01
tp1078
a(g420
I01
tp1079
a(g55
I01
tp1080
a(g54
I00
tp1081
a(g444
I01
tp1082
a(g351
I00
tp1083
a(g353
I01
tp1084
a(g410
I00
tp1085
a(g47
I00
tp1086
a(g72
I00
tp1087
a(g92
I00
tp1088
atp1089
Rp1090
s(g353
I01
tp1091
g84
((lp1092
(g286
I01
tp1093
a(g54
I00
tp1094
a(g56
I00
tp1095
a(g59
I01
tp1096
a(g288
I00
tp1097
a(g323
I01
tp1098
a(g189
I00
tp1099
a(g325
I01
tp1100
a(g60
I01
tp1101
a(g68
I01
tp1102
a(g53
I01
tp1103
atp1104
Rp1105
s(g410
I00
tp1106
g84
((lp1107
tp1108
Rp1109
s(g204
I00
tp1110
g84
((lp1111
(g148
I00
tp1112
a(g459
I00
tp1113
a(g461
I00
tp1114
a(g351
I00
tp1115
a(g144
I00
tp1116
a(g70
I00
tp1117
a(g420
I00
tp1118
a(g49
I00
tp1119
a(g329
I00
tp1120
a(g410
I00
tp1121
a(g55
I00
tp1122
a(g466
I00
tp1123
a(g110
I00
tp1124
a(g150
I00
tp1125
a(g47
I00
tp1126
a(g101
I00
tp1127
a(g218
I00
tp1128
a(g69
I00
tp1129
a(g64
I00
tp1130
a(g208
I00
tp1131
atp1132
Rp1133
s(g55
I00
tp1134
g84
((lp1135
(g61
I00
tp1136
a(g49
I00
tp1137
a(g461
I00
tp1138
a(g110
I00
tp1139
a(g101
I00
tp1140
atp1141
Rp1142
s(g410
I01
tp1143
g84
((lp1144
(g61
I00
tp1145
a(g406
I01
tp1146
a(g56
I00
tp1147
a(g49
I00
tp1148
a(g110
I00
tp1149
a(g420
I01
tp1150
a(g404
I00
tp1151
a(g461
I00
tp1152
a(g101
I00
tp1153
a(g60
I01
tp1154
atp1155
Rp1156
s(g57
I00
tp1157
g84
((lp1158
tp1159
Rp1160
s(g54
I01
tp1161
g84
((lp1162
(g426
I00
tp1163
a(g61
I00
tp1164
a(g459
I00
tp1165
a(g461
I00
tp1166
a(g351
I00
tp1167
a(g56
I00
tp1168
a(g86
I00
tp1169
a(g49
I00
tp1170
a(g329
I00
tp1171
a(g69
I00
tp1172
a(g466
I00
tp1173
a(g55
I00
tp1174
a(g45
I00
tp1175
a(g110
I00
tp1176
a(g47
I00
tp1177
a(g101
I00
tp1178
a(g425
I00
tp1179
a(g92
I00
tp1180
a(g64
I00
tp1181
atp1182
Rp1183
s(g72
I00
tp1184
g84
((lp1185
(g347
I00
tp1186
a(g319
I00
tp1187
a(g189
I00
tp1188
a(g64
I00
tp1189
atp1190
Rp1191
s(g69
I00
tp1192
g84
((lp1193
(g61
I00
tp1194
a(g110
I00
tp1195
a(g49
I00
tp1196
a(S'integer'
p1197
I00
tp1198
a(g461
I00
tp1199
a(g101
I00
tp1200
atp1201
Rp1202
ssS'prereq'
p1203
g432
(g84
tp1204
Rp1205
g351
g84
((lp1206
g45
ag813
ag204
ag60
ag49
ag63
ag72
ag64
ag357
ag425
ag54
ag198
ag53
ag653
ag428
atp1207
Rp1208
sg61
g84
((lp1209
g45
ag633
ag92
ag351
ag49
ag72
ag597
ag53
ag54
ag55
ag428
ag101
ag47
ag337
ag204
ag60
ag420
ag63
ag410
ag64
ag65
ag66
ag813
ag425
ag69
ag198
ag653
ag50
atp1210
Rp1211
sg101
g84
((lp1212
g45
ag92
ag597
ag357
ag54
ag55
ag428
ag47
ag51
ag204
ag60
ag410
ag53
ag425
ag69
ag653
atp1213
Rp1214
sg47
g84
((lp1215
g51
ag45
ag204
ag60
ag49
ag813
ag53
ag357
ag425
ag69
ag54
ag97
ag428
ag653
ag101
atp1216
Rp1217
sg466
g84
((lp1218
g45
ag47
ag49
ag62
ag357
ag54
ag53
ag101
ag428
ag813
ag204
ag60
ag63
ag64
ag425
ag653
atp1219
Rp1220
sg46
g84
((lp1221
tp1222
Rp1223
sg60
g84
((lp1224
g427
ag337
ag47
ag260
ag49
ag72
ag420
ag357
ag97
ag428
ag353
ag101
ag51
ag59
ag52
ag63
ag410
ag64
ag65
ag69
ag813
ag607
ag92
ag198
ag341
atp1225
Rp1226
sg459
g84
((lp1227
g45
ag813
ag260
ag49
ag72
ag62
ag357
ag54
ag53
ag428
ag258
ag204
ag60
ag64
ag65
ag66
ag425
ag70
ag653
ag50
atp1228
Rp1229
sg410
g84
((lp1230
g51
ag813
ag204
ag60
ag49
ag357
ag97
ag428
ag101
ag47
atp1231
Rp1232
sg64
g84
((lp1233
g45
ag813
ag351
ag49
ag341
ag62
ag357
ag54
ag428
ag258
ag204
ag60
ag63
ag53
ag65
ag353
ag425
ag198
ag653
ag72
atp1234
Rp1235
sg214
g84
((lp1236
g813
ag204
ag60
ag49
ag63
ag341
ag64
ag353
ag62
ag357
ag198
ag428
ag72
atp1237
Rp1238
sg68
g84
((lp1239
g427
ag813
ag47
ag260
ag49
ag52
ag357
ag337
ag54
ag97
ag428
ag101
ag60
ag51
ag92
ag63
ag64
ag353
ag69
ag653
atp1240
Rp1241
sg69
g84
((lp1242
g45
ag813
ag47
ag49
ag597
ag357
ag54
ag97
ag428
ag101
ag51
ag204
ag60
ag53
ag425
ag92
ag653
atp1243
Rp1244
sg444
g84
((lp1245
g427
ag813
ag69
ag260
ag49
ag52
ag357
ag54
ag97
ag428
ag101
ag47
ag51
ag63
ag64
ag353
ag607
ag92
ag337
atp1246
Rp1247
sg72
g84
((lp1248
g813
ag204
ag60
ag260
ag49
ag63
ag64
ag65
ag357
ag428
ag198
atp1249
Rp1250
sg437
g84
((lp1251
g337
ag47
ag260
ag49
ag357
ag54
ag97
ag53
ag101
ag428
ag51
ag204
ag60
ag63
ag64
ag353
ag813
ag425
ag69
ag653
atp1252
Rp1253
sg110
g84
((lp1254
g45
ag92
ag597
ag357
ag54
ag55
ag428
ag101
ag47
ag204
ag60
ag410
ag53
ag425
ag69
ag653
atp1255
Rp1256
sg92
g84
((lp1257
g51
ag813
ag60
ag49
ag52
ag357
ag425
ag69
ag54
ag97
ag653
ag101
atp1258
Rp1259
sg48
g84
((lp1260
g428
atp1261
Rp1262
sg49
g84
((lp1263
g45
ag813
ag53
ag92
ag260
ag50
ag597
ag357
ag54
ag55
ag428
ag47
ag258
ag204
ag60
ag62
ag857
ag410
ag64
ag65
ag66
ag425
ag69
ag70
ag653
ag72
atp1264
Rp1265
sg325
g84
((lp1266
g813
ag204
ag60
ag49
ag63
ag64
ag65
ag353
ag357
ag428
ag198
atp1267
Rp1268
sg52
g84
((lp1269
g51
ag813
ag92
ag49
ag357
ag425
ag69
ag54
ag97
ag653
ag101
ag60
atp1270
Rp1271
sg54
g84
((lp1272
g427
ag813
ag69
ag260
ag49
ag52
ag357
ag337
ag97
ag428
ag101
ag47
ag51
ag63
ag64
ag353
ag607
ag92
ag426
atp1273
Rp1274
sg105
g84
((lp1275
g45
ag813
ag92
ag49
ag597
ag357
ag54
ag428
ag101
ag47
ag51
ag204
ag60
ag410
ag53
ag425
ag69
ag653
atp1276
Rp1277
sg56
g84
((lp1278
g427
ag337
ag47
ag48
ag260
ag49
ag72
ag420
ag357
ag54
ag97
ag101
ag51
ag59
ag60
ag63
ag410
ag64
ag65
ag353
ag813
ag425
ag69
ag198
ag653
ag341
atp1279
Rp1280
sg461
g84
((lp1281
g45
ag53
ag92
ag260
ag49
ag50
ag597
ag357
ag54
ag55
ag428
ag47
ag258
ag204
ag60
ag62
ag857
ag410
ag64
ag65
ag66
ag425
ag69
ag70
ag653
ag72
atp1282
Rp1283
sg59
g84
((lp1284
g427
ag337
ag47
ag260
ag49
ag72
ag420
ag357
ag97
ag428
ag101
ag51
ag60
ag63
ag410
ag64
ag65
ag353
ag813
ag69
ag198
ag341
atp1285
Rp1286
sg420
g84
((lp1287
g337
ag813
ag204
ag60
ag49
ag63
ag410
ag64
ag65
ag357
ag428
ag101
ag198
ag47
atp1288
Rp1289
sg53
g84
((lp1290
g51
ag427
ag47
ag260
ag49
ag63
ag64
ag353
ag813
ag357
ag69
ag97
ag337
ag101
atp1291
Rp1292
sg329
g84
((lp1293
g45
ag813
ag204
ag60
ag49
ag63
ag50
ag64
ag65
ag357
ag425
ag54
ag53
ag653
ag428
atp1294
Rp1295
sg70
g84
((lp1296
g813
ag204
ag60
ag260
ag49
ag63
ag72
ag64
ag65
ag62
ag357
ag428
ag50
atp1297
Rp1298
ssS'beta_triggers'
p1299
g432
(g84
tp1300
Rp1301
(g51
I01
tp1302
(lp1303
I8
aI9
aI10
aI13
aI14
aI16
aI17
aI18
aI21
aI22
aI23
aI24
aI25
aI26
aI27
aI30
aI31
aI33
aI36
as(g53
I00
tp1304
(lp1305
I3
aI4
aI7
aI8
aI10
aI35
aI36
as(g45
I00
tp1306
(lp1307
I3
aI4
aI7
aI8
aI10
aI35
aI36
as(g341
I01
tp1308
(lp1309
I4
aI5
aI6
aI9
aI10
aI12
aI13
aI15
aI17
aI18
aI22
aI26
aI28
aI35
aI36
as(g64
I01
tp1310
(lp1311
I0
aI34
aI35
as(g428
I00
tp1312
g84
((lp1313
tp1314
Rp1315
s(g66
I00
tp1316
(lp1317
I7
aI8
aI10
aI15
aI16
aI21
aI36
as(g52
I01
tp1318
(lp1319
I3
aI5
aI6
aI23
aI24
aI25
aI26
aI27
as(g258
I00
tp1320
(lp1321
I15
aI17
aI21
aI22
as(g101
I01
tp1322
(lp1323
I8
aI10
aI11
aI12
aI13
aI14
aI16
aI18
aI19
aI20
aI21
aI22
aI23
aI24
aI25
aI26
as(g72
I01
tp1324
(lp1325
I4
aI5
aI6
aI8
aI9
aI11
aI14
aI15
aI16
aI17
aI21
aI25
aI28
aI35
aI36
as(g69
I01
tp1326
(lp1327
I8
aI9
aI10
aI13
aI14
aI16
aI17
aI18
aI21
aI22
aI23
aI24
aI25
aI26
aI27
aI35
aI36
as(g607
I01
tp1328
(lp1329
I0
aI3
aI5
aI6
aI23
aI24
aI25
aI26
aI27
as(g92
I01
tp1330
(lp1331
I3
aI5
aI6
aI7
aI8
aI10
aI15
aI16
aI18
aI23
aI24
aI25
aI26
aI27
aI34
aI35
aI36
as(g357
I01
tp1332
(lp1333
s(g427
I01
tp1334
(lp1335
I0
aI8
aI9
aI10
aI13
aI14
aI16
aI17
aI18
aI21
aI22
aI23
aI24
aI25
aI26
aI27
aI34
aI35
aI36
as(g67
I00
tp1336
(lp1337
I30
aI32
aI33
as(g48
I00
tp1338
(lp1339
s(g63
I01
tp1340
(lp1341
I0
aI30
aI31
aI32
aI34
aI35
as(g428
I01
tp1342
(lp1343
I0
as(g70
I00
tp1344
(lp1345
I7
aI8
aI9
aI13
aI15
aI16
aI17
aI21
as(g62
I00
tp1346
(lp1347
I7
aI9
aI13
aI14
aI15
aI17
aI21
aI22
as(g53
I01
tp1348
g84
((lp1349
tp1350
Rp1351
s(g337
I01
tp1352
(lp1353
I0
aI8
aI10
aI11
aI12
aI13
aI14
aI16
aI18
aI19
aI20
aI21
aI22
aI23
aI24
aI25
aI26
aI34
aI35
as(g148
I00
tp1354
(lp1355
I7
aI8
aI10
aI15
aI16
aI18
aI36
as(g226
I00
tp1356
(lp1357
I15
aI17
aI18
aI22
as(g425
I00
tp1358
(lp1359
I3
aI4
aI7
aI8
aI10
aI35
aI36
as(g60
I01
tp1360
g84
((lp1361
tp1362
Rp1363
s(g65
I00
tp1364
(lp1365
I7
aI9
aI10
aI14
aI15
aI17
aI18
aI22
as(g813
I01
tp1366
(lp1367
I1
aI2
as(g597
I00
tp1368
(lp1369
I0
aI7
aI8
aI10
aI15
aI16
aI18
aI34
aI35
aI36
as(g857
I00
tp1370
(lp1371
I15
aI16
aI17
aI21
as(g59
I01
tp1372
(lp1373
I4
aI5
aI6
aI8
aI9
aI10
aI13
aI14
aI35
aI36
as(g198
I01
tp1374
(lp1375
I4
aI5
aI6
aI15
aI18
aI22
aI23
aI26
aI27
aI35
as(g260
I01
tp1376
(lp1377
I0
aI8
aI9
aI11
aI14
aI16
aI17
aI19
aI22
aI24
aI26
aI27
aI28
aI29
aI34
aI35
aI36
as(g653
I00
tp1378
(lp1379
I3
aI4
aI7
aI8
aI10
aI35
aI36
as(g368
I00
tp1380
(lp1381
I31
aI32
aI33
as(g420
I01
tp1382
(lp1383
I4
aI5
aI6
aI8
aI10
aI11
aI12
aI13
aI14
aI15
aI16
aI18
aI27
aI35
as(g65
I01
tp1384
(lp1385
I4
aI5
aI6
aI15
aI16
aI21
aI24
aI25
aI27
aI35
as(g633
I00
tp1386
(lp1387
I1
aI7
aI8
aI10
aI15
aI16
aI18
aI36
as(g97
I01
tp1388
(lp1389
I1
aI2
aI8
aI9
aI10
aI13
aI14
aI16
aI17
aI18
aI21
aI22
aI23
aI24
aI25
aI26
aI27
aI36
as(g60
I00
tp1390
(lp1391
s(g50
I00
tp1392
(lp1393
I7
aI8
aI13
aI15
aI16
aI21
aI36
as(g47
I01
tp1394
(lp1395
I0
aI8
aI10
aI11
aI12
aI13
aI14
aI16
aI18
aI19
aI20
aI21
aI22
aI23
aI24
aI25
aI26
as(g114
I00
tp1396
(lp1397
I3
aI5
as(g46
I01
tp1398
g84
((lp1399
tp1400
Rp1401
s(g426
I01
tp1402
(lp1403
I3
aI5
aI6
aI23
aI24
aI25
aI26
aI27
as(g351
I00
tp1404
(lp1405
I7
aI8
aI10
aI15
aI18
aI22
aI36
as(g92
I00
tp1406
g84
((lp1407
tp1408
Rp1409
s(g49
I01
tp1410
(lp1411
I1
aI2
as(g353
I01
tp1412
(lp1413
I0
aI9
aI10
aI12
aI13
aI17
aI18
aI20
aI21
aI23
aI25
aI27
aI28
aI29
aI34
aI35
aI36
as(g410
I00
tp1414
g84
((lp1415
tp1416
Rp1417
s(g204
I00
tp1418
(lp1419
s(g55
I00
tp1420
(lp1421
I7
aI8
aI10
aI15
aI16
aI18
aI35
aI36
as(g410
I01
tp1422
(lp1423
I4
aI5
aI6
aI8
aI10
aI11
aI12
aI13
aI14
aI15
aI16
aI18
aI27
as(g57
I00
tp1424
(lp1425
I2
as(g54
I01
tp1426
(lp1427
I7
aI8
aI10
aI35
aI36
as(g72
I00
tp1428
(lp1429
I7
aI10
aI14
aI15
aI18
aI22
aI36
as(g69
I00
tp1430
(lp1431
I7
aI8
aI10
aI15
aI16
aI18
aI34
aI35
aI36
assbsS'_generator'
p1432
(dp1433
g58
I01
sS'finite'
p1434
I01
ssbsbg27
tp1435
Rp1436
(dp1437
btp1438
Rp1439
(dp1440
btp1441
Rp1442
(dp1443
bcsympy.core.numbers
Rational
p1444
(I-1
I2
tp1445
Rp1446
(dp1447
btp1448
Rp1449
(dp1450
bg5
(g25
(g5
(g35
(S'\\alpha'
p1451
tp1452
Rp1453
(dp1454
g40
g41
(g42
g43
(dp1455
g45
I01
sg46
Nsg47
Nsg48
Nsg49
Nsg50
Nsg51
Nsg52
Nsg53
I01
sg54
I00
sg55
Nsg56
I00
sg57
Nsg58
I01
sg59
I01
sg60
I01
sg61
I00
sg62
I01
sg63
Nsg64
Nsg65
Nsg66
Nsg67
Nsg68
I01
sg69
Nsg70
Nsg71
I01
sg72
Nstp1456
Rp1457
(dp1458
g76
g80
sg1432
(dp1459
g58
I01
sg1434
I01
ssbsbg27
tp1460
Rp1461
(dp1462
bg1436
tp1463
Rp1464
(dp1465
bg1446
tp1466
Rp1467
(dp1468
btp1469
Rp1470
(dp1471
b.