csympy.core.mul
Mul
p0
(csympy.core.numbers
Integer
p1
(I-4
tp2
Rp3
(dp4
bcsympy.core.power
Pow
p5
(g1
(I6
tp6
Rp7
(dp8
bcsympy.core.numbers
Half
p9
(I1
I2
tp10
Rp11
(dp12
btp13
Rp14
(dp15
bg5
(csympy.core.numbers
Pi
p16
(tRp17
(dp18
bg1
(I3
tp19
Rp20
(dp21
btp22
Rp23
(dp24
bg5
(csympy.core.symbol
Symbol
p25
(S'\\alpha'
p26
tp27
Rp28
(dp29
S'_assumptions'
p30
ccopy_reg
_reconstructor
p31
(csympy.core.assumptions
StdFactKB
p32
c__builtin__
dict
p33
(dp34
S'real'
p35
I01
sS'polar'
p36
NsS'irrational'
p37
NsS'antihermitian'
p38
NsS'composite'
p39
NsS'extended_nonnegative'
p40
NsS'even'
p41
NsS'negative'
p42
NsS'algebraic'
p43
NsS'hermitian'
p44
I01
sS'infinite'
p45
I00
sS'integer'
p46
NsS'imaginary'
p47
I00
sS'odd'
p48
NsS'nonzero'
p49
I01
sS'extended_real'
p50
I01
sS'commutative'
p51
I01
sS'extended_nonzero'
p52
I01
sS'positive'
p53
NsS'zero'
p54
I00
sS'extended_negative'
p55
NsS'nonnegative'
p56
NsS'prime'
p57
NsS'complex'
p58
I01
sS'rational'
p59
NsS'extended_positive'
p60
NsS'finite'
p61
I01
sS'extended_nonpositive'
p62
Nstp63
Rp64
(dp65
S'rules'
p66
g31
(csympy.core.facts
FactRules
p67
c__builtin__
object
p68
Ntp69
Rp70
(dp71
S'beta_rules'
p72
(lp73
(c__builtin__
set
p74
((lp75
(S'algebraic'
p76
I00
tp77
a(S'complex'
p78
I01
tp79
atp80
Rp81
(S'transcendental'
p82
I01
tp83
tp84
a(g74
((lp85
(g41
I00
tp86
a(S'integer'
p87
I01
tp88
atp89
Rp90
(S'odd'
p91
I01
tp92
tp93
a(g74
((lp94
(S'integer'
p95
I01
tp96
a(g48
I00
tp97
atp98
Rp99
(S'even'
p100
I01
tp101
tp102
a(g74
((lp103
(S'infinite'
p104
I00
tp105
a(S'real'
p106
I00
tp107
atp108
Rp109
(S'extended_real'
p110
I00
tp111
tp112
a(g74
((lp113
(g110
I01
tp114
a(g106
I00
tp115
atp116
Rp117
(g104
I01
tp118
tp119
a(g74
((lp120
(g110
I01
tp121
a(g104
I00
tp122
atp123
Rp124
(g106
I01
tp125
tp126
a(g74
((lp127
(S'extended_real'
p128
I01
tp129
a(S'finite'
p130
I01
tp131
atp132
Rp133
(S'real'
p134
I01
tp135
tp136
a(g74
((lp137
(S'zero'
p138
I00
tp139
a(S'extended_negative'
p140
I00
tp141
a(g60
I00
tp142
atp143
Rp144
(S'extended_real'
p145
I00
tp146
tp147
a(g74
((lp148
(g138
I00
tp149
a(g145
I01
tp150
a(g60
I00
tp151
atp152
Rp153
(g140
I01
tp154
tp155
a(g74
((lp156
(g60
I00
tp157
a(g145
I01
tp158
a(g140
I00
tp159
atp160
Rp161
(g138
I01
tp162
tp163
a(g74
((lp164
(g138
I00
tp165
a(g145
I01
tp166
a(g140
I00
tp167
atp168
Rp169
(g60
I01
tp170
tp171
a(g74
((lp172
(S'extended_nonzero'
p173
I01
tp174
a(S'extended_nonpositive'
p175
I01
tp176
atp177
Rp178
(S'extended_negative'
p179
I01
tp180
tp181
a(g74
((lp182
(S'extended_nonzero'
p183
I01
tp184
a(g40
I01
tp185
atp186
Rp187
(S'extended_positive'
p188
I01
tp189
tp190
a(g74
((lp191
(S'extended_positive'
p192
I00
tp193
a(S'extended_real'
p194
I01
tp195
atp196
Rp197
(S'extended_nonpositive'
p198
I01
tp199
tp200
a(g74
((lp201
(S'extended_real'
p202
I01
tp203
a(S'extended_negative'
p204
I00
tp205
atp206
Rp207
(S'extended_nonnegative'
p208
I01
tp209
tp210
a(g74
((lp211
(S'zero'
p212
I00
tp213
a(S'positive'
p214
I00
tp215
a(S'negative'
p216
I00
tp217
atp218
Rp219
(S'real'
p220
I00
tp221
tp222
a(g74
((lp223
(g220
I01
tp224
a(g212
I00
tp225
a(g214
I00
tp226
atp227
Rp228
(g216
I01
tp229
tp230
a(g74
((lp231
(g220
I01
tp232
a(g214
I00
tp233
a(g216
I00
tp234
atp235
Rp236
(g212
I01
tp237
tp238
a(g74
((lp239
(g220
I01
tp240
a(g212
I00
tp241
a(g216
I00
tp242
atp243
Rp244
(g214
I01
tp245
tp246
a(g74
((lp247
(S'nonzero'
p248
I01
tp249
a(S'nonpositive'
p250
I01
tp251
atp252
Rp253
(g42
I01
tp254
tp255
a(g74
((lp256
(S'nonzero'
p257
I01
tp258
a(g56
I01
tp259
atp260
Rp261
(S'positive'
p262
I01
tp263
tp264
a(g74
((lp265
(S'real'
p266
I01
tp267
a(S'positive'
p268
I00
tp269
atp270
Rp271
(S'nonpositive'
p272
I01
tp273
tp274
a(g74
((lp275
(S'real'
p276
I01
tp277
a(S'negative'
p278
I00
tp279
atp280
Rp281
(S'nonnegative'
p282
I01
tp283
tp284
a(g74
((lp285
(S'finite'
p286
I01
tp287
a(S'extended_positive'
p288
I01
tp289
atp290
Rp291
(g53
I01
tp292
tp293
a(g74
((lp294
(g55
I01
tp295
a(S'finite'
p296
I01
tp297
atp298
Rp299
(S'negative'
p300
I01
tp301
tp302
a(g74
((lp303
(S'finite'
p304
I01
tp305
a(g62
I01
tp306
atp307
Rp308
(S'nonpositive'
p309
I01
tp310
tp311
a(g74
((lp312
(S'finite'
p313
I01
tp314
a(S'extended_nonnegative'
p315
I01
tp316
atp317
Rp318
(S'nonnegative'
p319
I01
tp320
tp321
a(g74
((lp322
(g61
I01
tp323
a(g52
I01
tp324
atp325
Rp326
(S'nonzero'
p327
I01
tp328
tp329
a(g74
((lp330
(S'extended_nonnegative'
p331
I01
tp332
a(S'extended_nonpositive'
p333
I01
tp334
atp335
Rp336
(S'zero'
p337
I01
tp338
tp339
a(g74
((lp340
(S'nonpositive'
p341
I01
tp342
a(S'nonnegative'
p343
I01
tp344
atp345
Rp346
(S'zero'
p347
I01
tp348
tp349
a(g74
((lp350
(S'even'
p351
I01
tp352
a(g57
I00
tp353
a(S'positive'
p354
I01
tp355
atp356
Rp357
(S'composite'
p358
I01
tp359
tp360
a(g74
((lp361
(g351
I01
tp362
a(g358
I00
tp363
a(g354
I01
tp364
atp365
Rp366
(g57
I01
tp367
tp368
a(g74
((lp369
(g358
I00
tp370
a(g57
I00
tp371
a(g354
I01
tp372
atp373
Rp374
(g351
I00
tp375
tp376
a(g74
((lp377
(g351
I01
tp378
a(g358
I00
tp379
a(g57
I00
tp380
atp381
Rp382
(g354
I00
tp383
tp384
a(g74
((lp385
(S'real'
p386
I01
tp387
a(g59
I00
tp388
atp389
Rp390
(g37
I01
tp391
tp392
a(g74
((lp393
(S'integer'
p394
I00
tp395
a(S'extended_real'
p396
I01
tp397
atp398
Rp399
(S'noninteger'
p400
I01
tp401
tp402
a(g74
((lp403
(S'zero'
p404
I00
tp405
a(S'extended_real'
p406
I01
tp407
atp408
Rp409
(S'extended_nonzero'
p410
I01
tp411
tp412
asS'defined_facts'
p413
g74
((lp414
g341
ag44
ag48
ag41
ag51
ag53
ag400
ag42
ag55
aS'complex'
p415
ag59
aS'finite'
p416
ag40
aS'real'
p417
ag327
ag37
ag38
ag39
ag62
ag52
ag104
ag46
aS'imaginary'
p418
ag57
ag50
ag43
ag347
ag56
ag60
ag82
atp419
Rp420
sS'full_implications'
p421
ccollections
defaultdict
p422
(g74
tp423
Rp424
(g41
I01
tp425
g74
((lp426
(S'real'
p427
I01
tp428
a(S'finite'
p429
I01
tp430
a(g47
I00
tp431
a(g50
I01
tp432
a(g43
I01
tp433
a(g400
I00
tp434
a(g45
I00
tp435
a(g95
I01
tp436
a(g37
I00
tp437
a(g91
I00
tp438
a(g51
I01
tp439
a(g59
I01
tp440
a(g58
I01
tp441
a(g82
I00
tp442
a(g44
I01
tp443
atp444
Rp445
s(g44
I00
tp446
g74
((lp447
(g54
I00
tp448
a(S'positive'
p449
I00
tp450
a(S'prime'
p451
I00
tp452
a(g341
I00
tp453
a(g39
I00
tp454
a(g319
I00
tp455
a(S'nonzero'
p456
I00
tp457
a(g46
I00
tp458
a(g427
I00
tp459
a(g100
I00
tp460
a(g37
I00
tp461
a(g91
I00
tp462
a(g59
I00
tp463
a(g42
I00
tp464
atp465
Rp466
s(g35
I00
tp467
g74
((lp468
(g212
I00
tp469
a(g214
I00
tp470
a(g456
I00
tp471
a(g272
I00
tp472
a(g39
I00
tp473
a(g282
I00
tp474
a(g46
I00
tp475
a(g451
I00
tp476
a(g100
I00
tp477
a(g37
I00
tp478
a(g91
I00
tp479
a(S'rational'
p480
I00
tp481
a(g216
I00
tp482
atp483
Rp484
s(g331
I01
tp485
g74
((lp486
(g47
I00
tp487
a(g202
I01
tp488
a(g204
I00
tp489
a(g42
I00
tp490
a(g51
I01
tp491
atp492
Rp493
s(g42
I01
tp494
g74
((lp495
(g220
I01
tp496
a(g248
I01
tp497
a(g449
I00
tp498
a(g451
I00
tp499
a(g250
I01
tp500
a(g39
I00
tp501
a(g60
I00
tp502
a(g50
I01
tp503
a(g282
I00
tp504
a(g410
I01
tp505
a(g58
I01
tp506
a(g55
I01
tp507
a(g296
I01
tp508
a(g54
I00
tp509
a(g62
I01
tp510
a(g47
I00
tp511
a(g51
I01
tp512
a(g45
I00
tp513
a(g44
I01
tp514
a(g315
I00
tp515
atp516
Rp517
s(g418
I00
tp518
g74
((lp519
tp520
Rp521
s(g56
I00
tp522
g74
((lp523
(g347
I00
tp524
a(g262
I00
tp525
a(g451
I00
tp526
a(g39
I00
tp527
atp528
Rp529
s(g43
I01
tp530
g74
((lp531
(g51
I01
tp532
a(g45
I00
tp533
a(g58
I01
tp534
a(g82
I00
tp535
a(g429
I01
tp536
atp537
Rp538
s(g248
I00
tp539
g74
((lp540
(g262
I00
tp541
a(g451
I00
tp542
a(g42
I00
tp543
a(g39
I00
tp544
atp545
Rp546
s(g91
I01
tp547
g74
((lp548
(g427
I01
tp549
a(g54
I00
tp550
a(g41
I00
tp551
a(g47
I00
tp552
a(g50
I01
tp553
a(g43
I01
tp554
a(g327
I01
tp555
a(g410
I01
tp556
a(g400
I00
tp557
a(g45
I00
tp558
a(g429
I01
tp559
a(g87
I01
tp560
a(g37
I00
tp561
a(g51
I01
tp562
a(g59
I01
tp563
a(g58
I01
tp564
a(g82
I00
tp565
a(g44
I01
tp566
atp567
Rp568
s(g62
I01
tp569
g74
((lp570
(g449
I00
tp571
a(g39
I00
tp572
a(g192
I00
tp573
a(g194
I01
tp574
a(g451
I00
tp575
a(g47
I00
tp576
a(g51
I01
tp577
atp578
Rp579
s(g82
I01
tp580
g74
((lp581
(g54
I00
tp582
a(g451
I00
tp583
a(g45
I00
tp584
a(g76
I00
tp585
a(g39
I00
tp586
a(g46
I00
tp587
a(g100
I00
tp588
a(g91
I00
tp589
a(g51
I01
tp590
a(g78
I01
tp591
a(g59
I00
tp592
a(g429
I01
tp593
atp594
Rp595
s(S'complex'
p596
I01
tp597
g74
((lp598
(g51
I01
tp599
a(g45
I00
tp600
a(g429
I01
tp601
atp602
Rp603
s(g59
I01
tp604
g74
((lp605
(S'real'
p606
I01
tp607
a(g429
I01
tp608
a(g47
I00
tp609
a(g50
I01
tp610
a(S'algebraic'
p611
I01
tp612
a(g45
I00
tp613
a(g37
I00
tp614
a(g51
I01
tp615
a(g58
I01
tp616
a(g82
I00
tp617
a(g44
I01
tp618
atp619
Rp620
s(g347
I01
tp621
g74
((lp622
(S'even'
p623
I01
tp624
a(g331
I01
tp625
a(g47
I00
tp626
a(g43
I01
tp627
a(g333
I01
tp628
a(g59
I01
tp629
a(g58
I01
tp630
a(g42
I00
tp631
a(g220
I01
tp632
a(g451
I00
tp633
a(g60
I00
tp634
a(g410
I00
tp635
a(g44
I01
tp636
a(g51
I01
tp637
a(g179
I00
tp638
a(g449
I00
tp639
a(g39
I00
tp640
a(g341
I01
tp641
a(g145
I01
tp642
a(S'finite'
p643
I01
tp644
a(g87
I01
tp645
a(g45
I00
tp646
a(g456
I00
tp647
a(g343
I01
tp648
a(g400
I00
tp649
a(g37
I00
tp650
a(g91
I00
tp651
a(g82
I00
tp652
atp653
Rp654
s(g417
I01
tp655
g74
((lp656
(S'complex'
p657
I01
tp658
a(g47
I00
tp659
a(g128
I01
tp660
a(g130
I01
tp661
a(g51
I01
tp662
a(g45
I00
tp663
a(g44
I01
tp664
atp665
Rp666
s(g57
I00
tp667
g74
((lp668
tp669
Rp670
s(g38
I00
tp671
g74
((lp672
(g418
I00
tp673
atp674
Rp675
s(g53
I01
tp676
g74
((lp677
(g220
I01
tp678
a(g54
I00
tp679
a(g286
I01
tp680
a(g272
I00
tp681
a(g288
I01
tp682
a(g47
I00
tp683
a(g50
I01
tp684
a(g410
I01
tp685
a(g257
I01
tp686
a(g56
I01
tp687
a(g45
I00
tp688
a(g42
I00
tp689
a(g331
I01
tp690
a(g51
I01
tp691
a(g62
I00
tp692
a(g58
I01
tp693
a(g44
I01
tp694
a(g179
I00
tp695
atp696
Rp697
s(g418
I01
tp698
g74
((lp699
(g54
I00
tp700
a(g35
I00
tp701
a(g319
I00
tp702
a(g415
I01
tp703
a(g42
I00
tp704
a(g451
I00
tp705
a(g60
I00
tp706
a(g38
I01
tp707
a(g179
I00
tp708
a(g51
I01
tp709
a(g429
I01
tp710
a(g449
I00
tp711
a(g39
I00
tp712
a(g100
I00
tp713
a(g62
I00
tp714
a(g45
I00
tp715
a(g456
I00
tp716
a(g341
I00
tp717
a(g50
I00
tp718
a(g59
I00
tp719
a(g400
I00
tp720
a(g46
I00
tp721
a(g37
I00
tp722
a(g91
I00
tp723
a(g315
I00
tp724
a(g52
I00
tp725
atp726
Rp727
s(g60
I00
tp728
g74
((lp729
(g53
I00
tp730
a(g451
I00
tp731
a(g39
I00
tp732
atp733
Rp734
s(g52
I00
tp735
g74
((lp736
(g449
I00
tp737
a(g327
I00
tp738
a(g188
I00
tp739
a(g39
I00
tp740
a(g451
I00
tp741
a(g179
I00
tp742
a(g42
I00
tp743
atp744
Rp745
s(g327
I01
tp746
g74
((lp747
(g35
I01
tp748
a(g54
I00
tp749
a(g61
I01
tp750
a(g47
I00
tp751
a(g50
I01
tp752
a(g52
I01
tp753
a(g45
I00
tp754
a(g51
I01
tp755
a(g58
I01
tp756
a(g44
I01
tp757
atp758
Rp759
s(g138
I00
tp760
g74
((lp761
tp762
Rp763
s(g216
I00
tp764
g74
((lp765
tp766
Rp767
s(g415
I00
tp768
g74
((lp769
(g54
I00
tp770
a(g449
I00
tp771
a(g451
I00
tp772
a(g341
I00
tp773
a(S'imaginary'
p774
I00
tp775
a(g43
I00
tp776
a(g39
I00
tp777
a(g319
I00
tp778
a(g59
I00
tp779
a(g456
I00
tp780
a(g46
I00
tp781
a(g417
I00
tp782
a(g100
I00
tp783
a(g37
I00
tp784
a(g91
I00
tp785
a(g82
I00
tp786
a(g42
I00
tp787
atp788
Rp789
s(g51
I01
tp790
g74
((lp791
tp792
Rp793
s(g55
I00
tp794
g74
((lp795
(g300
I00
tp796
atp797
Rp798
s(S'prime'
p799
I01
tp800
g74
((lp801
(g327
I01
tp802
a(g54
I00
tp803
a(g47
I00
tp804
a(g410
I01
tp805
a(g42
I00
tp806
a(g331
I01
tp807
a(g59
I01
tp808
a(g58
I01
tp809
a(g44
I01
tp810
a(g427
I01
tp811
a(g449
I01
tp812
a(g179
I00
tp813
a(g51
I01
tp814
a(g50
I01
tp815
a(g188
I01
tp816
a(g39
I00
tp817
a(g43
I01
tp818
a(S'integer'
p819
I01
tp820
a(g45
I00
tp821
a(g429
I01
tp822
a(g341
I00
tp823
a(g343
I01
tp824
a(g400
I00
tp825
a(g37
I00
tp826
a(g62
I00
tp827
a(g82
I00
tp828
atp829
Rp830
s(g611
I00
tp831
g74
((lp832
(g54
I00
tp833
a(g451
I00
tp834
a(g39
I00
tp835
a(g46
I00
tp836
a(g100
I00
tp837
a(g91
I00
tp838
a(S'rational'
p839
I00
tp840
atp841
Rp842
s(S'positive'
p843
I00
tp844
g74
((lp845
(g39
I00
tp846
a(g451
I00
tp847
atp848
Rp849
s(g50
I01
tp850
g74
((lp851
(g47
I00
tp852
a(S'commutative'
p853
I01
tp854
atp855
Rp856
s(g188
I01
tp857
g74
((lp858
(g54
I00
tp859
a(g341
I00
tp860
a(g47
I00
tp861
a(g145
I01
tp862
a(g183
I01
tp863
a(g179
I00
tp864
a(g40
I01
tp865
a(g51
I01
tp866
a(g198
I00
tp867
a(g42
I00
tp868
atp869
Rp870
s(g250
I01
tp871
g74
((lp872
(g266
I01
tp873
a(g268
I00
tp874
a(g451
I00
tp875
a(g50
I01
tp876
a(g60
I00
tp877
a(g39
I00
tp878
a(g45
I00
tp879
a(g304
I01
tp880
a(g62
I01
tp881
a(g47
I00
tp882
a(g51
I01
tp883
a(g58
I01
tp884
a(g44
I01
tp885
atp886
Rp887
s(g44
I01
tp888
g74
((lp889
tp890
Rp891
s(g358
I00
tp892
g74
((lp893
tp894
Rp895
s(g410
I01
tp896
g74
((lp897
(g47
I00
tp898
a(g406
I01
tp899
a(g404
I00
tp900
a(g51
I01
tp901
atp902
Rp903
s(g55
I01
tp904
g74
((lp905
(g54
I00
tp906
a(g449
I00
tp907
a(g39
I00
tp908
a(g47
I00
tp909
a(g145
I01
tp910
a(g319
I00
tp911
a(g173
I01
tp912
a(g451
I00
tp913
a(g175
I01
tp914
a(g60
I00
tp915
a(g51
I01
tp916
a(g208
I00
tp917
atp918
Rp919
s(g623
I00
tp920
g74
((lp921
(g54
I00
tp922
atp923
Rp924
s(g87
I01
tp925
g74
((lp926
(g427
I01
tp927
a(g429
I01
tp928
a(g47
I00
tp929
a(g50
I01
tp930
a(g43
I01
tp931
a(g400
I00
tp932
a(g45
I00
tp933
a(g37
I00
tp934
a(g51
I01
tp935
a(S'rational'
p936
I01
tp937
a(g58
I01
tp938
a(g82
I00
tp939
a(g44
I01
tp940
atp941
Rp942
s(g51
I00
tp943
g74
((lp944
(g54
I00
tp945
a(g35
I00
tp946
a(g47
I00
tp947
a(g319
I00
tp948
a(g42
I00
tp949
a(g451
I00
tp950
a(g60
I00
tp951
a(g76
I00
tp952
a(g52
I00
tp953
a(g179
I00
tp954
a(S'complex'
p955
I00
tp956
a(g449
I00
tp957
a(g39
I00
tp958
a(g100
I00
tp959
a(g315
I00
tp960
a(g456
I00
tp961
a(g341
I00
tp962
a(S'extended_real'
p963
I00
tp964
a(g59
I00
tp965
a(g400
I00
tp966
a(g46
I00
tp967
a(g37
I00
tp968
a(g91
I00
tp969
a(g62
I00
tp970
a(g82
I00
tp971
atp972
Rp973
s(g40
I00
tp974
g74
((lp975
(g337
I00
tp976
a(g449
I00
tp977
a(g451
I00
tp978
a(g188
I00
tp979
a(g39
I00
tp980
a(g319
I00
tp981
atp982
Rp983
s(g37
I01
tp984
g74
((lp985
(g386
I01
tp986
a(g54
I00
tp987
a(g39
I00
tp988
a(g45
I00
tp989
a(g47
I00
tp990
a(g50
I01
tp991
a(g100
I00
tp992
a(g410
I01
tp993
a(g327
I01
tp994
a(g46
I00
tp995
a(g451
I00
tp996
a(g91
I00
tp997
a(g51
I01
tp998
a(g400
I01
tp999
a(g58
I01
tp1000
a(g59
I00
tp1001
a(g44
I01
tp1002
a(g429
I01
tp1003
atp1004
Rp1005
s(g104
I00
tp1006
g74
((lp1007
tp1008
Rp1009
s(g36
I01
tp1010
g74
((lp1011
tp1012
Rp1013
s(g416
I01
tp1014
g74
((lp1015
(g45
I00
tp1016
atp1017
Rp1018
s(g341
I00
tp1019
g74
((lp1020
(g347
I00
tp1021
a(g42
I00
tp1022
atp1023
Rp1024
s(g82
I00
tp1025
g74
((lp1026
tp1027
Rp1028
s(g39
I01
tp1029
g74
((lp1030
(g327
I01
tp1031
a(g54
I00
tp1032
a(g47
I00
tp1033
a(g43
I01
tp1034
a(g42
I00
tp1035
a(g331
I01
tp1036
a(g59
I01
tp1037
a(g58
I01
tp1038
a(g44
I01
tp1039
a(g427
I01
tp1040
a(g799
I00
tp1041
a(g843
I01
tp1042
a(g179
I00
tp1043
a(g51
I01
tp1044
a(g188
I01
tp1045
a(g50
I01
tp1046
a(g410
I01
tp1047
a(g46
I01
tp1048
a(g45
I00
tp1049
a(g429
I01
tp1050
a(g341
I00
tp1051
a(g343
I01
tp1052
a(g400
I00
tp1053
a(g37
I00
tp1054
a(g62
I00
tp1055
a(g82
I00
tp1056
atp1057
Rp1058
s(g643
I00
tp1059
g74
((lp1060
(g54
I00
tp1061
a(g53
I00
tp1062
a(g451
I00
tp1063
a(g309
I00
tp1064
a(g47
I00
tp1065
a(g76
I00
tp1066
a(g39
I00
tp1067
a(g319
I00
tp1068
a(g82
I00
tp1069
a(g134
I00
tp1070
a(g46
I00
tp1071
a(g327
I00
tp1072
a(g100
I00
tp1073
a(g37
I00
tp1074
a(g91
I00
tp1075
a(g596
I00
tp1076
a(g59
I00
tp1077
a(g300
I00
tp1078
atp1079
Rp1080
s(g343
I01
tp1081
g74
((lp1082
(g276
I01
tp1083
a(g313
I01
tp1084
a(g47
I00
tp1085
a(g50
I01
tp1086
a(g278
I00
tp1087
a(g45
I00
tp1088
a(g179
I00
tp1089
a(g315
I01
tp1090
a(g51
I01
tp1091
a(g58
I01
tp1092
a(g44
I01
tp1093
atp1094
Rp1095
s(g400
I00
tp1096
g74
((lp1097
tp1098
Rp1099
s(g194
I00
tp1100
g74
((lp1101
(g138
I00
tp1102
a(g449
I00
tp1103
a(g134
I00
tp1104
a(g341
I00
tp1105
a(g60
I00
tp1106
a(g410
I00
tp1107
a(g39
I00
tp1108
a(g319
I00
tp1109
a(g451
I00
tp1110
a(g400
I00
tp1111
a(g46
I00
tp1112
a(g456
I00
tp1113
a(g100
I00
tp1114
a(g140
I00
tp1115
a(g37
I00
tp1116
a(g91
I00
tp1117
a(g208
I00
tp1118
a(g59
I00
tp1119
a(g42
I00
tp1120
a(g198
I00
tp1121
atp1122
Rp1123
s(g46
I00
tp1124
g74
((lp1125
(g54
I00
tp1126
a(g39
I00
tp1127
a(g100
I00
tp1128
a(g451
I00
tp1129
a(g91
I00
tp1130
atp1131
Rp1132
s(g400
I01
tp1133
g74
((lp1134
(g54
I00
tp1135
a(g396
I01
tp1136
a(g47
I00
tp1137
a(g39
I00
tp1138
a(g410
I01
tp1139
a(g394
I00
tp1140
a(g100
I00
tp1141
a(g91
I00
tp1142
a(g51
I01
tp1143
a(g451
I00
tp1144
atp1145
Rp1146
s(g48
I00
tp1147
g74
((lp1148
tp1149
Rp1150
s(g45
I01
tp1151
g74
((lp1152
(g416
I00
tp1153
a(g54
I00
tp1154
a(g449
I00
tp1155
a(g451
I00
tp1156
a(g341
I00
tp1157
a(g47
I00
tp1158
a(g76
I00
tp1159
a(g39
I00
tp1160
a(g319
I00
tp1161
a(g59
I00
tp1162
a(g456
I00
tp1163
a(g46
I00
tp1164
a(g35
I00
tp1165
a(g100
I00
tp1166
a(g37
I00
tp1167
a(g91
I00
tp1168
a(g415
I00
tp1169
a(g82
I00
tp1170
a(g42
I00
tp1171
atp1172
Rp1173
s(g62
I00
tp1174
g74
((lp1175
(g337
I00
tp1176
a(g309
I00
tp1177
a(g179
I00
tp1178
a(g42
I00
tp1179
atp1180
Rp1181
s(g59
I00
tp1182
g74
((lp1183
(g54
I00
tp1184
a(g100
I00
tp1185
a(g39
I00
tp1186
a(S'integer'
p1187
I00
tp1188
a(g451
I00
tp1189
a(g91
I00
tp1190
atp1191
Rp1192
ssS'prereq'
p1193
g422
(g74
tp1194
Rp1195
g341
g74
((lp1196
g35
ag799
ag194
ag51
ag347
ag39
ag53
ag62
ag42
ag44
ag415
ag45
ag188
ag643
ag418
atp1197
Rp1198
sg54
g74
((lp1199
g341
ag44
ag91
ag37
ag623
ag51
ag53
ag400
ag42
ag55
ag415
ag59
ag643
ag62
ag35
ag327
ag82
ag39
ag40
ag410
ag45
ag46
ag418
ag799
ag194
ag611
ag56
ag188
atp1200
Rp1201
sg91
g74
((lp1202
g35
ag41
ag194
ag37
ag400
ag347
ag611
ag44
ag415
ag59
ag45
ag46
ag418
ag82
ag643
ag51
atp1203
Rp1204
sg456
g74
((lp1205
g35
ag799
ag194
ag37
ag347
ag39
ag53
ag42
ag52
ag44
ag415
ag45
ag418
ag643
ag91
ag51
atp1206
Rp1207
sg51
g74
((lp1208
g250
ag347
ag91
ag327
ag53
ag400
ag42
ag55
ag596
ag59
ag62
ag417
ag41
ag37
ag39
ag331
ag43
ag87
ag418
ag799
ag50
ag410
ag343
ag188
ag82
atp1209
Rp1210
sg449
g74
((lp1211
g35
ag799
ag194
ag51
ag347
ag250
ag39
ag248
ag62
ag42
ag55
ag56
ag52
ag44
ag415
ag45
ag60
ag418
ag643
ag40
atp1212
Rp1213
sg400
g74
((lp1214
g41
ag799
ag194
ag51
ag39
ag347
ag87
ag418
ag91
ag37
atp1215
Rp1216
sg42
g74
((lp1217
g35
ag799
ag194
ag51
ag248
ag341
ag39
ag53
ag331
ag347
ag55
ag343
ag52
ag44
ag415
ag45
ag188
ag418
ag643
ag62
atp1218
Rp1219
sg204
g74
((lp1220
g799
ag194
ag51
ag39
ag53
ag331
ag42
ag343
ag418
ag52
ag347
ag188
ag62
atp1221
Rp1222
sg58
g74
((lp1223
g417
ag799
ag37
ag250
ag39
ag53
ag41
ag42
ag343
ag51
ag43
ag347
ag327
ag59
ag45
ag87
ag418
ag643
ag91
ag82
atp1224
Rp1225
sg59
g74
((lp1226
g35
ag799
ag194
ag37
ag39
ag41
ag347
ag611
ag44
ag415
ag82
ag45
ag87
ag418
ag643
ag91
ag51
atp1227
Rp1228
sg429
g74
((lp1229
g417
ag799
ag37
ag250
ag39
ag53
ag41
ag42
ag343
ag43
ag347
ag596
ag59
ag45
ag87
ag418
ag327
ag91
ag82
atp1230
Rp1231
sg62
g74
((lp1232
g799
ag194
ag51
ag250
ag39
ag53
ag42
ag55
ag347
ag418
ag188
atp1233
Rp1234
sg427
g74
((lp1235
g327
ag41
ag194
ag37
ag347
ag250
ag39
ag53
ag42
ag343
ag799
ag44
ag415
ag59
ag45
ag87
ag418
ag643
ag91
ag51
atp1236
Rp1237
sg36
g74
((lp1238
tp1239
Rp1240
sg37
g74
((lp1241
g41
ag35
ag194
ag51
ag39
ag799
ag44
ag347
ag415
ag59
ag45
ag87
ag418
ag643
ag91
atp1242
Rp1243
sg38
g74
((lp1244
g418
atp1245
Rp1246
sg39
g74
((lp1247
g250
ag347
ag37
ag248
ag51
ag843
ag400
ag42
ag55
ag415
ag59
ag643
ag40
ag35
ag82
ag62
ag52
ag45
ag46
ag418
ag799
ag194
ag611
ag44
ag56
ag60
atp1248
Rp1249
sg315
g74
((lp1250
g799
ag194
ag51
ag39
ag53
ag42
ag55
ag343
ag347
ag418
ag188
atp1251
Rp1252
sg100
g74
((lp1253
g35
ag194
ag37
ag400
ag347
ag611
ag44
ag415
ag59
ag45
ag46
ag418
ag82
ag91
ag643
ag51
atp1254
Rp1255
sg43
g74
((lp1256
g41
ag799
ag82
ag39
ag347
ag415
ag59
ag45
ag87
ag643
ag91
ag51
atp1257
Rp1258
sg45
g74
((lp1259
g417
ag799
ag37
ag327
ag250
ag39
ag53
ag41
ag42
ag343
ag43
ag347
ag596
ag59
ag87
ag418
ag416
ag91
ag82
atp1260
Rp1261
sg95
g74
((lp1262
g35
ag799
ag194
ag37
ag347
ag39
ag41
ag400
ag611
ag44
ag415
ag59
ag45
ag418
ag82
ag91
ag643
ag51
atp1263
Rp1264
sg47
g74
((lp1265
g250
ag347
ag91
ag327
ag51
ag53
ag400
ag42
ag55
ag415
ag59
ag643
ag62
ag417
ag41
ag37
ag38
ag39
ag331
ag410
ag45
ag87
ag799
ag50
ag343
ag188
atp1266
Rp1267
sg451
g74
((lp1268
g250
ag347
ag37
ag248
ag51
ag843
ag400
ag42
ag55
ag415
ag59
ag643
ag40
ag35
ag82
ag39
ag62
ag52
ag45
ag46
ag418
ag194
ag611
ag44
ag56
ag60
atp1269
Rp1270
sg50
g74
((lp1271
g250
ag347
ag91
ag327
ag51
ag53
ag400
ag42
ag55
ag59
ag62
ag417
ag41
ag37
ag39
ag331
ag410
ag87
ag418
ag799
ag343
ag188
atp1272
Rp1273
sg410
g74
((lp1274
g327
ag799
ag194
ag51
ag39
ag53
ag400
ag42
ag55
ag347
ag418
ag91
ag188
ag37
atp1275
Rp1276
sg44
g74
((lp1277
g41
ag417
ag37
ag250
ag39
ag53
ag42
ag343
ag799
ag347
ag59
ag87
ag327
ag91
atp1278
Rp1279
sg319
g74
((lp1280
g35
ag799
ag194
ag51
ag39
ag53
ag40
ag42
ag55
ag347
ag415
ag45
ag44
ag643
ag418
atp1281
Rp1282
sg60
g74
((lp1283
g799
ag194
ag51
ag250
ag39
ag53
ag62
ag42
ag55
ag52
ag347
ag418
ag40
atp1284
Rp1285
sg82
g74
((lp1286
g41
ag799
ag51
ag39
ag43
ag347
ag415
ag59
ag45
ag87
ag643
ag91
atp1287
Rp1288
ssS'beta_triggers'
p1289
g422
(g74
tp1290
Rp1291
(g41
I01
tp1292
(lp1293
I8
aI9
aI10
aI13
aI14
aI16
aI17
aI18
aI21
aI22
aI23
aI24
aI25
aI26
aI27
aI30
aI31
aI33
aI36
as(g44
I00
tp1294
(lp1295
I3
aI4
aI7
aI8
aI10
aI35
aI36
as(g35
I00
tp1296
(lp1297
I3
aI4
aI7
aI8
aI10
aI35
aI36
as(g331
I01
tp1298
(lp1299
I4
aI5
aI6
aI9
aI10
aI12
aI13
aI15
aI17
aI18
aI22
aI26
aI28
aI35
aI36
as(g42
I01
tp1300
(lp1301
I0
aI34
aI35
as(g418
I00
tp1302
g74
((lp1303
tp1304
Rp1305
s(g56
I00
tp1306
(lp1307
I7
aI8
aI10
aI15
aI16
aI21
aI36
as(g43
I01
tp1308
(lp1309
I3
aI5
aI6
aI23
aI24
aI25
aI26
aI27
as(g248
I00
tp1310
(lp1311
I15
aI17
aI21
aI22
as(g91
I01
tp1312
(lp1313
I8
aI10
aI11
aI12
aI13
aI14
aI16
aI18
aI19
aI20
aI21
aI22
aI23
aI24
aI25
aI26
as(g62
I01
tp1314
(lp1315
I4
aI5
aI6
aI8
aI9
aI11
aI14
aI15
aI16
aI17
aI21
aI25
aI28
aI35
aI36
as(g82
I01
tp1316
(lp1317
I3
aI5
aI6
aI7
aI8
aI10
aI15
aI16
aI18
aI23
aI24
aI25
aI26
aI27
aI34
aI35
aI36
as(g596
I01
tp1318
(lp1319
I0
aI3
aI5
aI6
aI23
aI24
aI25
aI26
aI27
as(g59
I01
tp1320
(lp1321
I8
aI9
aI10
aI13
aI14
aI16
aI17
aI18
aI21
aI22
aI23
aI24
aI25
aI26
aI27
aI35
aI36
as(g347
I01
tp1322
(lp1323
s(g417
I01
tp1324
(lp1325
I0
aI8
aI9
aI10
aI13
aI14
aI16
aI17
aI18
aI21
aI22
aI23
aI24
aI25
aI26
aI27
aI34
aI35
aI36
as(g57
I00
tp1326
(lp1327
I30
aI32
aI33
as(g38
I00
tp1328
(lp1329
s(g53
I01
tp1330
(lp1331
I0
aI30
aI31
aI32
aI34
aI35
as(g418
I01
tp1332
(lp1333
I0
as(g60
I00
tp1334
(lp1335
I7
aI8
aI9
aI13
aI15
aI16
aI17
aI21
as(g52
I00
tp1336
(lp1337
I7
aI9
aI13
aI14
aI15
aI17
aI21
aI22
as(g327
I01
tp1338
(lp1339
I0
aI8
aI10
aI11
aI12
aI13
aI14
aI16
aI18
aI19
aI20
aI21
aI22
aI23
aI24
aI25
aI26
aI34
aI35
as(g138
I00
tp1340
(lp1341
I7
aI8
aI10
aI15
aI16
aI18
aI36
as(g216
I00
tp1342
(lp1343
I15
aI17
aI18
aI22
as(g415
I00
tp1344
(lp1345
I3
aI4
aI7
aI8
aI10
aI35
aI36
as(g51
I01
tp1346
g74
((lp1347
tp1348
Rp1349
s(g55
I00
tp1350
(lp1351
I7
aI9
aI10
aI14
aI15
aI17
aI18
aI22
as(g799
I01
tp1352
(lp1353
I1
aI2
as(g611
I00
tp1354
(lp1355
I0
aI7
aI8
aI10
aI15
aI16
aI18
aI34
aI35
aI36
as(g843
I00
tp1356
(lp1357
I15
aI16
aI17
aI21
as(g50
I01
tp1358
(lp1359
I4
aI5
aI6
aI8
aI9
aI10
aI13
aI14
aI35
aI36
as(g188
I01
tp1360
(lp1361
I4
aI5
aI6
aI15
aI18
aI22
aI23
aI26
aI27
aI35
as(g250
I01
tp1362
(lp1363
I0
aI8
aI9
aI11
aI14
aI16
aI17
aI19
aI22
aI24
aI26
aI27
aI28
aI29
aI34
aI35
aI36
as(g44
I01
tp1364
g74
((lp1365
tp1366
Rp1367
s(g358
I00
tp1368
(lp1369
I31
aI32
aI33
as(g410
I01
tp1370
(lp1371
I4
aI5
aI6
aI8
aI10
aI11
aI12
aI13
aI14
aI15
aI16
aI18
aI27
aI35
as(g55
I01
tp1372
(lp1373
I4
aI5
aI6
aI15
aI16
aI21
aI24
aI25
aI27
aI35
as(g623
I00
tp1374
(lp1375
I1
aI7
aI8
aI10
aI15
aI16
aI18
aI36
as(g87
I01
tp1376
(lp1377
I1
aI2
aI8
aI9
aI10
aI13
aI14
aI16
aI17
aI18
aI21
aI22
aI23
aI24
aI25
aI26
aI27
aI36
as(g51
I00
tp1378
(lp1379
s(g40
I00
tp1380
(lp1381
I7
aI8
aI13
aI15
aI16
aI21
aI36
as(g37
I01
tp1382
(lp1383
I0
aI8
aI10
aI11
aI12
aI13
aI14
aI16
aI18
aI19
aI20
aI21
aI22
aI23
aI24
aI25
aI26
as(g104
I00
tp1384
(lp1385
I3
aI5
as(g36
I01
tp1386
g74
((lp1387
tp1388
Rp1389
s(g416
I01
tp1390
(lp1391
I3
aI5
aI6
aI23
aI24
aI25
aI26
aI27
as(g341
I00
tp1392
(lp1393
I7
aI8
aI10
aI15
aI18
aI22
aI36
as(g82
I00
tp1394
g74
((lp1395
tp1396
Rp1397
s(g39
I01
tp1398
(lp1399
I1
aI2
as(g643
I00
tp1400
(lp1401
I3
aI4
aI7
aI8
aI10
aI35
aI36
as(g343
I01
tp1402
(lp1403
I0
aI9
aI10
aI12
aI13
aI17
aI18
aI20
aI21
aI23
aI25
aI27
aI28
aI29
aI34
aI35
aI36
as(g400
I00
tp1404
g74
((lp1405
tp1406
Rp1407
s(g194
I00
tp1408
(lp1409
s(g46
I00
tp1410
(lp1411
I7
aI8
aI10
aI15
aI16
aI18
aI35
aI36
as(g400
I01
tp1412
(lp1413
I4
aI5
aI6
aI8
aI10
aI11
aI12
aI13
aI14
aI15
aI16
aI18
aI27
as(g48
I00
tp1414
(lp1415
I2
as(g45
I01
tp1416
(lp1417
I7
aI8
aI10
aI35
aI36
as(g62
I00
tp1418
(lp1419
I7
aI10
aI14
aI15
aI18
aI22
aI36
as(g59
I00
tp1420
(lp1421
I7
aI8
aI10
aI15
aI16
aI18
aI34
aI35
aI36
assbsS'_generator'
p1422
(dp1423
g49
I01
sS'finite'
p1424
I01
ssbsbcsympy.core.numbers
NegativeOne
p1425
(I-1
tp1426
Rp1427
(dp1428
btp1429
Rp1430
(dp1431
bg5
(csympy.core.add
Add
p1432
(g0
(g1
(I4
tp1433
Rp1434
(dp1435
bg5
(g25
(S'\\alpha'
p1436
tp1437
Rp1438
(dp1439
g30
g31
(g32
g33
(dp1440
S'real'
p1441
I01
sS'polar'
p1442
NsS'irrational'
p1443
NsS'antihermitian'
p1444
NsS'composite'
p1445
NsS'extended_nonnegative'
p1446
NsS'even'
p1447
NsS'algebraic'
p1448
NsS'hermitian'
p1449
I01
sS'infinite'
p1450
I00
sS'integer'
p1451
NsS'imaginary'
p1452
I00
sS'odd'
p1453
NsS'nonzero'
p1454
I01
sS'extended_real'
p1455
I01
sS'commutative'
p1456
I01
sS'zero'
p1457
I00
sS'extended_nonzero'
p1458
I01
sS'positive'
p1459
NsS'negative'
p1460
NsS'extended_negative'
p1461
NsS'nonnegative'
p1462
NsS'prime'
p1463
NsS'complex'
p1464
I01
sS'rational'
p1465
NsS'extended_positive'
p1466
NsS'finite'
p1467
I01
sS'extended_nonpositive'
p1468
Nstp1469
Rp1470
(dp1471
g66
g31
(g67
g68
Ntp1472
Rp1473
(dp1474
g72
(lp1475
(g74
((lp1476
(S'algebraic'
p1477
I00
tp1478
a(S'complex'
p1479
I01
tp1480
atp1481
Rp1482
(S'transcendental'
p1483
I01
tp1484
tp1485
a(g74
((lp1486
(g1447
I00
tp1487
a(S'integer'
p1488
I01
tp1489
atp1490
Rp1491
(S'odd'
p1492
I01
tp1493
tp1494
a(g74
((lp1495
(S'integer'
p1496
I01
tp1497
a(g1453
I00
tp1498
atp1499
Rp1500
(S'even'
p1501
I01
tp1502
tp1503
a(g74
((lp1504
(S'infinite'
p1505
I00
tp1506
a(S'real'
p1507
I00
tp1508
atp1509
Rp1510
(S'extended_real'
p1511
I00
tp1512
tp1513
a(g74
((lp1514
(g1511
I01
tp1515
a(g1507
I00
tp1516
atp1517
Rp1518
(g1505
I01
tp1519
tp1520
a(g74
((lp1521
(g1511
I01
tp1522
a(g1505
I00
tp1523
atp1524
Rp1525
(g1507
I01
tp1526
tp1527
a(g74
((lp1528
(S'extended_real'
p1529
I01
tp1530
a(S'finite'
p1531
I01
tp1532
atp1533
Rp1534
(S'real'
p1535
I01
tp1536
tp1537
a(g74
((lp1538
(S'zero'
p1539
I00
tp1540
a(S'extended_negative'
p1541
I00
tp1542
a(g1466
I00
tp1543
atp1544
Rp1545
(S'extended_real'
p1546
I00
tp1547
tp1548
a(g74
((lp1549
(g1539
I00
tp1550
a(g1546
I01
tp1551
a(g1466
I00
tp1552
atp1553
Rp1554
(g1541
I01
tp1555
tp1556
a(g74
((lp1557
(g1466
I00
tp1558
a(g1546
I01
tp1559
a(g1541
I00
tp1560
atp1561
Rp1562
(g1539
I01
tp1563
tp1564
a(g74
((lp1565
(g1539
I00
tp1566
a(g1546
I01
tp1567
a(g1541
I00
tp1568
atp1569
Rp1570
(g1466
I01
tp1571
tp1572
a(g74
((lp1573
(S'extended_nonzero'
p1574
I01
tp1575
a(S'extended_nonpositive'
p1576
I01
tp1577
atp1578
Rp1579
(S'extended_negative'
p1580
I01
tp1581
tp1582
a(g74
((lp1583
(S'extended_nonzero'
p1584
I01
tp1585
a(g1446
I01
tp1586
atp1587
Rp1588
(S'extended_positive'
p1589
I01
tp1590
tp1591
a(g74
((lp1592
(S'extended_positive'
p1593
I00
tp1594
a(S'extended_real'
p1595
I01
tp1596
atp1597
Rp1598
(S'extended_nonpositive'
p1599
I01
tp1600
tp1601
a(g74
((lp1602
(S'extended_real'
p1603
I01
tp1604
a(S'extended_negative'
p1605
I00
tp1606
atp1607
Rp1608
(S'extended_nonnegative'
p1609
I01
tp1610
tp1611
a(g74
((lp1612
(S'zero'
p1613
I00
tp1614
a(S'positive'
p1615
I00
tp1616
a(S'negative'
p1617
I00
tp1618
atp1619
Rp1620
(S'real'
p1621
I00
tp1622
tp1623
a(g74
((lp1624
(g1621
I01
tp1625
a(g1613
I00
tp1626
a(g1615
I00
tp1627
atp1628
Rp1629
(g1617
I01
tp1630
tp1631
a(g74
((lp1632
(g1621
I01
tp1633
a(g1615
I00
tp1634
a(g1617
I00
tp1635
atp1636
Rp1637
(g1613
I01
tp1638
tp1639
a(g74
((lp1640
(g1621
I01
tp1641
a(g1613
I00
tp1642
a(g1617
I00
tp1643
atp1644
Rp1645
(g1615
I01
tp1646
tp1647
a(g74
((lp1648
(S'nonzero'
p1649
I01
tp1650
a(S'nonpositive'
p1651
I01
tp1652
atp1653
Rp1654
(g1460
I01
tp1655
tp1656
a(g74
((lp1657
(S'nonzero'
p1658
I01
tp1659
a(g1462
I01
tp1660
atp1661
Rp1662
(S'positive'
p1663
I01
tp1664
tp1665
a(g74
((lp1666
(S'real'
p1667
I01
tp1668
a(S'positive'
p1669
I00
tp1670
atp1671
Rp1672
(S'nonpositive'
p1673
I01
tp1674
tp1675
a(g74
((lp1676
(S'real'
p1677
I01
tp1678
a(S'negative'
p1679
I00
tp1680
atp1681
Rp1682
(S'nonnegative'
p1683
I01
tp1684
tp1685
a(g74
((lp1686
(S'finite'
p1687
I01
tp1688
a(S'extended_positive'
p1689
I01
tp1690
atp1691
Rp1692
(g1459
I01
tp1693
tp1694
a(g74
((lp1695
(g1461
I01
tp1696
a(S'finite'
p1697
I01
tp1698
atp1699
Rp1700
(S'negative'
p1701
I01
tp1702
tp1703
a(g74
((lp1704
(S'finite'
p1705
I01
tp1706
a(g1468
I01
tp1707
atp1708
Rp1709
(S'nonpositive'
p1710
I01
tp1711
tp1712
a(g74
((lp1713
(S'finite'
p1714
I01
tp1715
a(S'extended_nonnegative'
p1716
I01
tp1717
atp1718
Rp1719
(S'nonnegative'
p1720
I01
tp1721
tp1722
a(g74
((lp1723
(g1467
I01
tp1724
a(g1458
I01
tp1725
atp1726
Rp1727
(S'nonzero'
p1728
I01
tp1729
tp1730
a(g74
((lp1731
(S'extended_nonnegative'
p1732
I01
tp1733
a(S'extended_nonpositive'
p1734
I01
tp1735
atp1736
Rp1737
(S'zero'
p1738
I01
tp1739
tp1740
a(g74
((lp1741
(S'nonpositive'
p1742
I01
tp1743
a(S'nonnegative'
p1744
I01
tp1745
atp1746
Rp1747
(S'zero'
p1748
I01
tp1749
tp1750
a(g74
((lp1751
(S'even'
p1752
I01
tp1753
a(g1463
I00
tp1754
a(S'positive'
p1755
I01
tp1756
atp1757
Rp1758
(S'composite'
p1759
I01
tp1760
tp1761
a(g74
((lp1762
(g1752
I01
tp1763
a(g1759
I00
tp1764
a(g1755
I01
tp1765
atp1766
Rp1767
(g1463
I01
tp1768
tp1769
a(g74
((lp1770
(g1759
I00
tp1771
a(g1463
I00
tp1772
a(g1755
I01
tp1773
atp1774
Rp1775
(g1752
I00
tp1776
tp1777
a(g74
((lp1778
(g1752
I01
tp1779
a(g1759
I00
tp1780
a(g1463
I00
tp1781
atp1782
Rp1783
(g1755
I00
tp1784
tp1785
a(g74
((lp1786
(S'real'
p1787
I01
tp1788
a(g1465
I00
tp1789
atp1790
Rp1791
(g1443
I01
tp1792
tp1793
a(g74
((lp1794
(S'integer'
p1795
I00
tp1796
a(S'extended_real'
p1797
I01
tp1798
atp1799
Rp1800
(S'noninteger'
p1801
I01
tp1802
tp1803
a(g74
((lp1804
(S'zero'
p1805
I00
tp1806
a(S'extended_real'
p1807
I01
tp1808
atp1809
Rp1810
(S'extended_nonzero'
p1811
I01
tp1812
tp1813
asg413
g74
((lp1814
g1742
ag1449
ag1453
ag1447
ag1456
ag1459
ag1801
ag1460
ag1461
aS'complex'
p1815
ag1465
aS'finite'
p1816
ag1446
aS'real'
p1817
ag1728
ag1443
ag1444
ag1445
ag1468
ag1458
ag1505
ag1451
aS'imaginary'
p1818
ag1463
ag1455
ag1448
ag1748
ag1462
ag1466
ag1483
atp1819
Rp1820
sg421
g422
(g74
tp1821
Rp1822
(g1447
I01
tp1823
g74
((lp1824
(S'real'
p1825
I01
tp1826
a(g1450
I00
tp1827
a(g1452
I00
tp1828
a(g1455
I01
tp1829
a(g1448
I01
tp1830
a(g1801
I00
tp1831
a(S'finite'
p1832
I01
tp1833
a(g1496
I01
tp1834
a(g1443
I00
tp1835
a(g1492
I00
tp1836
a(g1456
I01
tp1837
a(g1465
I01
tp1838
a(g1464
I01
tp1839
a(g1483
I00
tp1840
a(g1449
I01
tp1841
atp1842
Rp1843
s(g1449
I00
tp1844
g74
((lp1845
(g1457
I00
tp1846
a(S'positive'
p1847
I00
tp1848
a(S'prime'
p1849
I00
tp1850
a(g1742
I00
tp1851
a(g1445
I00
tp1852
a(g1720
I00
tp1853
a(S'nonzero'
p1854
I00
tp1855
a(g1451
I00
tp1856
a(g1825
I00
tp1857
a(g1501
I00
tp1858
a(g1443
I00
tp1859
a(g1492
I00
tp1860
a(g1465
I00
tp1861
a(g1460
I00
tp1862
atp1863
Rp1864
s(g1441
I00
tp1865
g74
((lp1866
(g1613
I00
tp1867
a(g1615
I00
tp1868
a(g1854
I00
tp1869
a(g1673
I00
tp1870
a(g1445
I00
tp1871
a(g1683
I00
tp1872
a(g1451
I00
tp1873
a(g1849
I00
tp1874
a(g1501
I00
tp1875
a(g1443
I00
tp1876
a(g1492
I00
tp1877
a(S'rational'
p1878
I00
tp1879
a(g1617
I00
tp1880
atp1881
Rp1882
s(g1732
I01
tp1883
g74
((lp1884
(g1452
I00
tp1885
a(g1603
I01
tp1886
a(g1605
I00
tp1887
a(g1460
I00
tp1888
a(g1456
I01
tp1889
atp1890
Rp1891
s(g1460
I01
tp1892
g74
((lp1893
(g1621
I01
tp1894
a(g1649
I01
tp1895
a(g1847
I00
tp1896
a(g1849
I00
tp1897
a(g1450
I00
tp1898
a(g1651
I01
tp1899
a(g1455
I01
tp1900
a(g1466
I00
tp1901
a(g1445
I00
tp1902
a(g1683
I00
tp1903
a(g1811
I01
tp1904
a(g1452
I00
tp1905
a(g1461
I01
tp1906
a(g1697
I01
tp1907
a(g1457
I00
tp1908
a(g1468
I01
tp1909
a(g1456
I01
tp1910
a(g1716
I00
tp1911
a(g1464
I01
tp1912
a(g1449
I01
tp1913
atp1914
Rp1915
s(g1818
I00
tp1916
g74
((lp1917
tp1918
Rp1919
s(g1462
I00
tp1920
g74
((lp1921
(g1849
I00
tp1922
a(g1663
I00
tp1923
a(g1445
I00
tp1924
a(g1748
I00
tp1925
atp1926
Rp1927
s(g1448
I01
tp1928
g74
((lp1929
(g1456
I01
tp1930
a(g1450
I00
tp1931
a(g1464
I01
tp1932
a(g1483
I00
tp1933
a(g1832
I01
tp1934
atp1935
Rp1936
s(g1649
I00
tp1937
g74
((lp1938
(g1663
I00
tp1939
a(g1849
I00
tp1940
a(g1460
I00
tp1941
a(g1445
I00
tp1942
atp1943
Rp1944
s(g1492
I01
tp1945
g74
((lp1946
(g1825
I01
tp1947
a(g1457
I00
tp1948
a(g1450
I00
tp1949
a(g1452
I00
tp1950
a(g1455
I01
tp1951
a(g1447
I00
tp1952
a(g1448
I01
tp1953
a(g1728
I01
tp1954
a(g1811
I01
tp1955
a(g1801
I00
tp1956
a(g1832
I01
tp1957
a(g1488
I01
tp1958
a(g1443
I00
tp1959
a(g1456
I01
tp1960
a(g1465
I01
tp1961
a(g1464
I01
tp1962
a(g1483
I00
tp1963
a(g1449
I01
tp1964
atp1965
Rp1966
s(g1468
I01
tp1967
g74
((lp1968
(g1847
I00
tp1969
a(g1445
I00
tp1970
a(g1593
I00
tp1971
a(g1595
I01
tp1972
a(g1849
I00
tp1973
a(g1452
I00
tp1974
a(g1456
I01
tp1975
atp1976
Rp1977
s(g1465
I01
tp1978
g74
((lp1979
(S'real'
p1980
I01
tp1981
a(g1450
I00
tp1982
a(g1452
I00
tp1983
a(g1455
I01
tp1984
a(S'algebraic'
p1985
I01
tp1986
a(g1832
I01
tp1987
a(g1443
I00
tp1988
a(g1456
I01
tp1989
a(g1464
I01
tp1990
a(g1483
I00
tp1991
a(g1449
I01
tp1992
atp1993
Rp1994
s(S'complex'
p1995
I01
tp1996
g74
((lp1997
(g1456
I01
tp1998
a(g1450
I00
tp1999
a(g1832
I01
tp2000
atp2001
Rp2002
s(g1483
I01
tp2003
g74
((lp2004
(g1457
I00
tp2005
a(g1450
I00
tp2006
a(g1477
I00
tp2007
a(g1445
I00
tp2008
a(g1501
I00
tp2009
a(g1451
I00
tp2010
a(g1849
I00
tp2011
a(g1492
I00
tp2012
a(g1456
I01
tp2013
a(g1479
I01
tp2014
a(g1465
I00
tp2015
a(g1832
I01
tp2016
atp2017
Rp2018
s(g1748
I01
tp2019
g74
((lp2020
(S'even'
p2021
I01
tp2022
a(g1732
I01
tp2023
a(g1452
I00
tp2024
a(g1448
I01
tp2025
a(g1734
I01
tp2026
a(g1465
I01
tp2027
a(g1464
I01
tp2028
a(g1460
I00
tp2029
a(g1621
I01
tp2030
a(g1849
I00
tp2031
a(g1466
I00
tp2032
a(g1811
I00
tp2033
a(g1449
I01
tp2034
a(g1456
I01
tp2035
a(g1580
I00
tp2036
a(g1847
I00
tp2037
a(g1445
I00
tp2038
a(g1742
I01
tp2039
a(g1546
I01
tp2040
a(S'finite'
p2041
I01
tp2042
a(g1488
I01
tp2043
a(g1450
I00
tp2044
a(g1854
I00
tp2045
a(g1744
I01
tp2046
a(g1801
I00
tp2047
a(g1443
I00
tp2048
a(g1492
I00
tp2049
a(g1483
I00
tp2050
atp2051
Rp2052
s(g1817
I01
tp2053
g74
((lp2054
(S'complex'
p2055
I01
tp2056
a(g1452
I00
tp2057
a(g1529
I01
tp2058
a(g1531
I01
tp2059
a(g1456
I01
tp2060
a(g1450
I00
tp2061
a(g1449
I01
tp2062
atp2063
Rp2064
s(g1463
I00
tp2065
g74
((lp2066
tp2067
Rp2068
s(g1444
I00
tp2069
g74
((lp2070
(g1818
I00
tp2071
atp2072
Rp2073
s(g1459
I01
tp2074
g74
((lp2075
(g1621
I01
tp2076
a(g1457
I00
tp2077
a(g1450
I00
tp2078
a(g1673
I00
tp2079
a(g1689
I01
tp2080
a(g1452
I00
tp2081
a(g1455
I01
tp2082
a(g1811
I01
tp2083
a(g1658
I01
tp2084
a(g1462
I01
tp2085
a(g1687
I01
tp2086
a(g1460
I00
tp2087
a(g1732
I01
tp2088
a(g1456
I01
tp2089
a(g1468
I00
tp2090
a(g1464
I01
tp2091
a(g1449
I01
tp2092
a(g1580
I00
tp2093
atp2094
Rp2095
s(g1818
I01
tp2096
g74
((lp2097
(g1457
I00
tp2098
a(g1441
I00
tp2099
a(g1720
I00
tp2100
a(g1854
I00
tp2101
a(g1815
I01
tp2102
a(g1460
I00
tp2103
a(g1849
I00
tp2104
a(g1466
I00
tp2105
a(g1444
I01
tp2106
a(g1580
I00
tp2107
a(g1456
I01
tp2108
a(g1847
I00
tp2109
a(g1445
I00
tp2110
a(g1832
I01
tp2111
a(g1468
I00
tp2112
a(g1450
I00
tp2113
a(g1501
I00
tp2114
a(g1742
I00
tp2115
a(g1455
I00
tp2116
a(g1465
I00
tp2117
a(g1801
I00
tp2118
a(g1451
I00
tp2119
a(g1443
I00
tp2120
a(g1492
I00
tp2121
a(g1716
I00
tp2122
a(g1458
I00
tp2123
atp2124
Rp2125
s(g1466
I00
tp2126
g74
((lp2127
(g1849
I00
tp2128
a(g1459
I00
tp2129
a(g1445
I00
tp2130
atp2131
Rp2132
s(g1458
I00
tp2133
g74
((lp2134
(g1847
I00
tp2135
a(g1728
I00
tp2136
a(g1589
I00
tp2137
a(g1445
I00
tp2138
a(g1849
I00
tp2139
a(g1580
I00
tp2140
a(g1460
I00
tp2141
atp2142
Rp2143
s(g1449
I01
tp2144
g74
((lp2145
tp2146
Rp2147
s(g1728
I01
tp2148
g74
((lp2149
(g1441
I01
tp2150
a(g1457
I00
tp2151
a(g1450
I00
tp2152
a(g1452
I00
tp2153
a(g1455
I01
tp2154
a(g1458
I01
tp2155
a(g1467
I01
tp2156
a(g1456
I01
tp2157
a(g1464
I01
tp2158
a(g1449
I01
tp2159
atp2160
Rp2161
s(g1539
I00
tp2162
g74
((lp2163
tp2164
Rp2165
s(g1617
I00
tp2166
g74
((lp2167
tp2168
Rp2169
s(g1815
I00
tp2170
g74
((lp2171
(g1457
I00
tp2172
a(g1847
I00
tp2173
a(g1849
I00
tp2174
a(g1742
I00
tp2175
a(S'imaginary'
p2176
I00
tp2177
a(g1448
I00
tp2178
a(g1445
I00
tp2179
a(g1720
I00
tp2180
a(g1465
I00
tp2181
a(g1854
I00
tp2182
a(g1451
I00
tp2183
a(g1817
I00
tp2184
a(g1501
I00
tp2185
a(g1443
I00
tp2186
a(g1492
I00
tp2187
a(g1483
I00
tp2188
a(g1460
I00
tp2189
atp2190
Rp2191
s(g1456
I01
tp2192
g74
((lp2193
tp2194
Rp2195
s(g1461
I00
tp2196
g74
((lp2197
(g1701
I00
tp2198
atp2199
Rp2200
s(S'prime'
p2201
I01
tp2202
g74
((lp2203
(g1728
I01
tp2204
a(g1457
I00
tp2205
a(g1452
I00
tp2206
a(g1811
I01
tp2207
a(g1732
I01
tp2208
a(g1465
I01
tp2209
a(g1464
I01
tp2210
a(g1460
I00
tp2211
a(g1825
I01
tp2212
a(g1847
I01
tp2213
a(g1580
I00
tp2214
a(g1456
I01
tp2215
a(g1455
I01
tp2216
a(g1589
I01
tp2217
a(g1449
I01
tp2218
a(g1445
I00
tp2219
a(g1448
I01
tp2220
a(S'integer'
p2221
I01
tp2222
a(g1450
I00
tp2223
a(g1832
I01
tp2224
a(g1742
I00
tp2225
a(g1744
I01
tp2226
a(g1801
I00
tp2227
a(g1443
I00
tp2228
a(g1468
I00
tp2229
a(g1483
I00
tp2230
atp2231
Rp2232
s(g1985
I00
tp2233
g74
((lp2234
(g1457
I00
tp2235
a(g1849
I00
tp2236
a(g1445
I00
tp2237
a(g1451
I00
tp2238
a(g1501
I00
tp2239
a(g1492
I00
tp2240
a(S'rational'
p2241
I00
tp2242
atp2243
Rp2244
s(S'positive'
p2245
I00
tp2246
g74
((lp2247
(g1445
I00
tp2248
a(g1849
I00
tp2249
atp2250
Rp2251
s(g1455
I01
tp2252
g74
((lp2253
(g1452
I00
tp2254
a(S'commutative'
p2255
I01
tp2256
atp2257
Rp2258
s(g1589
I01
tp2259
g74
((lp2260
(g1457
I00
tp2261
a(g1742
I00
tp2262
a(g1452
I00
tp2263
a(g1546
I01
tp2264
a(g1584
I01
tp2265
a(g1580
I00
tp2266
a(g1446
I01
tp2267
a(g1456
I01
tp2268
a(g1599
I00
tp2269
a(g1460
I00
tp2270
atp2271
Rp2272
s(g1651
I01
tp2273
g74
((lp2274
(g1667
I01
tp2275
a(g1669
I00
tp2276
a(g1450
I00
tp2277
a(g1455
I01
tp2278
a(g1466
I00
tp2279
a(g1445
I00
tp2280
a(g1849
I00
tp2281
a(g1468
I01
tp2282
a(g1452
I00
tp2283
a(g1456
I01
tp2284
a(g1464
I01
tp2285
a(g1449
I01
tp2286
a(g1705
I01
tp2287
atp2288
Rp2289
s(g2041
I00
tp2290
g74
((lp2291
(g1457
I00
tp2292
a(g1459
I00
tp2293
a(g1849
I00
tp2294
a(g1710
I00
tp2295
a(g1452
I00
tp2296
a(g1477
I00
tp2297
a(g1445
I00
tp2298
a(g1720
I00
tp2299
a(g1483
I00
tp2300
a(g1535
I00
tp2301
a(g1451
I00
tp2302
a(g1728
I00
tp2303
a(g1501
I00
tp2304
a(g1443
I00
tp2305
a(g1492
I00
tp2306
a(g1995
I00
tp2307
a(g1465
I00
tp2308
a(g1701
I00
tp2309
atp2310
Rp2311
s(g1759
I00
tp2312
g74
((lp2313
tp2314
Rp2315
s(g1811
I01
tp2316
g74
((lp2317
(g1456
I01
tp2318
a(g1807
I01
tp2319
a(g1805
I00
tp2320
a(g1452
I00
tp2321
atp2322
Rp2323
s(g1461
I01
tp2324
g74
((lp2325
(g1457
I00
tp2326
a(g1847
I00
tp2327
a(g1546
I01
tp2328
a(g1456
I01
tp2329
a(g1452
I00
tp2330
a(g1445
I00
tp2331
a(g1720
I00
tp2332
a(g1574
I01
tp2333
a(g1849
I00
tp2334
a(g1576
I01
tp2335
a(g1466
I00
tp2336
a(g1609
I00
tp2337
atp2338
Rp2339
s(g2021
I00
tp2340
g74
((lp2341
(g1457
I00
tp2342
atp2343
Rp2344
s(g1488
I01
tp2345
g74
((lp2346
(g1825
I01
tp2347
a(g1450
I00
tp2348
a(g1452
I00
tp2349
a(g1455
I01
tp2350
a(g1448
I01
tp2351
a(g1801
I00
tp2352
a(g1832
I01
tp2353
a(g1443
I00
tp2354
a(g1456
I01
tp2355
a(S'rational'
p2356
I01
tp2357
a(g1464
I01
tp2358
a(g1483
I00
tp2359
a(g1449
I01
tp2360
atp2361
Rp2362
s(g1456
I00
tp2363
g74
((lp2364
(g1457
I00
tp2365
a(g1441
I00
tp2366
a(g1452
I00
tp2367
a(g1720
I00
tp2368
a(g1460
I00
tp2369
a(g1849
I00
tp2370
a(g1466
I00
tp2371
a(g1477
I00
tp2372
a(g1458
I00
tp2373
a(g1580
I00
tp2374
a(S'complex'
p2375
I00
tp2376
a(g1847
I00
tp2377
a(g1445
I00
tp2378
a(g1854
I00
tp2379
a(g1716
I00
tp2380
a(g1501
I00
tp2381
a(g1742
I00
tp2382
a(S'extended_real'
p2383
I00
tp2384
a(g1465
I00
tp2385
a(g1801
I00
tp2386
a(g1451
I00
tp2387
a(g1443
I00
tp2388
a(g1492
I00
tp2389
a(g1468
I00
tp2390
a(g1483
I00
tp2391
atp2392
Rp2393
s(g1446
I00
tp2394
g74
((lp2395
(g1738
I00
tp2396
a(g1847
I00
tp2397
a(g1849
I00
tp2398
a(g1589
I00
tp2399
a(g1445
I00
tp2400
a(g1720
I00
tp2401
atp2402
Rp2403
s(g1443
I01
tp2404
g74
((lp2405
(g1787
I01
tp2406
a(g1457
I00
tp2407
a(g1455
I01
tp2408
a(g1849
I00
tp2409
a(g1450
I00
tp2410
a(g1452
I00
tp2411
a(g1445
I00
tp2412
a(g1501
I00
tp2413
a(g1811
I01
tp2414
a(g1728
I01
tp2415
a(g1451
I00
tp2416
a(g1801
I01
tp2417
a(g1492
I00
tp2418
a(g1456
I01
tp2419
a(g1464
I01
tp2420
a(g1465
I00
tp2421
a(g1449
I01
tp2422
a(g1832
I01
tp2423
atp2424
Rp2425
s(g1505
I00
tp2426
g74
((lp2427
tp2428
Rp2429
s(g1442
I01
tp2430
g74
((lp2431
tp2432
Rp2433
s(g1816
I01
tp2434
g74
((lp2435
(g1450
I00
tp2436
atp2437
Rp2438
s(g1742
I00
tp2439
g74
((lp2440
(g1748
I00
tp2441
a(g1460
I00
tp2442
atp2443
Rp2444
s(g1483
I00
tp2445
g74
((lp2446
tp2447
Rp2448
s(g1445
I01
tp2449
g74
((lp2450
(g1728
I01
tp2451
a(g1457
I00
tp2452
a(g1452
I00
tp2453
a(g1448
I01
tp2454
a(g1732
I01
tp2455
a(g1465
I01
tp2456
a(g1464
I01
tp2457
a(g1460
I00
tp2458
a(g1825
I01
tp2459
a(g2201
I00
tp2460
a(g2245
I01
tp2461
a(g1580
I00
tp2462
a(g1456
I01
tp2463
a(g1589
I01
tp2464
a(g1449
I01
tp2465
a(g1455
I01
tp2466
a(g1811
I01
tp2467
a(g1451
I01
tp2468
a(g1450
I00
tp2469
a(g1832
I01
tp2470
a(g1742
I00
tp2471
a(g1744
I01
tp2472
a(g1801
I00
tp2473
a(g1443
I00
tp2474
a(g1468
I00
tp2475
a(g1483
I00
tp2476
atp2477
Rp2478
s(g1744
I01
tp2479
g74
((lp2480
(g1677
I01
tp2481
a(g1450
I00
tp2482
a(g1452
I00
tp2483
a(g1455
I01
tp2484
a(g1679
I00
tp2485
a(g1714
I01
tp2486
a(g1580
I00
tp2487
a(g1716
I01
tp2488
a(g1456
I01
tp2489
a(g1464
I01
tp2490
a(g1449
I01
tp2491
atp2492
Rp2493
s(g1801
I00
tp2494
g74
((lp2495
tp2496
Rp2497
s(g1595
I00
tp2498
g74
((lp2499
(g1539
I00
tp2500
a(g1847
I00
tp2501
a(g1849
I00
tp2502
a(g1742
I00
tp2503
a(g1535
I00
tp2504
a(g1466
I00
tp2505
a(g1811
I00
tp2506
a(g1445
I00
tp2507
a(g1720
I00
tp2508
a(g1801
I00
tp2509
a(g1451
I00
tp2510
a(g1854
I00
tp2511
a(g1501
I00
tp2512
a(g1541
I00
tp2513
a(g1443
I00
tp2514
a(g1492
I00
tp2515
a(g1609
I00
tp2516
a(g1465
I00
tp2517
a(g1460
I00
tp2518
a(g1599
I00
tp2519
atp2520
Rp2521
s(g1451
I00
tp2522
g74
((lp2523
(g1457
I00
tp2524
a(g1445
I00
tp2525
a(g1849
I00
tp2526
a(g1501
I00
tp2527
a(g1492
I00
tp2528
atp2529
Rp2530
s(g1801
I01
tp2531
g74
((lp2532
(g1457
I00
tp2533
a(g1797
I01
tp2534
a(g1452
I00
tp2535
a(g1445
I00
tp2536
a(g1501
I00
tp2537
a(g1811
I01
tp2538
a(g1795
I00
tp2539
a(g1849
I00
tp2540
a(g1492
I00
tp2541
a(g1456
I01
tp2542
atp2543
Rp2544
s(g1453
I00
tp2545
g74
((lp2546
tp2547
Rp2548
s(g1450
I01
tp2549
g74
((lp2550
(g1816
I00
tp2551
a(g1457
I00
tp2552
a(g1847
I00
tp2553
a(g1849
I00
tp2554
a(g1742
I00
tp2555
a(g1452
I00
tp2556
a(g1477
I00
tp2557
a(g1445
I00
tp2558
a(g1720
I00
tp2559
a(g1465
I00
tp2560
a(g1854
I00
tp2561
a(g1451
I00
tp2562
a(g1441
I00
tp2563
a(g1501
I00
tp2564
a(g1443
I00
tp2565
a(g1492
I00
tp2566
a(g1815
I00
tp2567
a(g1483
I00
tp2568
a(g1460
I00
tp2569
atp2570
Rp2571
s(g1468
I00
tp2572
g74
((lp2573
(g1738
I00
tp2574
a(g1710
I00
tp2575
a(g1580
I00
tp2576
a(g1460
I00
tp2577
atp2578
Rp2579
s(g1465
I00
tp2580
g74
((lp2581
(g1457
I00
tp2582
a(g1501
I00
tp2583
a(g1445
I00
tp2584
a(S'integer'
p2585
I00
tp2586
a(g1849
I00
tp2587
a(g1492
I00
tp2588
atp2589
Rp2590
ssg1193
g422
(g74
tp2591
Rp2592
g1742
g74
((lp2593
g1441
ag2201
ag1595
ag1456
ag1445
ag1459
ag1468
ag1460
ag1748
ag1815
ag1450
ag1589
ag1449
ag2041
ag1818
atp2594
Rp2595
sg1457
g74
((lp2596
g1441
ag2021
ag1483
ag1742
ag1445
ag1468
ag1985
ag1449
ag1450
ag1451
ag1818
ag1492
ag1443
ag1728
ag1595
ag1456
ag1811
ag1459
ag1801
ag1460
ag1461
ag1462
ag2201
ag1815
ag1465
ag1589
ag2041
ag1446
atp2597
Rp2598
sg1492
g74
((lp2599
g1441
ag1483
ag1985
ag1748
ag1450
ag1451
ag1818
ag1443
ag1447
ag1595
ag1456
ag1801
ag1449
ag1815
ag1465
ag2041
atp2600
Rp2601
sg1443
g74
((lp2602
g1447
ag1441
ag1595
ag1456
ag1445
ag2201
ag1449
ag1748
ag1815
ag1465
ag1450
ag1488
ag1818
ag2041
ag1492
atp2603
Rp2604
sg1854
g74
((lp2605
g1441
ag1443
ag1445
ag1458
ag1748
ag1450
ag1449
ag1492
ag1818
ag2201
ag1595
ag1456
ag1459
ag1460
ag1815
ag2041
atp2606
Rp2607
sg1442
g74
((lp2608
tp2609
Rp2610
sg1456
g74
((lp2611
g1817
ag1728
ag1443
ag1651
ag1445
ag1468
ag1811
ag1748
ag1488
ag1818
ag1744
ag1492
ag1447
ag1455
ag1448
ag1459
ag1801
ag1460
ag1461
ag1465
ag2201
ag1995
ag1483
ag1589
ag1732
atp2612
Rp2613
sg1847
g74
((lp2614
g1441
ag2201
ag1651
ag1445
ag1468
ag1458
ag1748
ag1450
ag1449
ag1818
ag1649
ag1595
ag1456
ag1460
ag1461
ag1462
ag1815
ag1466
ag2041
ag1446
atp2615
Rp2616
sg1801
g74
((lp2617
g1447
ag2201
ag1595
ag1456
ag1445
ag1748
ag1488
ag1818
ag1492
ag1443
atp2618
Rp2619
sg1460
g74
((lp2620
g1441
ag2201
ag1742
ag1445
ag1732
ag1458
ag1748
ag1450
ag1818
ag1649
ag1595
ag1456
ag1459
ag1449
ag1461
ag1744
ag1815
ag1589
ag2041
ag1468
atp2621
Rp2622
sg1605
g74
((lp2623
g2201
ag1595
ag1456
ag1445
ag1459
ag1732
ag1460
ag1744
ag1458
ag1748
ag1589
ag1818
ag1468
atp2624
Rp2625
sg1464
g74
((lp2626
g1817
ag2201
ag1443
ag1651
ag1445
ag1448
ag1748
ag1728
ag1450
ag1488
ag1818
ag1492
ag1456
ag1447
ag1483
ag1459
ag1460
ag1744
ag1465
ag2041
atp2627
Rp2628
sg1465
g74
((lp2629
g1441
ag2201
ag1443
ag1445
ag1985
ag1748
ag1450
ag1488
ag1818
ag1492
ag1447
ag1595
ag1456
ag1449
ag1815
ag1483
ag2041
atp2630
Rp2631
sg1832
g74
((lp2632
g1817
ag2201
ag1465
ag1651
ag1445
ag1448
ag1748
ag1450
ag1488
ag1818
ag1492
ag1443
ag1447
ag1459
ag1460
ag1744
ag1995
ag1483
ag1728
atp2633
Rp2634
sg1468
g74
((lp2635
g2201
ag1595
ag1456
ag1651
ag1445
ag1459
ag1460
ag1461
ag1748
ag1818
ag1589
atp2636
Rp2637
sg1825
g74
((lp2638
g1728
ag1443
ag1651
ag1445
ag1748
ag1450
ag1488
ag1449
ag1492
ag1818
ag1447
ag1595
ag1456
ag1459
ag1460
ag1744
ag2201
ag1815
ag1465
ag2041
atp2639
Rp2640
sg1501
g74
((lp2641
g1441
ag1483
ag1985
ag1748
ag1450
ag1451
ag1818
ag1492
ag1443
ag1595
ag1456
ag1801
ag1449
ag1815
ag1465
ag2041
atp2642
Rp2643
sg1483
g74
((lp2644
g1447
ag2201
ag1456
ag1445
ag1448
ag1748
ag1815
ag1465
ag1450
ag1488
ag2041
ag1492
atp2645
Rp2646
sg1444
g74
((lp2647
g1818
atp2648
Rp2649
sg1445
g74
((lp2650
g1441
ag2201
ag1449
ag1483
ag1651
ag1446
ag1985
ag1748
ag1450
ag1451
ag1818
ag1443
ag1649
ag1595
ag1456
ag1458
ag2245
ag1801
ag1460
ag1461
ag1462
ag1815
ag1465
ag1466
ag2041
ag1468
atp2651
Rp2652
sg1716
g74
((lp2653
g2201
ag1595
ag1456
ag1445
ag1459
ag1460
ag1461
ag1744
ag1748
ag1818
ag1589
atp2654
Rp2655
sg1448
g74
((lp2656
g1447
ag2201
ag1483
ag1445
ag1748
ag1815
ag1465
ag1450
ag1488
ag2041
ag1492
ag1456
atp2657
Rp2658
sg1450
g74
((lp2659
g1817
ag2201
ag1465
ag1651
ag1445
ag1448
ag1748
ag1728
ag1488
ag1818
ag1492
ag1443
ag1447
ag1459
ag1460
ag1744
ag1995
ag1483
ag1816
atp2660
Rp2661
sg1496
g74
((lp2662
g1441
ag2201
ag1483
ag1445
ag1985
ag1748
ag1450
ag1818
ag1492
ag1443
ag1447
ag1595
ag1456
ag1801
ag1449
ag1815
ag1465
ag2041
atp2663
Rp2664
sg1452
g74
((lp2665
g1817
ag1728
ag1443
ag1444
ag1651
ag1445
ag1468
ag1811
ag1748
ag1450
ag1488
ag1492
ag1447
ag1455
ag1456
ag1459
ag1801
ag1460
ag1461
ag1744
ag2201
ag1815
ag1465
ag1589
ag2041
ag1732
atp2666
Rp2667
sg1849
g74
((lp2668
g1441
ag1449
ag1483
ag1651
ag1445
ag1446
ag1985
ag1748
ag1450
ag1451
ag1818
ag1443
ag1649
ag1595
ag1456
ag1458
ag2245
ag1801
ag1460
ag1461
ag1462
ag1815
ag1465
ag1466
ag2041
ag1468
atp2669
Rp2670
sg1455
g74
((lp2671
g1817
ag1728
ag1443
ag1651
ag1445
ag1468
ag1811
ag1748
ag1488
ag1818
ag1492
ag1447
ag1456
ag1459
ag1801
ag1460
ag1461
ag1744
ag2201
ag1465
ag1589
ag1732
atp2672
Rp2673
sg1811
g74
((lp2674
g1728
ag2201
ag1595
ag1456
ag1445
ag1459
ag1801
ag1460
ag1461
ag1748
ag1818
ag1492
ag1589
ag1443
atp2675
Rp2676
sg1449
g74
((lp2677
g1447
ag1817
ag1443
ag1651
ag1445
ag1459
ag1460
ag1744
ag2201
ag1748
ag1465
ag1488
ag1728
ag1492
atp2678
Rp2679
sg1720
g74
((lp2680
g1441
ag2201
ag1595
ag1456
ag1445
ag1459
ag1446
ag1460
ag1461
ag1748
ag1815
ag1450
ag1449
ag2041
ag1818
atp2681
Rp2682
sg1466
g74
((lp2683
g2201
ag1595
ag1456
ag1651
ag1445
ag1459
ag1468
ag1460
ag1461
ag1458
ag1748
ag1818
ag1446
atp2684
Rp2685
ssg1289
g422
(g74
tp2686
Rp2687
(g1447
I01
tp2688
(lp2689
I8
aI9
aI10
aI13
aI14
aI16
aI17
aI18
aI21
aI22
aI23
aI24
aI25
aI26
aI27
aI30
aI31
aI33
aI36
as(g1449
I00
tp2690
(lp2691
I3
aI4
aI7
aI8
aI10
aI35
aI36
as(g1441
I00
tp2692
(lp2693
I3
aI4
aI7
aI8
aI10
aI35
aI36
as(g1732
I01
tp2694
(lp2695
I4
aI5
aI6
aI9
aI10
aI12
aI13
aI15
aI17
aI18
aI22
aI26
aI28
aI35
aI36
as(g1460
I01
tp2696
(lp2697
I0
aI34
aI35
as(g1818
I00
tp2698
g74
((lp2699
tp2700
Rp2701
s(g1462
I00
tp2702
(lp2703
I7
aI8
aI10
aI15
aI16
aI21
aI36
as(g1448
I01
tp2704
(lp2705
I3
aI5
aI6
aI23
aI24
aI25
aI26
aI27
as(g1649
I00
tp2706
(lp2707
I15
aI17
aI21
aI22
as(g1492
I01
tp2708
(lp2709
I8
aI10
aI11
aI12
aI13
aI14
aI16
aI18
aI19
aI20
aI21
aI22
aI23
aI24
aI25
aI26
as(g1468
I01
tp2710
(lp2711
I4
aI5
aI6
aI8
aI9
aI11
aI14
aI15
aI16
aI17
aI21
aI25
aI28
aI35
aI36
as(g1465
I01
tp2712
(lp2713
I8
aI9
aI10
aI13
aI14
aI16
aI17
aI18
aI21
aI22
aI23
aI24
aI25
aI26
aI27
aI35
aI36
as(g1995
I01
tp2714
(lp2715
I0
aI3
aI5
aI6
aI23
aI24
aI25
aI26
aI27
as(g1483
I01
tp2716
(lp2717
I3
aI5
aI6
aI7
aI8
aI10
aI15
aI16
aI18
aI23
aI24
aI25
aI26
aI27
aI34
aI35
aI36
as(g1748
I01
tp2718
(lp2719
s(g1817
I01
tp2720
(lp2721
I0
aI8
aI9
aI10
aI13
aI14
aI16
aI17
aI18
aI21
aI22
aI23
aI24
aI25
aI26
aI27
aI34
aI35
aI36
as(g1463
I00
tp2722
(lp2723
I30
aI32
aI33
as(g1444
I00
tp2724
(lp2725
s(g1459
I01
tp2726
(lp2727
I0
aI30
aI31
aI32
aI34
aI35
as(g1818
I01
tp2728
(lp2729
I0
as(g1466
I00
tp2730
(lp2731
I7
aI8
aI9
aI13
aI15
aI16
aI17
aI21
as(g1458
I00
tp2732
(lp2733
I7
aI9
aI13
aI14
aI15
aI17
aI21
aI22
as(g1449
I01
tp2734
g74
((lp2735
tp2736
Rp2737
s(g1728
I01
tp2738
(lp2739
I0
aI8
aI10
aI11
aI12
aI13
aI14
aI16
aI18
aI19
aI20
aI21
aI22
aI23
aI24
aI25
aI26
aI34
aI35
as(g1539
I00
tp2740
(lp2741
I7
aI8
aI10
aI15
aI16
aI18
aI36
as(g1617
I00
tp2742
(lp2743
I15
aI17
aI18
aI22
as(g1815
I00
tp2744
(lp2745
I3
aI4
aI7
aI8
aI10
aI35
aI36
as(g1456
I01
tp2746
g74
((lp2747
tp2748
Rp2749
s(g1461
I00
tp2750
(lp2751
I7
aI9
aI10
aI14
aI15
aI17
aI18
aI22
as(g2201
I01
tp2752
(lp2753
I1
aI2
as(g1985
I00
tp2754
(lp2755
I0
aI7
aI8
aI10
aI15
aI16
aI18
aI34
aI35
aI36
as(g2245
I00
tp2756
(lp2757
I15
aI16
aI17
aI21
as(g1455
I01
tp2758
(lp2759
I4
aI5
aI6
aI8
aI9
aI10
aI13
aI14
aI35
aI36
as(g1589
I01
tp2760
(lp2761
I4
aI5
aI6
aI15
aI18
aI22
aI23
aI26
aI27
aI35
as(g1651
I01
tp2762
(lp2763
I0
aI8
aI9
aI11
aI14
aI16
aI17
aI19
aI22
aI24
aI26
aI27
aI28
aI29
aI34
aI35
aI36
as(g2041
I00
tp2764
(lp2765
I3
aI4
aI7
aI8
aI10
aI35
aI36
as(g1759
I00
tp2766
(lp2767
I31
aI32
aI33
as(g1811
I01
tp2768
(lp2769
I4
aI5
aI6
aI8
aI10
aI11
aI12
aI13
aI14
aI15
aI16
aI18
aI27
aI35
as(g1461
I01
tp2770
(lp2771
I4
aI5
aI6
aI15
aI16
aI21
aI24
aI25
aI27
aI35
as(g2021
I00
tp2772
(lp2773
I1
aI7
aI8
aI10
aI15
aI16
aI18
aI36
as(g1488
I01
tp2774
(lp2775
I1
aI2
aI8
aI9
aI10
aI13
aI14
aI16
aI17
aI18
aI21
aI22
aI23
aI24
aI25
aI26
aI27
aI36
as(g1456
I00
tp2776
(lp2777
s(g1446
I00
tp2778
(lp2779
I7
aI8
aI13
aI15
aI16
aI21
aI36
as(g1443
I01
tp2780
(lp2781
I0
aI8
aI10
aI11
aI12
aI13
aI14
aI16
aI18
aI19
aI20
aI21
aI22
aI23
aI24
aI25
aI26
as(g1505
I00
tp2782
(lp2783
I3
aI5
as(g1442
I01
tp2784
g74
((lp2785
tp2786
Rp2787
s(g1816
I01
tp2788
(lp2789
I3
aI5
aI6
aI23
aI24
aI25
aI26
aI27
as(g1742
I00
tp2790
(lp2791
I7
aI8
aI10
aI15
aI18
aI22
aI36
as(g1483
I00
tp2792
g74
((lp2793
tp2794
Rp2795
s(g1445
I01
tp2796
(lp2797
I1
aI2
as(g1744
I01
tp2798
(lp2799
I0
aI9
aI10
aI12
aI13
aI17
aI18
aI20
aI21
aI23
aI25
aI27
aI28
aI29
aI34
aI35
aI36
as(g1801
I00
tp2800
g74
((lp2801
tp2802
Rp2803
s(g1595
I00
tp2804
(lp2805
s(g1451
I00
tp2806
(lp2807
I7
aI8
aI10
aI15
aI16
aI18
aI35
aI36
as(g1801
I01
tp2808
(lp2809
I4
aI5
aI6
aI8
aI10
aI11
aI12
aI13
aI14
aI15
aI16
aI18
aI27
as(g1453
I00
tp2810
(lp2811
I2
as(g1450
I01
tp2812
(lp2813
I7
aI8
aI10
aI35
aI36
as(g1468
I00
tp2814
(lp2815
I7
aI10
aI14
aI15
aI18
aI22
aI36
as(g1465
I00
tp2816
(lp2817
I7
aI8
aI10
aI15
aI16
aI18
aI34
aI35
aI36
assbsg1422
(dp2818
g1454
I01
sS'finite'
p2819
I01
ssbsbg7
tp2820
Rp2821
(dp2822
btp2823
Rp2824
(dp2825
bg0
(g1434
g5
(g25
(S'\\gamma'
p2826
tp2827
Rp2828
(dp2829
g30
g31
(g32
g33
(dp2830
g1441
I01
sg1442
Nsg1443
Nsg1444
Nsg1445
Nsg1446
Nsg1447
Nsg1448
Nsg1449
I01
sg1450
I00
sg1451
Nsg1452
I00
sg1453
Nsg1454
I01
sg1455
I01
sg1456
I01
sg1457
I00
sg1458
I01
sg1459
Nsg1460
Nsg1461
Nsg1462
Nsg1463
Nsg1464
I01
sg1465
Nsg1466
Nsg1467
I01
sg1468
Nstp2831
Rp2832
(dp2833
g66
g1473
sg1422
(dp2834
g1454
I01
sg2819
I01
ssbsbg7
tp2835
Rp2836
(dp2837
btp2838
Rp2839
(dp2840
bg0
(g5
(g17
g1
(I2
tp2841
Rp2842
(dp2843
btp2844
Rp2845
(dp2846
bg5
(g25
(S'\\alpha'
p2847
tp2848
Rp2849
(dp2850
g30
g31
(g32
g33
(dp2851
g1441
I01
sg1442
Nsg1443
Nsg1444
Nsg1445
Nsg1446
Nsg1447
Nsg1448
Nsg1449
I01
sg1450
I00
sg1451
Nsg1452
I00
sg1453
Nsg1454
I01
sg1455
I01
sg1456
I01
sg1457
I00
sg1458
I01
sg1459
Nsg1460
Nsg1461
Nsg1462
Nsg1463
Nsg1464
I01
sg1465
Nsg1466
Nsg1467
I01
sg1468
Nstp2852
Rp2853
(dp2854
g66
g1473
sg1422
(dp2855
g1454
I01
sg2819
I01
ssbsbg1434
tp2856
Rp2857
(dp2858
btp2859
Rp2860
(dp2861
bg0
(g2845
g5
(g2828
g1434
tp2862
Rp2863
(dp2864
btp2865
Rp2866
(dp2867
bg0
(g1
(I12
tp2868
Rp2869
(dp2870
bg5
(g2849
g2842
tp2871
Rp2872
(dp2873
bg2863
tp2874
Rp2875
(dp2876
bg0
(g2869
g2857
g5
(g2828
g2842
tp2877
Rp2878
(dp2879
btp2880
Rp2881
(dp2882
bg0
(g2842
g2845
g2872
g2878
tp2883
Rp2884
(dp2885
btp2886
Rp2887
(dp2888
bcsympy.core.numbers
Rational
p2889
(I-1
I2
tp2890
Rp2891
(dp2892
btp2893
Rp2894
(dp2895
bg1432
(g2872
g2878
tp2896
Rp2897
(dp2898
btp2899
Rp2900
(dp2901
b.