csympy.core.mul
Mul
p0
(csympy.core.numbers
Rational
p1
(I4
I3
tp2
Rp3
(dp4
bcsympy.core.power
Pow
p5
(csympy.core.numbers
Integer
p6
(I6
tp7
Rp8
(dp9
bcsympy.core.numbers
Half
p10
(I1
I2
tp11
Rp12
(dp13
btp14
Rp15
(dp16
bg5
(csympy.core.numbers
Pi
p17
(tRp18
(dp19
bg6
(I2
tp20
Rp21
(dp22
btp23
Rp24
(dp25
bg5
(csympy.core.symbol
Symbol
p26
(S'\\gamma'
p27
tp28
Rp29
(dp30
S'_assumptions'
p31
ccopy_reg
_reconstructor
p32
(csympy.core.assumptions
StdFactKB
p33
c__builtin__
dict
p34
(dp35
S'real'
p36
I01
sS'polar'
p37
NsS'irrational'
p38
NsS'antihermitian'
p39
NsS'composite'
p40
NsS'extended_nonnegative'
p41
NsS'even'
p42
NsS'negative'
p43
NsS'algebraic'
p44
NsS'hermitian'
p45
I01
sS'infinite'
p46
I00
sS'integer'
p47
NsS'imaginary'
p48
I00
sS'odd'
p49
NsS'nonzero'
p50
I01
sS'extended_real'
p51
I01
sS'commutative'
p52
I01
sS'extended_nonzero'
p53
I01
sS'positive'
p54
NsS'zero'
p55
I00
sS'extended_negative'
p56
NsS'nonnegative'
p57
NsS'prime'
p58
NsS'complex'
p59
I01
sS'rational'
p60
NsS'extended_positive'
p61
NsS'finite'
p62
I01
sS'extended_nonpositive'
p63
Nstp64
Rp65
(dp66
S'rules'
p67
g32
(csympy.core.facts
FactRules
p68
c__builtin__
object
p69
Ntp70
Rp71
(dp72
S'beta_rules'
p73
(lp74
(c__builtin__
set
p75
((lp76
(S'algebraic'
p77
I00
tp78
a(S'complex'
p79
I01
tp80
atp81
Rp82
(S'transcendental'
p83
I01
tp84
tp85
a(g75
((lp86
(g42
I00
tp87
a(S'integer'
p88
I01
tp89
atp90
Rp91
(S'odd'
p92
I01
tp93
tp94
a(g75
((lp95
(S'integer'
p96
I01
tp97
a(g49
I00
tp98
atp99
Rp100
(S'even'
p101
I01
tp102
tp103
a(g75
((lp104
(S'infinite'
p105
I00
tp106
a(S'real'
p107
I00
tp108
atp109
Rp110
(S'extended_real'
p111
I00
tp112
tp113
a(g75
((lp114
(g111
I01
tp115
a(g107
I00
tp116
atp117
Rp118
(g105
I01
tp119
tp120
a(g75
((lp121
(g111
I01
tp122
a(g105
I00
tp123
atp124
Rp125
(g107
I01
tp126
tp127
a(g75
((lp128
(S'extended_real'
p129
I01
tp130
a(S'finite'
p131
I01
tp132
atp133
Rp134
(S'real'
p135
I01
tp136
tp137
a(g75
((lp138
(S'zero'
p139
I00
tp140
a(S'extended_negative'
p141
I00
tp142
a(g61
I00
tp143
atp144
Rp145
(S'extended_real'
p146
I00
tp147
tp148
a(g75
((lp149
(g139
I00
tp150
a(g146
I01
tp151
a(g61
I00
tp152
atp153
Rp154
(g141
I01
tp155
tp156
a(g75
((lp157
(g61
I00
tp158
a(g146
I01
tp159
a(g141
I00
tp160
atp161
Rp162
(g139
I01
tp163
tp164
a(g75
((lp165
(g139
I00
tp166
a(g146
I01
tp167
a(g141
I00
tp168
atp169
Rp170
(g61
I01
tp171
tp172
a(g75
((lp173
(S'extended_nonzero'
p174
I01
tp175
a(S'extended_nonpositive'
p176
I01
tp177
atp178
Rp179
(S'extended_negative'
p180
I01
tp181
tp182
a(g75
((lp183
(S'extended_nonzero'
p184
I01
tp185
a(g41
I01
tp186
atp187
Rp188
(S'extended_positive'
p189
I01
tp190
tp191
a(g75
((lp192
(S'extended_positive'
p193
I00
tp194
a(S'extended_real'
p195
I01
tp196
atp197
Rp198
(S'extended_nonpositive'
p199
I01
tp200
tp201
a(g75
((lp202
(S'extended_real'
p203
I01
tp204
a(S'extended_negative'
p205
I00
tp206
atp207
Rp208
(S'extended_nonnegative'
p209
I01
tp210
tp211
a(g75
((lp212
(S'zero'
p213
I00
tp214
a(S'positive'
p215
I00
tp216
a(S'negative'
p217
I00
tp218
atp219
Rp220
(S'real'
p221
I00
tp222
tp223
a(g75
((lp224
(g221
I01
tp225
a(g213
I00
tp226
a(g215
I00
tp227
atp228
Rp229
(g217
I01
tp230
tp231
a(g75
((lp232
(g221
I01
tp233
a(g215
I00
tp234
a(g217
I00
tp235
atp236
Rp237
(g213
I01
tp238
tp239
a(g75
((lp240
(g221
I01
tp241
a(g213
I00
tp242
a(g217
I00
tp243
atp244
Rp245
(g215
I01
tp246
tp247
a(g75
((lp248
(S'nonzero'
p249
I01
tp250
a(S'nonpositive'
p251
I01
tp252
atp253
Rp254
(g43
I01
tp255
tp256
a(g75
((lp257
(S'nonzero'
p258
I01
tp259
a(g57
I01
tp260
atp261
Rp262
(S'positive'
p263
I01
tp264
tp265
a(g75
((lp266
(S'real'
p267
I01
tp268
a(S'positive'
p269
I00
tp270
atp271
Rp272
(S'nonpositive'
p273
I01
tp274
tp275
a(g75
((lp276
(S'real'
p277
I01
tp278
a(S'negative'
p279
I00
tp280
atp281
Rp282
(S'nonnegative'
p283
I01
tp284
tp285
a(g75
((lp286
(S'finite'
p287
I01
tp288
a(S'extended_positive'
p289
I01
tp290
atp291
Rp292
(g54
I01
tp293
tp294
a(g75
((lp295
(g56
I01
tp296
a(S'finite'
p297
I01
tp298
atp299
Rp300
(S'negative'
p301
I01
tp302
tp303
a(g75
((lp304
(S'finite'
p305
I01
tp306
a(g63
I01
tp307
atp308
Rp309
(S'nonpositive'
p310
I01
tp311
tp312
a(g75
((lp313
(S'finite'
p314
I01
tp315
a(S'extended_nonnegative'
p316
I01
tp317
atp318
Rp319
(S'nonnegative'
p320
I01
tp321
tp322
a(g75
((lp323
(g62
I01
tp324
a(g53
I01
tp325
atp326
Rp327
(S'nonzero'
p328
I01
tp329
tp330
a(g75
((lp331
(S'extended_nonnegative'
p332
I01
tp333
a(S'extended_nonpositive'
p334
I01
tp335
atp336
Rp337
(S'zero'
p338
I01
tp339
tp340
a(g75
((lp341
(S'nonpositive'
p342
I01
tp343
a(S'nonnegative'
p344
I01
tp345
atp346
Rp347
(S'zero'
p348
I01
tp349
tp350
a(g75
((lp351
(S'even'
p352
I01
tp353
a(g58
I00
tp354
a(S'positive'
p355
I01
tp356
atp357
Rp358
(S'composite'
p359
I01
tp360
tp361
a(g75
((lp362
(g352
I01
tp363
a(g359
I00
tp364
a(g355
I01
tp365
atp366
Rp367
(g58
I01
tp368
tp369
a(g75
((lp370
(g359
I00
tp371
a(g58
I00
tp372
a(g355
I01
tp373
atp374
Rp375
(g352
I00
tp376
tp377
a(g75
((lp378
(g352
I01
tp379
a(g359
I00
tp380
a(g58
I00
tp381
atp382
Rp383
(g355
I00
tp384
tp385
a(g75
((lp386
(S'real'
p387
I01
tp388
a(g60
I00
tp389
atp390
Rp391
(g38
I01
tp392
tp393
a(g75
((lp394
(S'integer'
p395
I00
tp396
a(S'extended_real'
p397
I01
tp398
atp399
Rp400
(S'noninteger'
p401
I01
tp402
tp403
a(g75
((lp404
(S'zero'
p405
I00
tp406
a(S'extended_real'
p407
I01
tp408
atp409
Rp410
(S'extended_nonzero'
p411
I01
tp412
tp413
asS'defined_facts'
p414
g75
((lp415
g342
ag45
ag49
ag42
ag52
ag54
ag401
ag43
ag56
aS'complex'
p416
ag60
aS'finite'
p417
ag41
aS'real'
p418
ag328
ag38
ag39
ag40
ag63
ag53
ag105
ag47
aS'imaginary'
p419
ag58
ag51
ag44
ag348
ag57
ag61
ag83
atp420
Rp421
sS'full_implications'
p422
ccollections
defaultdict
p423
(g75
tp424
Rp425
(g42
I01
tp426
g75
((lp427
(S'real'
p428
I01
tp429
a(S'finite'
p430
I01
tp431
a(g48
I00
tp432
a(g51
I01
tp433
a(g44
I01
tp434
a(g401
I00
tp435
a(g46
I00
tp436
a(g96
I01
tp437
a(g38
I00
tp438
a(g92
I00
tp439
a(g52
I01
tp440
a(g60
I01
tp441
a(g59
I01
tp442
a(g83
I00
tp443
a(g45
I01
tp444
atp445
Rp446
s(g45
I00
tp447
g75
((lp448
(g55
I00
tp449
a(S'positive'
p450
I00
tp451
a(S'prime'
p452
I00
tp453
a(g342
I00
tp454
a(g40
I00
tp455
a(g320
I00
tp456
a(S'nonzero'
p457
I00
tp458
a(g47
I00
tp459
a(g428
I00
tp460
a(g101
I00
tp461
a(g38
I00
tp462
a(g92
I00
tp463
a(g60
I00
tp464
a(g43
I00
tp465
atp466
Rp467
s(g36
I00
tp468
g75
((lp469
(g213
I00
tp470
a(g215
I00
tp471
a(g457
I00
tp472
a(g273
I00
tp473
a(g40
I00
tp474
a(g283
I00
tp475
a(g47
I00
tp476
a(g452
I00
tp477
a(g101
I00
tp478
a(g38
I00
tp479
a(g92
I00
tp480
a(S'rational'
p481
I00
tp482
a(g217
I00
tp483
atp484
Rp485
s(g332
I01
tp486
g75
((lp487
(g48
I00
tp488
a(g203
I01
tp489
a(g205
I00
tp490
a(g43
I00
tp491
a(g52
I01
tp492
atp493
Rp494
s(g43
I01
tp495
g75
((lp496
(g221
I01
tp497
a(g249
I01
tp498
a(g450
I00
tp499
a(g452
I00
tp500
a(g251
I01
tp501
a(g40
I00
tp502
a(g61
I00
tp503
a(g51
I01
tp504
a(g283
I00
tp505
a(g411
I01
tp506
a(g59
I01
tp507
a(g56
I01
tp508
a(g297
I01
tp509
a(g55
I00
tp510
a(g63
I01
tp511
a(g48
I00
tp512
a(g52
I01
tp513
a(g46
I00
tp514
a(g45
I01
tp515
a(g316
I00
tp516
atp517
Rp518
s(g419
I00
tp519
g75
((lp520
tp521
Rp522
s(g57
I00
tp523
g75
((lp524
(g348
I00
tp525
a(g263
I00
tp526
a(g452
I00
tp527
a(g40
I00
tp528
atp529
Rp530
s(g44
I01
tp531
g75
((lp532
(g52
I01
tp533
a(g46
I00
tp534
a(g59
I01
tp535
a(g83
I00
tp536
a(g430
I01
tp537
atp538
Rp539
s(g249
I00
tp540
g75
((lp541
(g263
I00
tp542
a(g452
I00
tp543
a(g43
I00
tp544
a(g40
I00
tp545
atp546
Rp547
s(g92
I01
tp548
g75
((lp549
(g428
I01
tp550
a(g55
I00
tp551
a(g42
I00
tp552
a(g48
I00
tp553
a(g51
I01
tp554
a(g44
I01
tp555
a(g328
I01
tp556
a(g411
I01
tp557
a(g401
I00
tp558
a(g46
I00
tp559
a(g430
I01
tp560
a(g88
I01
tp561
a(g38
I00
tp562
a(g52
I01
tp563
a(g60
I01
tp564
a(g59
I01
tp565
a(g83
I00
tp566
a(g45
I01
tp567
atp568
Rp569
s(g63
I01
tp570
g75
((lp571
(g450
I00
tp572
a(g40
I00
tp573
a(g193
I00
tp574
a(g195
I01
tp575
a(g452
I00
tp576
a(g48
I00
tp577
a(g52
I01
tp578
atp579
Rp580
s(g83
I01
tp581
g75
((lp582
(g55
I00
tp583
a(g452
I00
tp584
a(g46
I00
tp585
a(g77
I00
tp586
a(g40
I00
tp587
a(g47
I00
tp588
a(g101
I00
tp589
a(g92
I00
tp590
a(g52
I01
tp591
a(g79
I01
tp592
a(g60
I00
tp593
a(g430
I01
tp594
atp595
Rp596
s(S'complex'
p597
I01
tp598
g75
((lp599
(g52
I01
tp600
a(g46
I00
tp601
a(g430
I01
tp602
atp603
Rp604
s(g60
I01
tp605
g75
((lp606
(S'real'
p607
I01
tp608
a(g430
I01
tp609
a(g48
I00
tp610
a(g51
I01
tp611
a(S'algebraic'
p612
I01
tp613
a(g46
I00
tp614
a(g38
I00
tp615
a(g52
I01
tp616
a(g59
I01
tp617
a(g83
I00
tp618
a(g45
I01
tp619
atp620
Rp621
s(g348
I01
tp622
g75
((lp623
(S'even'
p624
I01
tp625
a(g332
I01
tp626
a(g48
I00
tp627
a(g44
I01
tp628
a(g334
I01
tp629
a(g60
I01
tp630
a(g59
I01
tp631
a(g43
I00
tp632
a(g221
I01
tp633
a(g452
I00
tp634
a(g61
I00
tp635
a(g411
I00
tp636
a(g45
I01
tp637
a(g52
I01
tp638
a(g180
I00
tp639
a(g450
I00
tp640
a(g40
I00
tp641
a(g342
I01
tp642
a(g146
I01
tp643
a(S'finite'
p644
I01
tp645
a(g88
I01
tp646
a(g46
I00
tp647
a(g457
I00
tp648
a(g344
I01
tp649
a(g401
I00
tp650
a(g38
I00
tp651
a(g92
I00
tp652
a(g83
I00
tp653
atp654
Rp655
s(g418
I01
tp656
g75
((lp657
(S'complex'
p658
I01
tp659
a(g48
I00
tp660
a(g129
I01
tp661
a(g131
I01
tp662
a(g52
I01
tp663
a(g46
I00
tp664
a(g45
I01
tp665
atp666
Rp667
s(g58
I00
tp668
g75
((lp669
tp670
Rp671
s(g39
I00
tp672
g75
((lp673
(g419
I00
tp674
atp675
Rp676
s(g54
I01
tp677
g75
((lp678
(g221
I01
tp679
a(g55
I00
tp680
a(g287
I01
tp681
a(g273
I00
tp682
a(g289
I01
tp683
a(g48
I00
tp684
a(g51
I01
tp685
a(g411
I01
tp686
a(g258
I01
tp687
a(g57
I01
tp688
a(g46
I00
tp689
a(g43
I00
tp690
a(g332
I01
tp691
a(g52
I01
tp692
a(g63
I00
tp693
a(g59
I01
tp694
a(g45
I01
tp695
a(g180
I00
tp696
atp697
Rp698
s(g419
I01
tp699
g75
((lp700
(g55
I00
tp701
a(g36
I00
tp702
a(g320
I00
tp703
a(g416
I01
tp704
a(g43
I00
tp705
a(g452
I00
tp706
a(g61
I00
tp707
a(g39
I01
tp708
a(g180
I00
tp709
a(g52
I01
tp710
a(g430
I01
tp711
a(g450
I00
tp712
a(g40
I00
tp713
a(g101
I00
tp714
a(g63
I00
tp715
a(g46
I00
tp716
a(g457
I00
tp717
a(g342
I00
tp718
a(g51
I00
tp719
a(g60
I00
tp720
a(g401
I00
tp721
a(g47
I00
tp722
a(g38
I00
tp723
a(g92
I00
tp724
a(g316
I00
tp725
a(g53
I00
tp726
atp727
Rp728
s(g61
I00
tp729
g75
((lp730
(g54
I00
tp731
a(g452
I00
tp732
a(g40
I00
tp733
atp734
Rp735
s(g53
I00
tp736
g75
((lp737
(g450
I00
tp738
a(g328
I00
tp739
a(g189
I00
tp740
a(g40
I00
tp741
a(g452
I00
tp742
a(g180
I00
tp743
a(g43
I00
tp744
atp745
Rp746
s(g328
I01
tp747
g75
((lp748
(g36
I01
tp749
a(g55
I00
tp750
a(g62
I01
tp751
a(g48
I00
tp752
a(g51
I01
tp753
a(g53
I01
tp754
a(g46
I00
tp755
a(g52
I01
tp756
a(g59
I01
tp757
a(g45
I01
tp758
atp759
Rp760
s(g139
I00
tp761
g75
((lp762
tp763
Rp764
s(g217
I00
tp765
g75
((lp766
tp767
Rp768
s(g416
I00
tp769
g75
((lp770
(g55
I00
tp771
a(g450
I00
tp772
a(g452
I00
tp773
a(g342
I00
tp774
a(S'imaginary'
p775
I00
tp776
a(g44
I00
tp777
a(g40
I00
tp778
a(g320
I00
tp779
a(g60
I00
tp780
a(g457
I00
tp781
a(g47
I00
tp782
a(g418
I00
tp783
a(g101
I00
tp784
a(g38
I00
tp785
a(g92
I00
tp786
a(g83
I00
tp787
a(g43
I00
tp788
atp789
Rp790
s(g52
I01
tp791
g75
((lp792
tp793
Rp794
s(g56
I00
tp795
g75
((lp796
(g301
I00
tp797
atp798
Rp799
s(S'prime'
p800
I01
tp801
g75
((lp802
(g328
I01
tp803
a(g55
I00
tp804
a(g48
I00
tp805
a(g411
I01
tp806
a(g43
I00
tp807
a(g332
I01
tp808
a(g60
I01
tp809
a(g59
I01
tp810
a(g45
I01
tp811
a(g428
I01
tp812
a(g450
I01
tp813
a(g180
I00
tp814
a(g52
I01
tp815
a(g51
I01
tp816
a(g189
I01
tp817
a(g40
I00
tp818
a(g44
I01
tp819
a(S'integer'
p820
I01
tp821
a(g46
I00
tp822
a(g430
I01
tp823
a(g342
I00
tp824
a(g344
I01
tp825
a(g401
I00
tp826
a(g38
I00
tp827
a(g63
I00
tp828
a(g83
I00
tp829
atp830
Rp831
s(g612
I00
tp832
g75
((lp833
(g55
I00
tp834
a(g452
I00
tp835
a(g40
I00
tp836
a(g47
I00
tp837
a(g101
I00
tp838
a(g92
I00
tp839
a(S'rational'
p840
I00
tp841
atp842
Rp843
s(S'positive'
p844
I00
tp845
g75
((lp846
(g40
I00
tp847
a(g452
I00
tp848
atp849
Rp850
s(g51
I01
tp851
g75
((lp852
(g48
I00
tp853
a(S'commutative'
p854
I01
tp855
atp856
Rp857
s(g189
I01
tp858
g75
((lp859
(g55
I00
tp860
a(g342
I00
tp861
a(g48
I00
tp862
a(g146
I01
tp863
a(g184
I01
tp864
a(g180
I00
tp865
a(g41
I01
tp866
a(g52
I01
tp867
a(g199
I00
tp868
a(g43
I00
tp869
atp870
Rp871
s(g251
I01
tp872
g75
((lp873
(g267
I01
tp874
a(g269
I00
tp875
a(g452
I00
tp876
a(g51
I01
tp877
a(g61
I00
tp878
a(g40
I00
tp879
a(g46
I00
tp880
a(g305
I01
tp881
a(g63
I01
tp882
a(g48
I00
tp883
a(g52
I01
tp884
a(g59
I01
tp885
a(g45
I01
tp886
atp887
Rp888
s(g45
I01
tp889
g75
((lp890
tp891
Rp892
s(g359
I00
tp893
g75
((lp894
tp895
Rp896
s(g411
I01
tp897
g75
((lp898
(g48
I00
tp899
a(g407
I01
tp900
a(g405
I00
tp901
a(g52
I01
tp902
atp903
Rp904
s(g56
I01
tp905
g75
((lp906
(g55
I00
tp907
a(g450
I00
tp908
a(g40
I00
tp909
a(g48
I00
tp910
a(g146
I01
tp911
a(g320
I00
tp912
a(g174
I01
tp913
a(g452
I00
tp914
a(g176
I01
tp915
a(g61
I00
tp916
a(g52
I01
tp917
a(g209
I00
tp918
atp919
Rp920
s(g624
I00
tp921
g75
((lp922
(g55
I00
tp923
atp924
Rp925
s(g88
I01
tp926
g75
((lp927
(g428
I01
tp928
a(g430
I01
tp929
a(g48
I00
tp930
a(g51
I01
tp931
a(g44
I01
tp932
a(g401
I00
tp933
a(g46
I00
tp934
a(g38
I00
tp935
a(g52
I01
tp936
a(S'rational'
p937
I01
tp938
a(g59
I01
tp939
a(g83
I00
tp940
a(g45
I01
tp941
atp942
Rp943
s(g52
I00
tp944
g75
((lp945
(g55
I00
tp946
a(g36
I00
tp947
a(g48
I00
tp948
a(g320
I00
tp949
a(g43
I00
tp950
a(g452
I00
tp951
a(g61
I00
tp952
a(g77
I00
tp953
a(g53
I00
tp954
a(g180
I00
tp955
a(S'complex'
p956
I00
tp957
a(g450
I00
tp958
a(g40
I00
tp959
a(g101
I00
tp960
a(g316
I00
tp961
a(g457
I00
tp962
a(g342
I00
tp963
a(S'extended_real'
p964
I00
tp965
a(g60
I00
tp966
a(g401
I00
tp967
a(g47
I00
tp968
a(g38
I00
tp969
a(g92
I00
tp970
a(g63
I00
tp971
a(g83
I00
tp972
atp973
Rp974
s(g41
I00
tp975
g75
((lp976
(g338
I00
tp977
a(g450
I00
tp978
a(g452
I00
tp979
a(g189
I00
tp980
a(g40
I00
tp981
a(g320
I00
tp982
atp983
Rp984
s(g38
I01
tp985
g75
((lp986
(g387
I01
tp987
a(g55
I00
tp988
a(g40
I00
tp989
a(g46
I00
tp990
a(g48
I00
tp991
a(g51
I01
tp992
a(g101
I00
tp993
a(g411
I01
tp994
a(g328
I01
tp995
a(g47
I00
tp996
a(g452
I00
tp997
a(g92
I00
tp998
a(g52
I01
tp999
a(g401
I01
tp1000
a(g59
I01
tp1001
a(g60
I00
tp1002
a(g45
I01
tp1003
a(g430
I01
tp1004
atp1005
Rp1006
s(g105
I00
tp1007
g75
((lp1008
tp1009
Rp1010
s(g37
I01
tp1011
g75
((lp1012
tp1013
Rp1014
s(g417
I01
tp1015
g75
((lp1016
(g46
I00
tp1017
atp1018
Rp1019
s(g342
I00
tp1020
g75
((lp1021
(g348
I00
tp1022
a(g43
I00
tp1023
atp1024
Rp1025
s(g83
I00
tp1026
g75
((lp1027
tp1028
Rp1029
s(g40
I01
tp1030
g75
((lp1031
(g328
I01
tp1032
a(g55
I00
tp1033
a(g48
I00
tp1034
a(g44
I01
tp1035
a(g43
I00
tp1036
a(g332
I01
tp1037
a(g60
I01
tp1038
a(g59
I01
tp1039
a(g45
I01
tp1040
a(g428
I01
tp1041
a(g800
I00
tp1042
a(g844
I01
tp1043
a(g180
I00
tp1044
a(g52
I01
tp1045
a(g189
I01
tp1046
a(g51
I01
tp1047
a(g411
I01
tp1048
a(g47
I01
tp1049
a(g46
I00
tp1050
a(g430
I01
tp1051
a(g342
I00
tp1052
a(g344
I01
tp1053
a(g401
I00
tp1054
a(g38
I00
tp1055
a(g63
I00
tp1056
a(g83
I00
tp1057
atp1058
Rp1059
s(g644
I00
tp1060
g75
((lp1061
(g55
I00
tp1062
a(g54
I00
tp1063
a(g452
I00
tp1064
a(g310
I00
tp1065
a(g48
I00
tp1066
a(g77
I00
tp1067
a(g40
I00
tp1068
a(g320
I00
tp1069
a(g83
I00
tp1070
a(g135
I00
tp1071
a(g47
I00
tp1072
a(g328
I00
tp1073
a(g101
I00
tp1074
a(g38
I00
tp1075
a(g92
I00
tp1076
a(g597
I00
tp1077
a(g60
I00
tp1078
a(g301
I00
tp1079
atp1080
Rp1081
s(g344
I01
tp1082
g75
((lp1083
(g277
I01
tp1084
a(g314
I01
tp1085
a(g48
I00
tp1086
a(g51
I01
tp1087
a(g279
I00
tp1088
a(g46
I00
tp1089
a(g180
I00
tp1090
a(g316
I01
tp1091
a(g52
I01
tp1092
a(g59
I01
tp1093
a(g45
I01
tp1094
atp1095
Rp1096
s(g401
I00
tp1097
g75
((lp1098
tp1099
Rp1100
s(g195
I00
tp1101
g75
((lp1102
(g139
I00
tp1103
a(g450
I00
tp1104
a(g135
I00
tp1105
a(g342
I00
tp1106
a(g61
I00
tp1107
a(g411
I00
tp1108
a(g40
I00
tp1109
a(g320
I00
tp1110
a(g452
I00
tp1111
a(g401
I00
tp1112
a(g47
I00
tp1113
a(g457
I00
tp1114
a(g101
I00
tp1115
a(g141
I00
tp1116
a(g38
I00
tp1117
a(g92
I00
tp1118
a(g209
I00
tp1119
a(g60
I00
tp1120
a(g43
I00
tp1121
a(g199
I00
tp1122
atp1123
Rp1124
s(g47
I00
tp1125
g75
((lp1126
(g55
I00
tp1127
a(g40
I00
tp1128
a(g101
I00
tp1129
a(g452
I00
tp1130
a(g92
I00
tp1131
atp1132
Rp1133
s(g401
I01
tp1134
g75
((lp1135
(g55
I00
tp1136
a(g397
I01
tp1137
a(g48
I00
tp1138
a(g40
I00
tp1139
a(g411
I01
tp1140
a(g395
I00
tp1141
a(g101
I00
tp1142
a(g92
I00
tp1143
a(g52
I01
tp1144
a(g452
I00
tp1145
atp1146
Rp1147
s(g49
I00
tp1148
g75
((lp1149
tp1150
Rp1151
s(g46
I01
tp1152
g75
((lp1153
(g417
I00
tp1154
a(g55
I00
tp1155
a(g450
I00
tp1156
a(g452
I00
tp1157
a(g342
I00
tp1158
a(g48
I00
tp1159
a(g77
I00
tp1160
a(g40
I00
tp1161
a(g320
I00
tp1162
a(g60
I00
tp1163
a(g457
I00
tp1164
a(g47
I00
tp1165
a(g36
I00
tp1166
a(g101
I00
tp1167
a(g38
I00
tp1168
a(g92
I00
tp1169
a(g416
I00
tp1170
a(g83
I00
tp1171
a(g43
I00
tp1172
atp1173
Rp1174
s(g63
I00
tp1175
g75
((lp1176
(g338
I00
tp1177
a(g310
I00
tp1178
a(g180
I00
tp1179
a(g43
I00
tp1180
atp1181
Rp1182
s(g60
I00
tp1183
g75
((lp1184
(g55
I00
tp1185
a(g101
I00
tp1186
a(g40
I00
tp1187
a(S'integer'
p1188
I00
tp1189
a(g452
I00
tp1190
a(g92
I00
tp1191
atp1192
Rp1193
ssS'prereq'
p1194
g423
(g75
tp1195
Rp1196
g342
g75
((lp1197
g36
ag800
ag195
ag52
ag348
ag40
ag54
ag63
ag43
ag45
ag416
ag46
ag189
ag644
ag419
atp1198
Rp1199
sg55
g75
((lp1200
g342
ag45
ag92
ag38
ag624
ag52
ag54
ag401
ag43
ag56
ag416
ag60
ag644
ag63
ag36
ag328
ag83
ag40
ag41
ag411
ag46
ag47
ag419
ag800
ag195
ag612
ag57
ag189
atp1201
Rp1202
sg92
g75
((lp1203
g36
ag42
ag195
ag38
ag401
ag348
ag612
ag45
ag416
ag60
ag46
ag47
ag419
ag83
ag644
ag52
atp1204
Rp1205
sg457
g75
((lp1206
g36
ag800
ag195
ag38
ag348
ag40
ag54
ag43
ag53
ag45
ag416
ag46
ag419
ag644
ag92
ag52
atp1207
Rp1208
sg52
g75
((lp1209
g251
ag348
ag92
ag328
ag54
ag401
ag43
ag56
ag597
ag60
ag63
ag418
ag42
ag38
ag40
ag332
ag44
ag88
ag419
ag800
ag51
ag411
ag344
ag189
ag83
atp1210
Rp1211
sg450
g75
((lp1212
g36
ag800
ag195
ag52
ag348
ag251
ag40
ag249
ag63
ag43
ag56
ag57
ag53
ag45
ag416
ag46
ag61
ag419
ag644
ag41
atp1213
Rp1214
sg401
g75
((lp1215
g42
ag800
ag195
ag52
ag40
ag348
ag88
ag419
ag92
ag38
atp1216
Rp1217
sg43
g75
((lp1218
g36
ag800
ag195
ag52
ag249
ag342
ag40
ag54
ag332
ag348
ag56
ag344
ag53
ag45
ag416
ag46
ag189
ag419
ag644
ag63
atp1219
Rp1220
sg205
g75
((lp1221
g800
ag195
ag52
ag40
ag54
ag332
ag43
ag344
ag419
ag53
ag348
ag189
ag63
atp1222
Rp1223
sg59
g75
((lp1224
g418
ag800
ag38
ag251
ag40
ag54
ag42
ag43
ag344
ag52
ag44
ag348
ag328
ag60
ag46
ag88
ag419
ag644
ag92
ag83
atp1225
Rp1226
sg60
g75
((lp1227
g36
ag800
ag195
ag38
ag40
ag42
ag348
ag612
ag45
ag416
ag83
ag46
ag88
ag419
ag644
ag92
ag52
atp1228
Rp1229
sg430
g75
((lp1230
g418
ag800
ag38
ag251
ag40
ag54
ag42
ag43
ag344
ag44
ag348
ag597
ag60
ag46
ag88
ag419
ag328
ag92
ag83
atp1231
Rp1232
sg63
g75
((lp1233
g800
ag195
ag52
ag251
ag40
ag54
ag43
ag56
ag348
ag419
ag189
atp1234
Rp1235
sg428
g75
((lp1236
g328
ag42
ag195
ag38
ag348
ag251
ag40
ag54
ag43
ag344
ag800
ag45
ag416
ag60
ag46
ag88
ag419
ag644
ag92
ag52
atp1237
Rp1238
sg37
g75
((lp1239
tp1240
Rp1241
sg38
g75
((lp1242
g42
ag36
ag195
ag52
ag40
ag800
ag45
ag348
ag416
ag60
ag46
ag88
ag419
ag644
ag92
atp1243
Rp1244
sg39
g75
((lp1245
g419
atp1246
Rp1247
sg40
g75
((lp1248
g251
ag348
ag38
ag249
ag52
ag844
ag401
ag43
ag56
ag416
ag60
ag644
ag41
ag36
ag83
ag63
ag53
ag46
ag47
ag419
ag800
ag195
ag612
ag45
ag57
ag61
atp1249
Rp1250
sg316
g75
((lp1251
g800
ag195
ag52
ag40
ag54
ag43
ag56
ag344
ag348
ag419
ag189
atp1252
Rp1253
sg101
g75
((lp1254
g36
ag195
ag38
ag401
ag348
ag612
ag45
ag416
ag60
ag46
ag47
ag419
ag83
ag92
ag644
ag52
atp1255
Rp1256
sg44
g75
((lp1257
g42
ag800
ag83
ag40
ag348
ag416
ag60
ag46
ag88
ag644
ag92
ag52
atp1258
Rp1259
sg46
g75
((lp1260
g418
ag800
ag38
ag328
ag251
ag40
ag54
ag42
ag43
ag344
ag44
ag348
ag597
ag60
ag88
ag419
ag417
ag92
ag83
atp1261
Rp1262
sg96
g75
((lp1263
g36
ag800
ag195
ag38
ag348
ag40
ag42
ag401
ag612
ag45
ag416
ag60
ag46
ag419
ag83
ag92
ag644
ag52
atp1264
Rp1265
sg48
g75
((lp1266
g251
ag348
ag92
ag328
ag52
ag54
ag401
ag43
ag56
ag416
ag60
ag644
ag63
ag418
ag42
ag38
ag39
ag40
ag332
ag411
ag46
ag88
ag800
ag51
ag344
ag189
atp1267
Rp1268
sg452
g75
((lp1269
g251
ag348
ag38
ag249
ag52
ag844
ag401
ag43
ag56
ag416
ag60
ag644
ag41
ag36
ag83
ag40
ag63
ag53
ag46
ag47
ag419
ag195
ag612
ag45
ag57
ag61
atp1270
Rp1271
sg51
g75
((lp1272
g251
ag348
ag92
ag328
ag52
ag54
ag401
ag43
ag56
ag60
ag63
ag418
ag42
ag38
ag40
ag332
ag411
ag88
ag419
ag800
ag344
ag189
atp1273
Rp1274
sg411
g75
((lp1275
g328
ag800
ag195
ag52
ag40
ag54
ag401
ag43
ag56
ag348
ag419
ag92
ag189
ag38
atp1276
Rp1277
sg45
g75
((lp1278
g42
ag418
ag38
ag251
ag40
ag54
ag43
ag344
ag800
ag348
ag60
ag88
ag328
ag92
atp1279
Rp1280
sg320
g75
((lp1281
g36
ag800
ag195
ag52
ag40
ag54
ag41
ag43
ag56
ag348
ag416
ag46
ag45
ag644
ag419
atp1282
Rp1283
sg61
g75
((lp1284
g800
ag195
ag52
ag251
ag40
ag54
ag63
ag43
ag56
ag53
ag348
ag419
ag41
atp1285
Rp1286
sg83
g75
((lp1287
g42
ag800
ag52
ag40
ag44
ag348
ag416
ag60
ag46
ag88
ag644
ag92
atp1288
Rp1289
ssS'beta_triggers'
p1290
g423
(g75
tp1291
Rp1292
(g42
I01
tp1293
(lp1294
I8
aI9
aI10
aI13
aI14
aI16
aI17
aI18
aI21
aI22
aI23
aI24
aI25
aI26
aI27
aI30
aI31
aI33
aI36
as(g45
I00
tp1295
(lp1296
I3
aI4
aI7
aI8
aI10
aI35
aI36
as(g36
I00
tp1297
(lp1298
I3
aI4
aI7
aI8
aI10
aI35
aI36
as(g332
I01
tp1299
(lp1300
I4
aI5
aI6
aI9
aI10
aI12
aI13
aI15
aI17
aI18
aI22
aI26
aI28
aI35
aI36
as(g43
I01
tp1301
(lp1302
I0
aI34
aI35
as(g419
I00
tp1303
g75
((lp1304
tp1305
Rp1306
s(g57
I00
tp1307
(lp1308
I7
aI8
aI10
aI15
aI16
aI21
aI36
as(g44
I01
tp1309
(lp1310
I3
aI5
aI6
aI23
aI24
aI25
aI26
aI27
as(g249
I00
tp1311
(lp1312
I15
aI17
aI21
aI22
as(g92
I01
tp1313
(lp1314
I8
aI10
aI11
aI12
aI13
aI14
aI16
aI18
aI19
aI20
aI21
aI22
aI23
aI24
aI25
aI26
as(g63
I01
tp1315
(lp1316
I4
aI5
aI6
aI8
aI9
aI11
aI14
aI15
aI16
aI17
aI21
aI25
aI28
aI35
aI36
as(g83
I01
tp1317
(lp1318
I3
aI5
aI6
aI7
aI8
aI10
aI15
aI16
aI18
aI23
aI24
aI25
aI26
aI27
aI34
aI35
aI36
as(g597
I01
tp1319
(lp1320
I0
aI3
aI5
aI6
aI23
aI24
aI25
aI26
aI27
as(g60
I01
tp1321
(lp1322
I8
aI9
aI10
aI13
aI14
aI16
aI17
aI18
aI21
aI22
aI23
aI24
aI25
aI26
aI27
aI35
aI36
as(g348
I01
tp1323
(lp1324
s(g418
I01
tp1325
(lp1326
I0
aI8
aI9
aI10
aI13
aI14
aI16
aI17
aI18
aI21
aI22
aI23
aI24
aI25
aI26
aI27
aI34
aI35
aI36
as(g58
I00
tp1327
(lp1328
I30
aI32
aI33
as(g39
I00
tp1329
(lp1330
s(g54
I01
tp1331
(lp1332
I0
aI30
aI31
aI32
aI34
aI35
as(g419
I01
tp1333
(lp1334
I0
as(g61
I00
tp1335
(lp1336
I7
aI8
aI9
aI13
aI15
aI16
aI17
aI21
as(g53
I00
tp1337
(lp1338
I7
aI9
aI13
aI14
aI15
aI17
aI21
aI22
as(g328
I01
tp1339
(lp1340
I0
aI8
aI10
aI11
aI12
aI13
aI14
aI16
aI18
aI19
aI20
aI21
aI22
aI23
aI24
aI25
aI26
aI34
aI35
as(g139
I00
tp1341
(lp1342
I7
aI8
aI10
aI15
aI16
aI18
aI36
as(g217
I00
tp1343
(lp1344
I15
aI17
aI18
aI22
as(g416
I00
tp1345
(lp1346
I3
aI4
aI7
aI8
aI10
aI35
aI36
as(g52
I01
tp1347
g75
((lp1348
tp1349
Rp1350
s(g56
I00
tp1351
(lp1352
I7
aI9
aI10
aI14
aI15
aI17
aI18
aI22
as(g800
I01
tp1353
(lp1354
I1
aI2
as(g612
I00
tp1355
(lp1356
I0
aI7
aI8
aI10
aI15
aI16
aI18
aI34
aI35
aI36
as(g844
I00
tp1357
(lp1358
I15
aI16
aI17
aI21
as(g51
I01
tp1359
(lp1360
I4
aI5
aI6
aI8
aI9
aI10
aI13
aI14
aI35
aI36
as(g189
I01
tp1361
(lp1362
I4
aI5
aI6
aI15
aI18
aI22
aI23
aI26
aI27
aI35
as(g251
I01
tp1363
(lp1364
I0
aI8
aI9
aI11
aI14
aI16
aI17
aI19
aI22
aI24
aI26
aI27
aI28
aI29
aI34
aI35
aI36
as(g45
I01
tp1365
g75
((lp1366
tp1367
Rp1368
s(g359
I00
tp1369
(lp1370
I31
aI32
aI33
as(g411
I01
tp1371
(lp1372
I4
aI5
aI6
aI8
aI10
aI11
aI12
aI13
aI14
aI15
aI16
aI18
aI27
aI35
as(g56
I01
tp1373
(lp1374
I4
aI5
aI6
aI15
aI16
aI21
aI24
aI25
aI27
aI35
as(g624
I00
tp1375
(lp1376
I1
aI7
aI8
aI10
aI15
aI16
aI18
aI36
as(g88
I01
tp1377
(lp1378
I1
aI2
aI8
aI9
aI10
aI13
aI14
aI16
aI17
aI18
aI21
aI22
aI23
aI24
aI25
aI26
aI27
aI36
as(g52
I00
tp1379
(lp1380
s(g41
I00
tp1381
(lp1382
I7
aI8
aI13
aI15
aI16
aI21
aI36
as(g38
I01
tp1383
(lp1384
I0
aI8
aI10
aI11
aI12
aI13
aI14
aI16
aI18
aI19
aI20
aI21
aI22
aI23
aI24
aI25
aI26
as(g105
I00
tp1385
(lp1386
I3
aI5
as(g37
I01
tp1387
g75
((lp1388
tp1389
Rp1390
s(g417
I01
tp1391
(lp1392
I3
aI5
aI6
aI23
aI24
aI25
aI26
aI27
as(g342
I00
tp1393
(lp1394
I7
aI8
aI10
aI15
aI18
aI22
aI36
as(g83
I00
tp1395
g75
((lp1396
tp1397
Rp1398
s(g40
I01
tp1399
(lp1400
I1
aI2
as(g644
I00
tp1401
(lp1402
I3
aI4
aI7
aI8
aI10
aI35
aI36
as(g344
I01
tp1403
(lp1404
I0
aI9
aI10
aI12
aI13
aI17
aI18
aI20
aI21
aI23
aI25
aI27
aI28
aI29
aI34
aI35
aI36
as(g401
I00
tp1405
g75
((lp1406
tp1407
Rp1408
s(g195
I00
tp1409
(lp1410
s(g47
I00
tp1411
(lp1412
I7
aI8
aI10
aI15
aI16
aI18
aI35
aI36
as(g401
I01
tp1413
(lp1414
I4
aI5
aI6
aI8
aI10
aI11
aI12
aI13
aI14
aI15
aI16
aI18
aI27
as(g49
I00
tp1415
(lp1416
I2
as(g46
I01
tp1417
(lp1418
I7
aI8
aI10
aI35
aI36
as(g63
I00
tp1419
(lp1420
I7
aI10
aI14
aI15
aI18
aI22
aI36
as(g60
I00
tp1421
(lp1422
I7
aI8
aI10
aI15
aI16
aI18
aI34
aI35
aI36
assbsS'_generator'
p1423
(dp1424
g50
I01
sS'finite'
p1425
I01
ssbsbcsympy.core.numbers
NegativeOne
p1426
(I-1
tp1427
Rp1428
(dp1429
btp1430
Rp1431
(dp1432
bg5
(csympy.core.add
Add
p1433
(g5
(g26
(S'\\alpha'
p1434
tp1435
Rp1436
(dp1437
g31
g32
(g33
g34
(dp1438
S'real'
p1439
I01
sS'polar'
p1440
NsS'irrational'
p1441
NsS'antihermitian'
p1442
NsS'composite'
p1443
NsS'extended_nonnegative'
p1444
NsS'even'
p1445
NsS'algebraic'
p1446
NsS'hermitian'
p1447
I01
sS'infinite'
p1448
I00
sS'integer'
p1449
NsS'imaginary'
p1450
I00
sS'odd'
p1451
NsS'nonzero'
p1452
I01
sS'extended_real'
p1453
I01
sS'commutative'
p1454
I01
sS'zero'
p1455
I00
sS'extended_nonzero'
p1456
I01
sS'positive'
p1457
NsS'negative'
p1458
NsS'extended_negative'
p1459
NsS'nonnegative'
p1460
NsS'prime'
p1461
NsS'complex'
p1462
I01
sS'rational'
p1463
NsS'extended_positive'
p1464
NsS'finite'
p1465
I01
sS'extended_nonpositive'
p1466
Nstp1467
Rp1468
(dp1469
g67
g32
(g68
g69
Ntp1470
Rp1471
(dp1472
g73
(lp1473
(g75
((lp1474
(S'algebraic'
p1475
I00
tp1476
a(S'complex'
p1477
I01
tp1478
atp1479
Rp1480
(S'transcendental'
p1481
I01
tp1482
tp1483
a(g75
((lp1484
(g1445
I00
tp1485
a(S'integer'
p1486
I01
tp1487
atp1488
Rp1489
(S'odd'
p1490
I01
tp1491
tp1492
a(g75
((lp1493
(S'integer'
p1494
I01
tp1495
a(g1451
I00
tp1496
atp1497
Rp1498
(S'even'
p1499
I01
tp1500
tp1501
a(g75
((lp1502
(S'infinite'
p1503
I00
tp1504
a(S'real'
p1505
I00
tp1506
atp1507
Rp1508
(S'extended_real'
p1509
I00
tp1510
tp1511
a(g75
((lp1512
(g1509
I01
tp1513
a(g1505
I00
tp1514
atp1515
Rp1516
(g1503
I01
tp1517
tp1518
a(g75
((lp1519
(g1509
I01
tp1520
a(g1503
I00
tp1521
atp1522
Rp1523
(g1505
I01
tp1524
tp1525
a(g75
((lp1526
(S'extended_real'
p1527
I01
tp1528
a(S'finite'
p1529
I01
tp1530
atp1531
Rp1532
(S'real'
p1533
I01
tp1534
tp1535
a(g75
((lp1536
(S'zero'
p1537
I00
tp1538
a(S'extended_negative'
p1539
I00
tp1540
a(g1464
I00
tp1541
atp1542
Rp1543
(S'extended_real'
p1544
I00
tp1545
tp1546
a(g75
((lp1547
(g1537
I00
tp1548
a(g1544
I01
tp1549
a(g1464
I00
tp1550
atp1551
Rp1552
(g1539
I01
tp1553
tp1554
a(g75
((lp1555
(g1464
I00
tp1556
a(g1544
I01
tp1557
a(g1539
I00
tp1558
atp1559
Rp1560
(g1537
I01
tp1561
tp1562
a(g75
((lp1563
(g1537
I00
tp1564
a(g1544
I01
tp1565
a(g1539
I00
tp1566
atp1567
Rp1568
(g1464
I01
tp1569
tp1570
a(g75
((lp1571
(S'extended_nonzero'
p1572
I01
tp1573
a(S'extended_nonpositive'
p1574
I01
tp1575
atp1576
Rp1577
(S'extended_negative'
p1578
I01
tp1579
tp1580
a(g75
((lp1581
(S'extended_nonzero'
p1582
I01
tp1583
a(g1444
I01
tp1584
atp1585
Rp1586
(S'extended_positive'
p1587
I01
tp1588
tp1589
a(g75
((lp1590
(S'extended_positive'
p1591
I00
tp1592
a(S'extended_real'
p1593
I01
tp1594
atp1595
Rp1596
(S'extended_nonpositive'
p1597
I01
tp1598
tp1599
a(g75
((lp1600
(S'extended_real'
p1601
I01
tp1602
a(S'extended_negative'
p1603
I00
tp1604
atp1605
Rp1606
(S'extended_nonnegative'
p1607
I01
tp1608
tp1609
a(g75
((lp1610
(S'zero'
p1611
I00
tp1612
a(S'positive'
p1613
I00
tp1614
a(S'negative'
p1615
I00
tp1616
atp1617
Rp1618
(S'real'
p1619
I00
tp1620
tp1621
a(g75
((lp1622
(g1619
I01
tp1623
a(g1611
I00
tp1624
a(g1613
I00
tp1625
atp1626
Rp1627
(g1615
I01
tp1628
tp1629
a(g75
((lp1630
(g1619
I01
tp1631
a(g1613
I00
tp1632
a(g1615
I00
tp1633
atp1634
Rp1635
(g1611
I01
tp1636
tp1637
a(g75
((lp1638
(g1619
I01
tp1639
a(g1611
I00
tp1640
a(g1615
I00
tp1641
atp1642
Rp1643
(g1613
I01
tp1644
tp1645
a(g75
((lp1646
(S'nonzero'
p1647
I01
tp1648
a(S'nonpositive'
p1649
I01
tp1650
atp1651
Rp1652
(g1458
I01
tp1653
tp1654
a(g75
((lp1655
(S'nonzero'
p1656
I01
tp1657
a(g1460
I01
tp1658
atp1659
Rp1660
(S'positive'
p1661
I01
tp1662
tp1663
a(g75
((lp1664
(S'real'
p1665
I01
tp1666
a(S'positive'
p1667
I00
tp1668
atp1669
Rp1670
(S'nonpositive'
p1671
I01
tp1672
tp1673
a(g75
((lp1674
(S'real'
p1675
I01
tp1676
a(S'negative'
p1677
I00
tp1678
atp1679
Rp1680
(S'nonnegative'
p1681
I01
tp1682
tp1683
a(g75
((lp1684
(S'finite'
p1685
I01
tp1686
a(S'extended_positive'
p1687
I01
tp1688
atp1689
Rp1690
(g1457
I01
tp1691
tp1692
a(g75
((lp1693
(g1459
I01
tp1694
a(S'finite'
p1695
I01
tp1696
atp1697
Rp1698
(S'negative'
p1699
I01
tp1700
tp1701
a(g75
((lp1702
(S'finite'
p1703
I01
tp1704
a(g1466
I01
tp1705
atp1706
Rp1707
(S'nonpositive'
p1708
I01
tp1709
tp1710
a(g75
((lp1711
(S'finite'
p1712
I01
tp1713
a(S'extended_nonnegative'
p1714
I01
tp1715
atp1716
Rp1717
(S'nonnegative'
p1718
I01
tp1719
tp1720
a(g75
((lp1721
(g1465
I01
tp1722
a(g1456
I01
tp1723
atp1724
Rp1725
(S'nonzero'
p1726
I01
tp1727
tp1728
a(g75
((lp1729
(S'extended_nonnegative'
p1730
I01
tp1731
a(S'extended_nonpositive'
p1732
I01
tp1733
atp1734
Rp1735
(S'zero'
p1736
I01
tp1737
tp1738
a(g75
((lp1739
(S'nonpositive'
p1740
I01
tp1741
a(S'nonnegative'
p1742
I01
tp1743
atp1744
Rp1745
(S'zero'
p1746
I01
tp1747
tp1748
a(g75
((lp1749
(S'even'
p1750
I01
tp1751
a(g1461
I00
tp1752
a(S'positive'
p1753
I01
tp1754
atp1755
Rp1756
(S'composite'
p1757
I01
tp1758
tp1759
a(g75
((lp1760
(g1750
I01
tp1761
a(g1757
I00
tp1762
a(g1753
I01
tp1763
atp1764
Rp1765
(g1461
I01
tp1766
tp1767
a(g75
((lp1768
(g1757
I00
tp1769
a(g1461
I00
tp1770
a(g1753
I01
tp1771
atp1772
Rp1773
(g1750
I00
tp1774
tp1775
a(g75
((lp1776
(g1750
I01
tp1777
a(g1757
I00
tp1778
a(g1461
I00
tp1779
atp1780
Rp1781
(g1753
I00
tp1782
tp1783
a(g75
((lp1784
(S'real'
p1785
I01
tp1786
a(g1463
I00
tp1787
atp1788
Rp1789
(g1441
I01
tp1790
tp1791
a(g75
((lp1792
(S'integer'
p1793
I00
tp1794
a(S'extended_real'
p1795
I01
tp1796
atp1797
Rp1798
(S'noninteger'
p1799
I01
tp1800
tp1801
a(g75
((lp1802
(S'zero'
p1803
I00
tp1804
a(S'extended_real'
p1805
I01
tp1806
atp1807
Rp1808
(S'extended_nonzero'
p1809
I01
tp1810
tp1811
asg414
g75
((lp1812
g1740
ag1447
ag1451
ag1445
ag1454
ag1457
ag1799
ag1458
ag1459
aS'complex'
p1813
ag1463
aS'finite'
p1814
ag1444
aS'real'
p1815
ag1726
ag1441
ag1442
ag1443
ag1466
ag1456
ag1503
ag1449
aS'imaginary'
p1816
ag1461
ag1453
ag1446
ag1746
ag1460
ag1464
ag1481
atp1817
Rp1818
sg422
g423
(g75
tp1819
Rp1820
(g1445
I01
tp1821
g75
((lp1822
(S'real'
p1823
I01
tp1824
a(g1448
I00
tp1825
a(g1450
I00
tp1826
a(g1453
I01
tp1827
a(g1446
I01
tp1828
a(g1799
I00
tp1829
a(S'finite'
p1830
I01
tp1831
a(g1494
I01
tp1832
a(g1441
I00
tp1833
a(g1490
I00
tp1834
a(g1454
I01
tp1835
a(g1463
I01
tp1836
a(g1462
I01
tp1837
a(g1481
I00
tp1838
a(g1447
I01
tp1839
atp1840
Rp1841
s(g1447
I00
tp1842
g75
((lp1843
(g1455
I00
tp1844
a(S'positive'
p1845
I00
tp1846
a(S'prime'
p1847
I00
tp1848
a(g1740
I00
tp1849
a(g1443
I00
tp1850
a(g1718
I00
tp1851
a(S'nonzero'
p1852
I00
tp1853
a(g1449
I00
tp1854
a(g1823
I00
tp1855
a(g1499
I00
tp1856
a(g1441
I00
tp1857
a(g1490
I00
tp1858
a(g1463
I00
tp1859
a(g1458
I00
tp1860
atp1861
Rp1862
s(g1439
I00
tp1863
g75
((lp1864
(g1611
I00
tp1865
a(g1613
I00
tp1866
a(g1852
I00
tp1867
a(g1671
I00
tp1868
a(g1443
I00
tp1869
a(g1681
I00
tp1870
a(g1449
I00
tp1871
a(g1847
I00
tp1872
a(g1499
I00
tp1873
a(g1441
I00
tp1874
a(g1490
I00
tp1875
a(S'rational'
p1876
I00
tp1877
a(g1615
I00
tp1878
atp1879
Rp1880
s(g1730
I01
tp1881
g75
((lp1882
(g1450
I00
tp1883
a(g1601
I01
tp1884
a(g1603
I00
tp1885
a(g1458
I00
tp1886
a(g1454
I01
tp1887
atp1888
Rp1889
s(g1458
I01
tp1890
g75
((lp1891
(g1619
I01
tp1892
a(g1647
I01
tp1893
a(g1845
I00
tp1894
a(g1847
I00
tp1895
a(g1448
I00
tp1896
a(g1649
I01
tp1897
a(g1453
I01
tp1898
a(g1464
I00
tp1899
a(g1443
I00
tp1900
a(g1681
I00
tp1901
a(g1809
I01
tp1902
a(g1450
I00
tp1903
a(g1459
I01
tp1904
a(g1695
I01
tp1905
a(g1455
I00
tp1906
a(g1466
I01
tp1907
a(g1454
I01
tp1908
a(g1714
I00
tp1909
a(g1462
I01
tp1910
a(g1447
I01
tp1911
atp1912
Rp1913
s(g1816
I00
tp1914
g75
((lp1915
tp1916
Rp1917
s(g1460
I00
tp1918
g75
((lp1919
(g1847
I00
tp1920
a(g1661
I00
tp1921
a(g1443
I00
tp1922
a(g1746
I00
tp1923
atp1924
Rp1925
s(g1446
I01
tp1926
g75
((lp1927
(g1454
I01
tp1928
a(g1448
I00
tp1929
a(g1462
I01
tp1930
a(g1481
I00
tp1931
a(g1830
I01
tp1932
atp1933
Rp1934
s(g1647
I00
tp1935
g75
((lp1936
(g1661
I00
tp1937
a(g1847
I00
tp1938
a(g1458
I00
tp1939
a(g1443
I00
tp1940
atp1941
Rp1942
s(g1490
I01
tp1943
g75
((lp1944
(g1823
I01
tp1945
a(g1455
I00
tp1946
a(g1448
I00
tp1947
a(g1450
I00
tp1948
a(g1453
I01
tp1949
a(g1445
I00
tp1950
a(g1446
I01
tp1951
a(g1726
I01
tp1952
a(g1809
I01
tp1953
a(g1799
I00
tp1954
a(g1830
I01
tp1955
a(g1486
I01
tp1956
a(g1441
I00
tp1957
a(g1454
I01
tp1958
a(g1463
I01
tp1959
a(g1462
I01
tp1960
a(g1481
I00
tp1961
a(g1447
I01
tp1962
atp1963
Rp1964
s(g1466
I01
tp1965
g75
((lp1966
(g1845
I00
tp1967
a(g1443
I00
tp1968
a(g1591
I00
tp1969
a(g1593
I01
tp1970
a(g1847
I00
tp1971
a(g1450
I00
tp1972
a(g1454
I01
tp1973
atp1974
Rp1975
s(g1463
I01
tp1976
g75
((lp1977
(S'real'
p1978
I01
tp1979
a(g1448
I00
tp1980
a(g1450
I00
tp1981
a(g1453
I01
tp1982
a(S'algebraic'
p1983
I01
tp1984
a(g1830
I01
tp1985
a(g1441
I00
tp1986
a(g1454
I01
tp1987
a(g1462
I01
tp1988
a(g1481
I00
tp1989
a(g1447
I01
tp1990
atp1991
Rp1992
s(S'complex'
p1993
I01
tp1994
g75
((lp1995
(g1454
I01
tp1996
a(g1448
I00
tp1997
a(g1830
I01
tp1998
atp1999
Rp2000
s(g1481
I01
tp2001
g75
((lp2002
(g1455
I00
tp2003
a(g1448
I00
tp2004
a(g1475
I00
tp2005
a(g1443
I00
tp2006
a(g1499
I00
tp2007
a(g1449
I00
tp2008
a(g1847
I00
tp2009
a(g1490
I00
tp2010
a(g1454
I01
tp2011
a(g1477
I01
tp2012
a(g1463
I00
tp2013
a(g1830
I01
tp2014
atp2015
Rp2016
s(g1746
I01
tp2017
g75
((lp2018
(S'even'
p2019
I01
tp2020
a(g1730
I01
tp2021
a(g1450
I00
tp2022
a(g1446
I01
tp2023
a(g1732
I01
tp2024
a(g1463
I01
tp2025
a(g1462
I01
tp2026
a(g1458
I00
tp2027
a(g1619
I01
tp2028
a(g1847
I00
tp2029
a(g1464
I00
tp2030
a(g1809
I00
tp2031
a(g1447
I01
tp2032
a(g1454
I01
tp2033
a(g1578
I00
tp2034
a(g1845
I00
tp2035
a(g1443
I00
tp2036
a(g1740
I01
tp2037
a(g1544
I01
tp2038
a(S'finite'
p2039
I01
tp2040
a(g1486
I01
tp2041
a(g1448
I00
tp2042
a(g1852
I00
tp2043
a(g1742
I01
tp2044
a(g1799
I00
tp2045
a(g1441
I00
tp2046
a(g1490
I00
tp2047
a(g1481
I00
tp2048
atp2049
Rp2050
s(g1815
I01
tp2051
g75
((lp2052
(S'complex'
p2053
I01
tp2054
a(g1450
I00
tp2055
a(g1527
I01
tp2056
a(g1529
I01
tp2057
a(g1454
I01
tp2058
a(g1448
I00
tp2059
a(g1447
I01
tp2060
atp2061
Rp2062
s(g1461
I00
tp2063
g75
((lp2064
tp2065
Rp2066
s(g1442
I00
tp2067
g75
((lp2068
(g1816
I00
tp2069
atp2070
Rp2071
s(g1457
I01
tp2072
g75
((lp2073
(g1619
I01
tp2074
a(g1455
I00
tp2075
a(g1448
I00
tp2076
a(g1671
I00
tp2077
a(g1687
I01
tp2078
a(g1450
I00
tp2079
a(g1453
I01
tp2080
a(g1809
I01
tp2081
a(g1656
I01
tp2082
a(g1460
I01
tp2083
a(g1685
I01
tp2084
a(g1458
I00
tp2085
a(g1730
I01
tp2086
a(g1454
I01
tp2087
a(g1466
I00
tp2088
a(g1462
I01
tp2089
a(g1447
I01
tp2090
a(g1578
I00
tp2091
atp2092
Rp2093
s(g1816
I01
tp2094
g75
((lp2095
(g1455
I00
tp2096
a(g1439
I00
tp2097
a(g1718
I00
tp2098
a(g1852
I00
tp2099
a(g1813
I01
tp2100
a(g1458
I00
tp2101
a(g1847
I00
tp2102
a(g1464
I00
tp2103
a(g1442
I01
tp2104
a(g1578
I00
tp2105
a(g1454
I01
tp2106
a(g1845
I00
tp2107
a(g1443
I00
tp2108
a(g1830
I01
tp2109
a(g1466
I00
tp2110
a(g1448
I00
tp2111
a(g1499
I00
tp2112
a(g1740
I00
tp2113
a(g1453
I00
tp2114
a(g1463
I00
tp2115
a(g1799
I00
tp2116
a(g1449
I00
tp2117
a(g1441
I00
tp2118
a(g1490
I00
tp2119
a(g1714
I00
tp2120
a(g1456
I00
tp2121
atp2122
Rp2123
s(g1464
I00
tp2124
g75
((lp2125
(g1847
I00
tp2126
a(g1457
I00
tp2127
a(g1443
I00
tp2128
atp2129
Rp2130
s(g1456
I00
tp2131
g75
((lp2132
(g1845
I00
tp2133
a(g1726
I00
tp2134
a(g1587
I00
tp2135
a(g1443
I00
tp2136
a(g1847
I00
tp2137
a(g1578
I00
tp2138
a(g1458
I00
tp2139
atp2140
Rp2141
s(g1447
I01
tp2142
g75
((lp2143
tp2144
Rp2145
s(g1726
I01
tp2146
g75
((lp2147
(g1439
I01
tp2148
a(g1455
I00
tp2149
a(g1448
I00
tp2150
a(g1450
I00
tp2151
a(g1453
I01
tp2152
a(g1456
I01
tp2153
a(g1465
I01
tp2154
a(g1454
I01
tp2155
a(g1462
I01
tp2156
a(g1447
I01
tp2157
atp2158
Rp2159
s(g1537
I00
tp2160
g75
((lp2161
tp2162
Rp2163
s(g1615
I00
tp2164
g75
((lp2165
tp2166
Rp2167
s(g1813
I00
tp2168
g75
((lp2169
(g1455
I00
tp2170
a(g1845
I00
tp2171
a(g1847
I00
tp2172
a(g1740
I00
tp2173
a(S'imaginary'
p2174
I00
tp2175
a(g1446
I00
tp2176
a(g1443
I00
tp2177
a(g1718
I00
tp2178
a(g1463
I00
tp2179
a(g1852
I00
tp2180
a(g1449
I00
tp2181
a(g1815
I00
tp2182
a(g1499
I00
tp2183
a(g1441
I00
tp2184
a(g1490
I00
tp2185
a(g1481
I00
tp2186
a(g1458
I00
tp2187
atp2188
Rp2189
s(g1454
I01
tp2190
g75
((lp2191
tp2192
Rp2193
s(g1459
I00
tp2194
g75
((lp2195
(g1699
I00
tp2196
atp2197
Rp2198
s(S'prime'
p2199
I01
tp2200
g75
((lp2201
(g1726
I01
tp2202
a(g1455
I00
tp2203
a(g1450
I00
tp2204
a(g1809
I01
tp2205
a(g1730
I01
tp2206
a(g1463
I01
tp2207
a(g1462
I01
tp2208
a(g1458
I00
tp2209
a(g1823
I01
tp2210
a(g1845
I01
tp2211
a(g1578
I00
tp2212
a(g1454
I01
tp2213
a(g1453
I01
tp2214
a(g1587
I01
tp2215
a(g1447
I01
tp2216
a(g1443
I00
tp2217
a(g1446
I01
tp2218
a(S'integer'
p2219
I01
tp2220
a(g1448
I00
tp2221
a(g1830
I01
tp2222
a(g1740
I00
tp2223
a(g1742
I01
tp2224
a(g1799
I00
tp2225
a(g1441
I00
tp2226
a(g1466
I00
tp2227
a(g1481
I00
tp2228
atp2229
Rp2230
s(g1983
I00
tp2231
g75
((lp2232
(g1455
I00
tp2233
a(g1847
I00
tp2234
a(g1443
I00
tp2235
a(g1449
I00
tp2236
a(g1499
I00
tp2237
a(g1490
I00
tp2238
a(S'rational'
p2239
I00
tp2240
atp2241
Rp2242
s(S'positive'
p2243
I00
tp2244
g75
((lp2245
(g1443
I00
tp2246
a(g1847
I00
tp2247
atp2248
Rp2249
s(g1453
I01
tp2250
g75
((lp2251
(g1450
I00
tp2252
a(S'commutative'
p2253
I01
tp2254
atp2255
Rp2256
s(g1587
I01
tp2257
g75
((lp2258
(g1455
I00
tp2259
a(g1740
I00
tp2260
a(g1450
I00
tp2261
a(g1544
I01
tp2262
a(g1582
I01
tp2263
a(g1578
I00
tp2264
a(g1444
I01
tp2265
a(g1454
I01
tp2266
a(g1597
I00
tp2267
a(g1458
I00
tp2268
atp2269
Rp2270
s(g1649
I01
tp2271
g75
((lp2272
(g1665
I01
tp2273
a(g1667
I00
tp2274
a(g1448
I00
tp2275
a(g1453
I01
tp2276
a(g1464
I00
tp2277
a(g1443
I00
tp2278
a(g1847
I00
tp2279
a(g1466
I01
tp2280
a(g1450
I00
tp2281
a(g1454
I01
tp2282
a(g1462
I01
tp2283
a(g1447
I01
tp2284
a(g1703
I01
tp2285
atp2286
Rp2287
s(g2039
I00
tp2288
g75
((lp2289
(g1455
I00
tp2290
a(g1457
I00
tp2291
a(g1847
I00
tp2292
a(g1708
I00
tp2293
a(g1450
I00
tp2294
a(g1475
I00
tp2295
a(g1443
I00
tp2296
a(g1718
I00
tp2297
a(g1481
I00
tp2298
a(g1533
I00
tp2299
a(g1449
I00
tp2300
a(g1726
I00
tp2301
a(g1499
I00
tp2302
a(g1441
I00
tp2303
a(g1490
I00
tp2304
a(g1993
I00
tp2305
a(g1463
I00
tp2306
a(g1699
I00
tp2307
atp2308
Rp2309
s(g1757
I00
tp2310
g75
((lp2311
tp2312
Rp2313
s(g1809
I01
tp2314
g75
((lp2315
(g1454
I01
tp2316
a(g1805
I01
tp2317
a(g1803
I00
tp2318
a(g1450
I00
tp2319
atp2320
Rp2321
s(g1459
I01
tp2322
g75
((lp2323
(g1455
I00
tp2324
a(g1845
I00
tp2325
a(g1544
I01
tp2326
a(g1454
I01
tp2327
a(g1450
I00
tp2328
a(g1443
I00
tp2329
a(g1718
I00
tp2330
a(g1572
I01
tp2331
a(g1847
I00
tp2332
a(g1574
I01
tp2333
a(g1464
I00
tp2334
a(g1607
I00
tp2335
atp2336
Rp2337
s(g2019
I00
tp2338
g75
((lp2339
(g1455
I00
tp2340
atp2341
Rp2342
s(g1486
I01
tp2343
g75
((lp2344
(g1823
I01
tp2345
a(g1448
I00
tp2346
a(g1450
I00
tp2347
a(g1453
I01
tp2348
a(g1446
I01
tp2349
a(g1799
I00
tp2350
a(g1830
I01
tp2351
a(g1441
I00
tp2352
a(g1454
I01
tp2353
a(S'rational'
p2354
I01
tp2355
a(g1462
I01
tp2356
a(g1481
I00
tp2357
a(g1447
I01
tp2358
atp2359
Rp2360
s(g1454
I00
tp2361
g75
((lp2362
(g1455
I00
tp2363
a(g1439
I00
tp2364
a(g1450
I00
tp2365
a(g1718
I00
tp2366
a(g1458
I00
tp2367
a(g1847
I00
tp2368
a(g1464
I00
tp2369
a(g1475
I00
tp2370
a(g1456
I00
tp2371
a(g1578
I00
tp2372
a(S'complex'
p2373
I00
tp2374
a(g1845
I00
tp2375
a(g1443
I00
tp2376
a(g1852
I00
tp2377
a(g1714
I00
tp2378
a(g1499
I00
tp2379
a(g1740
I00
tp2380
a(S'extended_real'
p2381
I00
tp2382
a(g1463
I00
tp2383
a(g1799
I00
tp2384
a(g1449
I00
tp2385
a(g1441
I00
tp2386
a(g1490
I00
tp2387
a(g1466
I00
tp2388
a(g1481
I00
tp2389
atp2390
Rp2391
s(g1444
I00
tp2392
g75
((lp2393
(g1736
I00
tp2394
a(g1845
I00
tp2395
a(g1847
I00
tp2396
a(g1587
I00
tp2397
a(g1443
I00
tp2398
a(g1718
I00
tp2399
atp2400
Rp2401
s(g1441
I01
tp2402
g75
((lp2403
(g1785
I01
tp2404
a(g1455
I00
tp2405
a(g1453
I01
tp2406
a(g1847
I00
tp2407
a(g1448
I00
tp2408
a(g1450
I00
tp2409
a(g1443
I00
tp2410
a(g1499
I00
tp2411
a(g1809
I01
tp2412
a(g1726
I01
tp2413
a(g1449
I00
tp2414
a(g1799
I01
tp2415
a(g1490
I00
tp2416
a(g1454
I01
tp2417
a(g1462
I01
tp2418
a(g1463
I00
tp2419
a(g1447
I01
tp2420
a(g1830
I01
tp2421
atp2422
Rp2423
s(g1503
I00
tp2424
g75
((lp2425
tp2426
Rp2427
s(g1440
I01
tp2428
g75
((lp2429
tp2430
Rp2431
s(g1814
I01
tp2432
g75
((lp2433
(g1448
I00
tp2434
atp2435
Rp2436
s(g1740
I00
tp2437
g75
((lp2438
(g1746
I00
tp2439
a(g1458
I00
tp2440
atp2441
Rp2442
s(g1481
I00
tp2443
g75
((lp2444
tp2445
Rp2446
s(g1443
I01
tp2447
g75
((lp2448
(g1726
I01
tp2449
a(g1455
I00
tp2450
a(g1450
I00
tp2451
a(g1446
I01
tp2452
a(g1730
I01
tp2453
a(g1463
I01
tp2454
a(g1462
I01
tp2455
a(g1458
I00
tp2456
a(g1823
I01
tp2457
a(g2199
I00
tp2458
a(g2243
I01
tp2459
a(g1578
I00
tp2460
a(g1454
I01
tp2461
a(g1587
I01
tp2462
a(g1447
I01
tp2463
a(g1453
I01
tp2464
a(g1809
I01
tp2465
a(g1449
I01
tp2466
a(g1448
I00
tp2467
a(g1830
I01
tp2468
a(g1740
I00
tp2469
a(g1742
I01
tp2470
a(g1799
I00
tp2471
a(g1441
I00
tp2472
a(g1466
I00
tp2473
a(g1481
I00
tp2474
atp2475
Rp2476
s(g1742
I01
tp2477
g75
((lp2478
(g1675
I01
tp2479
a(g1448
I00
tp2480
a(g1450
I00
tp2481
a(g1453
I01
tp2482
a(g1677
I00
tp2483
a(g1712
I01
tp2484
a(g1578
I00
tp2485
a(g1714
I01
tp2486
a(g1454
I01
tp2487
a(g1462
I01
tp2488
a(g1447
I01
tp2489
atp2490
Rp2491
s(g1799
I00
tp2492
g75
((lp2493
tp2494
Rp2495
s(g1593
I00
tp2496
g75
((lp2497
(g1537
I00
tp2498
a(g1845
I00
tp2499
a(g1847
I00
tp2500
a(g1740
I00
tp2501
a(g1533
I00
tp2502
a(g1464
I00
tp2503
a(g1809
I00
tp2504
a(g1443
I00
tp2505
a(g1718
I00
tp2506
a(g1799
I00
tp2507
a(g1449
I00
tp2508
a(g1852
I00
tp2509
a(g1499
I00
tp2510
a(g1539
I00
tp2511
a(g1441
I00
tp2512
a(g1490
I00
tp2513
a(g1607
I00
tp2514
a(g1463
I00
tp2515
a(g1458
I00
tp2516
a(g1597
I00
tp2517
atp2518
Rp2519
s(g1449
I00
tp2520
g75
((lp2521
(g1455
I00
tp2522
a(g1443
I00
tp2523
a(g1847
I00
tp2524
a(g1499
I00
tp2525
a(g1490
I00
tp2526
atp2527
Rp2528
s(g1799
I01
tp2529
g75
((lp2530
(g1455
I00
tp2531
a(g1795
I01
tp2532
a(g1450
I00
tp2533
a(g1443
I00
tp2534
a(g1499
I00
tp2535
a(g1809
I01
tp2536
a(g1793
I00
tp2537
a(g1847
I00
tp2538
a(g1490
I00
tp2539
a(g1454
I01
tp2540
atp2541
Rp2542
s(g1451
I00
tp2543
g75
((lp2544
tp2545
Rp2546
s(g1448
I01
tp2547
g75
((lp2548
(g1814
I00
tp2549
a(g1455
I00
tp2550
a(g1845
I00
tp2551
a(g1847
I00
tp2552
a(g1740
I00
tp2553
a(g1450
I00
tp2554
a(g1475
I00
tp2555
a(g1443
I00
tp2556
a(g1718
I00
tp2557
a(g1463
I00
tp2558
a(g1852
I00
tp2559
a(g1449
I00
tp2560
a(g1439
I00
tp2561
a(g1499
I00
tp2562
a(g1441
I00
tp2563
a(g1490
I00
tp2564
a(g1813
I00
tp2565
a(g1481
I00
tp2566
a(g1458
I00
tp2567
atp2568
Rp2569
s(g1466
I00
tp2570
g75
((lp2571
(g1736
I00
tp2572
a(g1708
I00
tp2573
a(g1578
I00
tp2574
a(g1458
I00
tp2575
atp2576
Rp2577
s(g1463
I00
tp2578
g75
((lp2579
(g1455
I00
tp2580
a(g1499
I00
tp2581
a(g1443
I00
tp2582
a(S'integer'
p2583
I00
tp2584
a(g1847
I00
tp2585
a(g1490
I00
tp2586
atp2587
Rp2588
ssg1194
g423
(g75
tp2589
Rp2590
g1740
g75
((lp2591
g1439
ag2199
ag1593
ag1454
ag1443
ag1457
ag1466
ag1458
ag1746
ag1813
ag1448
ag1587
ag1447
ag2039
ag1816
atp2592
Rp2593
sg1455
g75
((lp2594
g1439
ag2019
ag1481
ag1740
ag1443
ag1466
ag1983
ag1447
ag1448
ag1449
ag1816
ag1490
ag1441
ag1726
ag1593
ag1454
ag1809
ag1457
ag1799
ag1458
ag1459
ag1460
ag2199
ag1813
ag1463
ag1587
ag2039
ag1444
atp2595
Rp2596
sg1490
g75
((lp2597
g1439
ag1481
ag1983
ag1746
ag1448
ag1449
ag1816
ag1441
ag1445
ag1593
ag1454
ag1799
ag1447
ag1813
ag1463
ag2039
atp2598
Rp2599
sg1441
g75
((lp2600
g1445
ag1439
ag1593
ag1454
ag1443
ag2199
ag1447
ag1746
ag1813
ag1463
ag1448
ag1486
ag1816
ag2039
ag1490
atp2601
Rp2602
sg1852
g75
((lp2603
g1439
ag1441
ag1443
ag1456
ag1746
ag1448
ag1447
ag1490
ag1816
ag2199
ag1593
ag1454
ag1457
ag1458
ag1813
ag2039
atp2604
Rp2605
sg1440
g75
((lp2606
tp2607
Rp2608
sg1454
g75
((lp2609
g1815
ag1726
ag1441
ag1649
ag1443
ag1466
ag1809
ag1746
ag1486
ag1816
ag1742
ag1490
ag1445
ag1453
ag1446
ag1457
ag1799
ag1458
ag1459
ag1463
ag2199
ag1993
ag1481
ag1587
ag1730
atp2610
Rp2611
sg1845
g75
((lp2612
g1439
ag2199
ag1649
ag1443
ag1466
ag1456
ag1746
ag1448
ag1447
ag1816
ag1647
ag1593
ag1454
ag1458
ag1459
ag1460
ag1813
ag1464
ag2039
ag1444
atp2613
Rp2614
sg1799
g75
((lp2615
g1445
ag2199
ag1593
ag1454
ag1443
ag1746
ag1486
ag1816
ag1490
ag1441
atp2616
Rp2617
sg1458
g75
((lp2618
g1439
ag2199
ag1740
ag1443
ag1730
ag1456
ag1746
ag1448
ag1816
ag1647
ag1593
ag1454
ag1457
ag1447
ag1459
ag1742
ag1813
ag1587
ag2039
ag1466
atp2619
Rp2620
sg1603
g75
((lp2621
g2199
ag1593
ag1454
ag1443
ag1457
ag1730
ag1458
ag1742
ag1456
ag1746
ag1587
ag1816
ag1466
atp2622
Rp2623
sg1462
g75
((lp2624
g1815
ag2199
ag1441
ag1649
ag1443
ag1446
ag1746
ag1726
ag1448
ag1486
ag1816
ag1490
ag1454
ag1445
ag1481
ag1457
ag1458
ag1742
ag1463
ag2039
atp2625
Rp2626
sg1463
g75
((lp2627
g1439
ag2199
ag1441
ag1443
ag1983
ag1746
ag1448
ag1486
ag1816
ag1490
ag1445
ag1593
ag1454
ag1447
ag1813
ag1481
ag2039
atp2628
Rp2629
sg1830
g75
((lp2630
g1815
ag2199
ag1463
ag1649
ag1443
ag1446
ag1746
ag1448
ag1486
ag1816
ag1490
ag1441
ag1445
ag1457
ag1458
ag1742
ag1993
ag1481
ag1726
atp2631
Rp2632
sg1466
g75
((lp2633
g2199
ag1593
ag1454
ag1649
ag1443
ag1457
ag1458
ag1459
ag1746
ag1816
ag1587
atp2634
Rp2635
sg1823
g75
((lp2636
g1726
ag1441
ag1649
ag1443
ag1746
ag1448
ag1486
ag1447
ag1490
ag1816
ag1445
ag1593
ag1454
ag1457
ag1458
ag1742
ag2199
ag1813
ag1463
ag2039
atp2637
Rp2638
sg1499
g75
((lp2639
g1439
ag1481
ag1983
ag1746
ag1448
ag1449
ag1816
ag1490
ag1441
ag1593
ag1454
ag1799
ag1447
ag1813
ag1463
ag2039
atp2640
Rp2641
sg1481
g75
((lp2642
g1445
ag2199
ag1454
ag1443
ag1446
ag1746
ag1813
ag1463
ag1448
ag1486
ag2039
ag1490
atp2643
Rp2644
sg1442
g75
((lp2645
g1816
atp2646
Rp2647
sg1443
g75
((lp2648
g1439
ag2199
ag1447
ag1481
ag1649
ag1444
ag1983
ag1746
ag1448
ag1449
ag1816
ag1441
ag1647
ag1593
ag1454
ag1456
ag2243
ag1799
ag1458
ag1459
ag1460
ag1813
ag1463
ag1464
ag2039
ag1466
atp2649
Rp2650
sg1714
g75
((lp2651
g2199
ag1593
ag1454
ag1443
ag1457
ag1458
ag1459
ag1742
ag1746
ag1816
ag1587
atp2652
Rp2653
sg1446
g75
((lp2654
g1445
ag2199
ag1481
ag1443
ag1746
ag1813
ag1463
ag1448
ag1486
ag2039
ag1490
ag1454
atp2655
Rp2656
sg1448
g75
((lp2657
g1815
ag2199
ag1463
ag1649
ag1443
ag1446
ag1746
ag1726
ag1486
ag1816
ag1490
ag1441
ag1445
ag1457
ag1458
ag1742
ag1993
ag1481
ag1814
atp2658
Rp2659
sg1494
g75
((lp2660
g1439
ag2199
ag1481
ag1443
ag1983
ag1746
ag1448
ag1816
ag1490
ag1441
ag1445
ag1593
ag1454
ag1799
ag1447
ag1813
ag1463
ag2039
atp2661
Rp2662
sg1450
g75
((lp2663
g1815
ag1726
ag1441
ag1442
ag1649
ag1443
ag1466
ag1809
ag1746
ag1448
ag1486
ag1490
ag1445
ag1453
ag1454
ag1457
ag1799
ag1458
ag1459
ag1742
ag2199
ag1813
ag1463
ag1587
ag2039
ag1730
atp2664
Rp2665
sg1847
g75
((lp2666
g1439
ag1447
ag1481
ag1649
ag1443
ag1444
ag1983
ag1746
ag1448
ag1449
ag1816
ag1441
ag1647
ag1593
ag1454
ag1456
ag2243
ag1799
ag1458
ag1459
ag1460
ag1813
ag1463
ag1464
ag2039
ag1466
atp2667
Rp2668
sg1453
g75
((lp2669
g1815
ag1726
ag1441
ag1649
ag1443
ag1466
ag1809
ag1746
ag1486
ag1816
ag1490
ag1445
ag1454
ag1457
ag1799
ag1458
ag1459
ag1742
ag2199
ag1463
ag1587
ag1730
atp2670
Rp2671
sg1809
g75
((lp2672
g1726
ag2199
ag1593
ag1454
ag1443
ag1457
ag1799
ag1458
ag1459
ag1746
ag1816
ag1490
ag1587
ag1441
atp2673
Rp2674
sg1447
g75
((lp2675
g1445
ag1815
ag1441
ag1649
ag1443
ag1457
ag1458
ag1742
ag2199
ag1746
ag1463
ag1486
ag1726
ag1490
atp2676
Rp2677
sg1718
g75
((lp2678
g1439
ag2199
ag1593
ag1454
ag1443
ag1457
ag1444
ag1458
ag1459
ag1746
ag1813
ag1448
ag1447
ag2039
ag1816
atp2679
Rp2680
sg1464
g75
((lp2681
g2199
ag1593
ag1454
ag1649
ag1443
ag1457
ag1466
ag1458
ag1459
ag1456
ag1746
ag1816
ag1444
atp2682
Rp2683
ssg1290
g423
(g75
tp2684
Rp2685
(g1445
I01
tp2686
(lp2687
I8
aI9
aI10
aI13
aI14
aI16
aI17
aI18
aI21
aI22
aI23
aI24
aI25
aI26
aI27
aI30
aI31
aI33
aI36
as(g1447
I00
tp2688
(lp2689
I3
aI4
aI7
aI8
aI10
aI35
aI36
as(g1439
I00
tp2690
(lp2691
I3
aI4
aI7
aI8
aI10
aI35
aI36
as(g1730
I01
tp2692
(lp2693
I4
aI5
aI6
aI9
aI10
aI12
aI13
aI15
aI17
aI18
aI22
aI26
aI28
aI35
aI36
as(g1458
I01
tp2694
(lp2695
I0
aI34
aI35
as(g1816
I00
tp2696
g75
((lp2697
tp2698
Rp2699
s(g1460
I00
tp2700
(lp2701
I7
aI8
aI10
aI15
aI16
aI21
aI36
as(g1446
I01
tp2702
(lp2703
I3
aI5
aI6
aI23
aI24
aI25
aI26
aI27
as(g1647
I00
tp2704
(lp2705
I15
aI17
aI21
aI22
as(g1490
I01
tp2706
(lp2707
I8
aI10
aI11
aI12
aI13
aI14
aI16
aI18
aI19
aI20
aI21
aI22
aI23
aI24
aI25
aI26
as(g1466
I01
tp2708
(lp2709
I4
aI5
aI6
aI8
aI9
aI11
aI14
aI15
aI16
aI17
aI21
aI25
aI28
aI35
aI36
as(g1463
I01
tp2710
(lp2711
I8
aI9
aI10
aI13
aI14
aI16
aI17
aI18
aI21
aI22
aI23
aI24
aI25
aI26
aI27
aI35
aI36
as(g1993
I01
tp2712
(lp2713
I0
aI3
aI5
aI6
aI23
aI24
aI25
aI26
aI27
as(g1481
I01
tp2714
(lp2715
I3
aI5
aI6
aI7
aI8
aI10
aI15
aI16
aI18
aI23
aI24
aI25
aI26
aI27
aI34
aI35
aI36
as(g1746
I01
tp2716
(lp2717
s(g1815
I01
tp2718
(lp2719
I0
aI8
aI9
aI10
aI13
aI14
aI16
aI17
aI18
aI21
aI22
aI23
aI24
aI25
aI26
aI27
aI34
aI35
aI36
as(g1461
I00
tp2720
(lp2721
I30
aI32
aI33
as(g1442
I00
tp2722
(lp2723
s(g1457
I01
tp2724
(lp2725
I0
aI30
aI31
aI32
aI34
aI35
as(g1816
I01
tp2726
(lp2727
I0
as(g1464
I00
tp2728
(lp2729
I7
aI8
aI9
aI13
aI15
aI16
aI17
aI21
as(g1456
I00
tp2730
(lp2731
I7
aI9
aI13
aI14
aI15
aI17
aI21
aI22
as(g1447
I01
tp2732
g75
((lp2733
tp2734
Rp2735
s(g1726
I01
tp2736
(lp2737
I0
aI8
aI10
aI11
aI12
aI13
aI14
aI16
aI18
aI19
aI20
aI21
aI22
aI23
aI24
aI25
aI26
aI34
aI35
as(g1537
I00
tp2738
(lp2739
I7
aI8
aI10
aI15
aI16
aI18
aI36
as(g1615
I00
tp2740
(lp2741
I15
aI17
aI18
aI22
as(g1813
I00
tp2742
(lp2743
I3
aI4
aI7
aI8
aI10
aI35
aI36
as(g1454
I01
tp2744
g75
((lp2745
tp2746
Rp2747
s(g1459
I00
tp2748
(lp2749
I7
aI9
aI10
aI14
aI15
aI17
aI18
aI22
as(g2199
I01
tp2750
(lp2751
I1
aI2
as(g1983
I00
tp2752
(lp2753
I0
aI7
aI8
aI10
aI15
aI16
aI18
aI34
aI35
aI36
as(g2243
I00
tp2754
(lp2755
I15
aI16
aI17
aI21
as(g1453
I01
tp2756
(lp2757
I4
aI5
aI6
aI8
aI9
aI10
aI13
aI14
aI35
aI36
as(g1587
I01
tp2758
(lp2759
I4
aI5
aI6
aI15
aI18
aI22
aI23
aI26
aI27
aI35
as(g1649
I01
tp2760
(lp2761
I0
aI8
aI9
aI11
aI14
aI16
aI17
aI19
aI22
aI24
aI26
aI27
aI28
aI29
aI34
aI35
aI36
as(g2039
I00
tp2762
(lp2763
I3
aI4
aI7
aI8
aI10
aI35
aI36
as(g1757
I00
tp2764
(lp2765
I31
aI32
aI33
as(g1809
I01
tp2766
(lp2767
I4
aI5
aI6
aI8
aI10
aI11
aI12
aI13
aI14
aI15
aI16
aI18
aI27
aI35
as(g1459
I01
tp2768
(lp2769
I4
aI5
aI6
aI15
aI16
aI21
aI24
aI25
aI27
aI35
as(g2019
I00
tp2770
(lp2771
I1
aI7
aI8
aI10
aI15
aI16
aI18
aI36
as(g1486
I01
tp2772
(lp2773
I1
aI2
aI8
aI9
aI10
aI13
aI14
aI16
aI17
aI18
aI21
aI22
aI23
aI24
aI25
aI26
aI27
aI36
as(g1454
I00
tp2774
(lp2775
s(g1444
I00
tp2776
(lp2777
I7
aI8
aI13
aI15
aI16
aI21
aI36
as(g1441
I01
tp2778
(lp2779
I0
aI8
aI10
aI11
aI12
aI13
aI14
aI16
aI18
aI19
aI20
aI21
aI22
aI23
aI24
aI25
aI26
as(g1503
I00
tp2780
(lp2781
I3
aI5
as(g1440
I01
tp2782
g75
((lp2783
tp2784
Rp2785
s(g1814
I01
tp2786
(lp2787
I3
aI5
aI6
aI23
aI24
aI25
aI26
aI27
as(g1740
I00
tp2788
(lp2789
I7
aI8
aI10
aI15
aI18
aI22
aI36
as(g1481
I00
tp2790
g75
((lp2791
tp2792
Rp2793
s(g1443
I01
tp2794
(lp2795
I1
aI2
as(g1742
I01
tp2796
(lp2797
I0
aI9
aI10
aI12
aI13
aI17
aI18
aI20
aI21
aI23
aI25
aI27
aI28
aI29
aI34
aI35
aI36
as(g1799
I00
tp2798
g75
((lp2799
tp2800
Rp2801
s(g1593
I00
tp2802
(lp2803
s(g1449
I00
tp2804
(lp2805
I7
aI8
aI10
aI15
aI16
aI18
aI35
aI36
as(g1799
I01
tp2806
(lp2807
I4
aI5
aI6
aI8
aI10
aI11
aI12
aI13
aI14
aI15
aI16
aI18
aI27
as(g1451
I00
tp2808
(lp2809
I2
as(g1448
I01
tp2810
(lp2811
I7
aI8
aI10
aI35
aI36
as(g1466
I00
tp2812
(lp2813
I7
aI10
aI14
aI15
aI18
aI22
aI36
as(g1463
I00
tp2814
(lp2815
I7
aI8
aI10
aI15
aI16
aI18
aI34
aI35
aI36
assbsg1423
(dp2816
g1452
I01
sS'finite'
p2817
I01
ssbsbg6
(I4
tp2818
Rp2819
(dp2820
btp2821
Rp2822
(dp2823
bg5
(g26
(S'\\gamma'
p2824
tp2825
Rp2826
(dp2827
g31
g32
(g33
g34
(dp2828
g1439
I01
sg1440
Nsg1441
Nsg1442
Nsg1443
Nsg1444
Nsg1445
Nsg1446
Nsg1447
I01
sg1448
I00
sg1449
Nsg1450
I00
sg1451
Nsg1452
I01
sg1453
I01
sg1454
I01
sg1455
I00
sg1456
I01
sg1457
Nsg1458
Nsg1459
Nsg1460
Nsg1461
Nsg1462
I01
sg1463
Nsg1464
Nsg1465
I01
sg1466
Nstp2829
Rp2830
(dp2831
g67
g1471
sg1423
(dp2832
g1452
I01
sg2817
I01
ssbsbg2819
tp2833
Rp2834
(dp2835
bg0
(g21
g5
(g1436
g21
tp2836
Rp2837
(dp2838
bg5
(g2826
g21
tp2839
Rp2840
(dp2841
btp2842
Rp2843
(dp2844
btp2845
Rp2846
(dp2847
bg1
(I-1
I2
tp2848
Rp2849
(dp2850
btp2851
Rp2852
(dp2853
bg1433
(g2837
g2840
tp2854
Rp2855
(dp2856
btp2857
Rp2858
(dp2859
b.